 PhysXCooking_64

 Timestamp is 61c61ba2 (Fri Dec 24 11:12:34 2021)

 Preferred load address is 0000000180000000

 Start         Length     Name                   Class
 0001:00000000 000003c0H .text$di                CODE
 0001:000003c0 00043670H .text$mn                CODE
 0001:00043a30 00000040H .text$mn$00             CODE
 0001:00043a70 00000490H .text$x                 CODE
 0002:00000000 00000258H .idata$5                DATA
 0002:00000258 00000028H .00cfg                  DATA
 0002:00000280 00000008H .CRT$XCA                DATA
 0002:00000288 000001e0H .CRT$XCU                DATA
 0002:00000468 00000008H .CRT$XCZ                DATA
 0002:00000470 00000008H .CRT$XIA                DATA
 0002:00000478 00000018H .CRT$XIC                DATA
 0002:00000490 00000008H .CRT$XIZ                DATA
 0002:00000498 00000008H .CRT$XPA                DATA
 0002:000004a0 00000010H .CRT$XPX                DATA
 0002:000004b0 00000008H .CRT$XPXA               DATA
 0002:000004b8 00000008H .CRT$XPZ                DATA
 0002:000004c0 00000008H .CRT$XTA                DATA
 0002:000004c8 00000008H .CRT$XTZ                DATA
 0002:000004d0 00000000H .gehcont$y              DATA
 0002:000004d0 00000000H .gfids$y                DATA
 0002:000004d0 0000b930H .rdata                  DATA
 0002:0000be00 00000000H .rdata$CastGuardVftablesA DATA
 0002:0000be00 00000000H .rdata$CastGuardVftablesC DATA
 0002:0000be00 0000043cH .rdata$r                DATA
 0002:0000c23c 00000150H .rdata$voltmd           DATA
 0002:0000c38c 00000424H .rdata$zzzdbg           DATA
 0002:0000c7b0 00000008H .rtc$IAA                DATA
 0002:0000c7b8 00000008H .rtc$IZZ                DATA
 0002:0000c7c0 00000008H .rtc$TAA                DATA
 0002:0000c7c8 00000008H .rtc$TZZ                DATA
 0002:0000c7d0 00003c18H .xdata                  DATA
 0002:000103e8 00000084H .xdata$x                DATA
 0002:0001046c 00000040H .didat$2                DATA
 0002:000104ac 00000024H .didat$3                DATA
 0002:000104d0 000001b0H .didat$4                DATA
 0002:00010680 00000a50H .didat$6                DATA
 0002:000110d0 000001b0H .didat$7                DATA
 0002:00011280 00001d34H .edata                  DATA
 0002:00012fb4 00000014H .idata$2                DATA
 0002:00012fc8 00000018H .idata$3                DATA
 0002:00012fe0 00000258H .idata$4                DATA
 0002:00013238 0000057cH .idata$6                DATA
 0003:00000000 00000a30H .data                   DATA
 0003:00000a30 00000358H .data$r                 DATA
 0003:00000d88 000000f0H .data$rs                DATA
 0003:00000e78 000001b8H .didat$5                DATA
 0003:00001030 000015e0H .bss                    DATA
 0004:00000000 000030fcH .pdata                  DATA
 0005:00000000 0000230cH _RDATA                  DATA
 0006:00000000 000000a0H .rsrc$01                DATA
 0006:000000a0 000004b0H .rsrc$02                DATA

  Address         Publics by Value              Rva+Base               Lib:Object

 0000:00000000       ___safe_se_handler_count   0000000000000000     <absolute>
 0000:00000000       __arm64x_extra_rfe_table_size 0000000000000000     <absolute>
 0000:00000000       __hybrid_code_map          0000000000000000     <absolute>
 0000:00000000       ___safe_se_handler_table   0000000000000000     <absolute>
 0000:00000000       __arm64x_redirection_metadata 0000000000000000     <absolute>
 0000:00000000       __guard_iat_table          0000000000000000     <absolute>
 0000:00000000       __guard_iat_count          0000000000000000     <absolute>
 0000:00000000       __guard_longjmp_count      0000000000000000     <absolute>
 0000:00000000       __dynamic_value_reloc_table 0000000000000000     <absolute>
 0000:00000000       __guard_eh_cont_count      0000000000000000     <absolute>
 0000:00000000       __hybrid_auxiliary_iat     0000000000000000     <absolute>
 0000:00000000       __x64_code_ranges_to_entry_points_count 0000000000000000     <absolute>
 0000:00000000       __hybrid_auxiliary_iat_copy 0000000000000000     <absolute>
 0000:00000000       __AbsoluteZero             0000000000000000     <absolute>
 0000:00000000       __arm64x_extra_rfe_table   0000000000000000     <absolute>
 0000:00000000       __guard_check_icall_a64n_fptr 0000000000000000     <absolute>
 0000:00000000       __guard_longjmp_table      0000000000000000     <absolute>
 0000:00000000       __guard_fids_table         0000000000000000     <absolute>
 0000:00000000       __x64_code_ranges_to_entry_points 0000000000000000     <absolute>
 0000:00000000       __arm64x_redirection_metadata_count 0000000000000000     <absolute>
 0000:00000000       __enclave_config           0000000000000000     <absolute>
 0000:00000000       __guard_eh_cont_table      0000000000000000     <absolute>
 0000:00000000       __arm64x_native_entrypoint 0000000000000000     <absolute>
 0000:00000000       __hybrid_code_map_count    0000000000000000     <absolute>
 0000:00000000       __guard_fids_count         0000000000000000     <absolute>
 0000:00000100       __guard_flags              0000000000000100     <absolute>
 0000:00000000       __ImageBase                0000000180000000     <linker-defined>
 0001:000003c0       ??$?_UV?$ReflectionAllocator@VAdjTriangle@physx@@@shdfnd@physx@@@UserAllocated@shdfnd@physx@@SAPEAX_KV?$ReflectionAllocator@VAdjTriangle@physx@@@12@PEBDH@Z 00000001800013c0 f i Adjacencies.obj
 0001:00000460       ??0AdjacenciesBuilder@physx@@QEAA@XZ 0000000180001460 f   Adjacencies.obj
 0001:00000470       ??0Allocator@shdfnd@physx@@QEAA@PEBD@Z 0000000180001470 f i Adjacencies.obj
 0001:00000470       ??4Allocator@shdfnd@physx@@QEAAAEAV012@AEBV012@@Z 0000000180001470 f i Adjacencies.obj
 0001:00000470       ??0AABBTreeBuildNode@Gu@physx@@QEAA@XZ 0000000180001470 f i BVHStructureBuilder.obj
 0001:00000470       ?getPaddedBounds@HeightFieldData@Gu@physx@@QEBAAEBVCenterExtentsPadded@23@XZ 0000000180001470 f i Cooking.obj
 0001:00000470       ??0Box@Gu@physx@@QEAA@XZ   0000000180001470 f i ConvexHullUtils.obj
 0001:00000470       ??0HeightFieldData@Gu@physx@@QEAA@W4PxEMPTY@2@@Z 0000000180001470 f i Cooking.obj
 0001:00000470       ??$forward@_K@std@@YA$$QEA_KAEA_K@Z 0000000180001470 f i libvcruntime:undname.obj
 0001:00000470       ??4Allocator@shdfnd@physx@@QEAAAEAV012@$$QEAV012@@Z 0000000180001470 f i Adjacencies.obj
 0001:00000470       ??4PxFoundation@physx@@QEAAAEAV01@AEBV01@@Z 0000000180001470 f i Adjacencies.obj
 0001:00000470       ??0BigConvexData@physx@@QEAA@W4PxEMPTY@1@@Z 0000000180001470 f i BigConvexDataBuilder.obj
 0001:00000470       ??4MutexImpl@shdfnd@physx@@QEAAAEAV012@AEBV012@@Z 0000000180001470 f i Adjacencies.obj
 0001:00000470       ?getAABB@AABBTreeBuildNode@Gu@physx@@QEBAAEBVPxBounds3@3@XZ 0000000180001470 f i BVHStructureBuilder.obj
 0001:00000480       ??0PxFoundation@physx@@QEAA@AEBV01@@Z 0000000180001480 f i Adjacencies.obj
 0001:00000480       ??0PxFoundation@physx@@QEAA@XZ 0000000180001480 f i Adjacencies.obj
 0001:00000490       ??1Adjacencies@physx@@QEAA@XZ 0000000180001490 f   Adjacencies.obj
 0001:00000500       ??1AdjacenciesBuilder@physx@@QEAA@XZ 0000000180001500 f   Adjacencies.obj
 0001:00000510       ??1PxFoundation@physx@@MEAA@XZ 0000000180001510 f i Adjacencies.obj
 0001:00000520       ??_EPxFoundation@physx@@MEAAPEAXI@Z 0000000180001520 f i Adjacencies.obj
 0001:000005b0       ??1Box@Gu@physx@@QEAA@XZ   00000001800015b0 f i ConvexHullUtils.obj
 0001:000005b0       ??_FAllocator@shdfnd@physx@@QEAAXXZ 00000001800015b0 f i Adjacencies.obj
 0001:000005b0       ??1HeightFieldData@Gu@physx@@QEAA@XZ 00000001800015b0 f i Cooking.obj
 0001:000005b0       ??1AABBTreeBuildNode@Gu@physx@@QEAA@XZ 00000001800015b0 f i BVHStructureBuilder.obj
 0001:000005b0       ??1BigConvexDataBuilder@physx@@QEAA@XZ 00000001800015b0 f i BigConvexDataBuilder.obj
 0001:000005b0       _guard_check_icall_nop     00000001800015b0 f i LIBCMT:guard_support.obj
 0001:000005b0       ?onMeshIndexFormatChange@TriangleMeshBuilder@physx@@UEAAXXZ 00000001800015b0 f i TriangleMeshBuilder.obj
 0001:000005c0       ??_FNamedAllocator@shdfnd@physx@@QEAAXXZ 00000001800015c0 f i Adjacencies.obj
 0001:000005d0       ?ComputeNbBoundaryEdges@Adjacencies@physx@@QEBAIXZ 00000001800015d0 f   Adjacencies.obj
 0001:000008b0       ?GetNbHits@RadixSort@Cm@physx@@QEBAIXZ 00000001800018b0 f i Adjacencies.obj
 0001:000008c0       ?GetNbTotalCalls@RadixSort@Cm@physx@@QEBAIXZ 00000001800018c0 f i Adjacencies.obj
 0001:000008d0       ?GetRanks@RadixSort@Cm@physx@@QEBAPEBIXZ 00000001800018d0 f i Adjacencies.obj
 0001:000008d0       ?getErrorCallback@Foundation@shdfnd@physx@@UEAAAEAVPxErrorCallback@3@XZ 00000001800018d0 f i Adjacencies.obj
 0001:000008e0       ?GetRecyclable@RadixSort@Cm@physx@@QEBAPEAIXZ 00000001800018e0 f i Adjacencies.obj
 0001:000008e0       ?getPos@AABBTreeBuildNode@Gu@physx@@QEBAPEBV123@XZ 00000001800018e0 f i BVHStructureBuilder.obj
 0001:000008e0       ?GetValencies@BigConvexData@physx@@QEBAPEBUValency@Gu@2@XZ 00000001800018e0 f i BigConvexDataBuilder.obj
 0001:000008f0       ?Init@AdjacenciesBuilder@physx@@QEAA_NAEBUADJACENCIESCREATE@2@@Z 00000001800018f0 f   Adjacencies.obj
 0001:00000ea0       ?getAllocator@Foundation@shdfnd@physx@@QEAAAEAVPxAllocatorCallback@3@XZ 0000000180001ea0 f i Adjacencies.obj
 0001:00000eb0       ?getAllocatorCallback@Foundation@shdfnd@physx@@UEAAAEAVPxAllocatorCallback@3@XZ 0000000180001eb0 f i Adjacencies.obj
 0001:00000ec0       ?getErrorLevel@Foundation@shdfnd@physx@@UEBA?AW4Enum@PxErrorCode@3@XZ 0000000180001ec0 f i Adjacencies.obj
 0001:00000ed0       ?getInternalErrorCallback@Foundation@shdfnd@physx@@QEAAAEAVPxErrorCallback@3@XZ 0000000180001ed0 f i Adjacencies.obj
 0001:00000ee0       ?getNamedAllocMap@Foundation@shdfnd@physx@@QEAAAEAV?$HashMap@PEBVNamedAllocator@shdfnd@physx@@PEBDU?$Hash@PEBVNamedAllocator@shdfnd@physx@@@23@VNonTrackingAllocator@23@@23@XZ 0000000180001ee0 f i Adjacencies.obj
 0001:00000ef0       ?getNamedAllocMutex@Foundation@shdfnd@physx@@QEAAAEAV?$MutexT@VAllocator@shdfnd@physx@@@23@XZ 0000000180001ef0 f i Adjacencies.obj
 0001:00000f00       ?getReportAllocationNames@Foundation@shdfnd@physx@@UEBA_NXZ 0000000180001f00 f i Adjacencies.obj
 0001:00000f10       ?getTempAllocFreeTable@Foundation@shdfnd@physx@@QEAAAEAV?$Array@PEATTempAllocatorChunk@shdfnd@physx@@VAllocator@23@@23@XZ 0000000180001f10 f i Adjacencies.obj
 0001:00000f20       ?getTempAllocMutex@Foundation@shdfnd@physx@@QEAAAEAV?$MutexT@VAllocator@shdfnd@physx@@@23@XZ 0000000180001f20 f i Adjacencies.obj
 0001:00000f30       ?invalidateRanks@RadixSort@Cm@physx@@QEAAXXZ 0000000180001f30 f i Adjacencies.obj
 0001:00000f40       ?setErrorLevel@Foundation@shdfnd@physx@@UEAAXW4Enum@PxErrorCode@3@@Z 0000000180001f40 f i Adjacencies.obj
 0001:00000f50       ?setReportAllocationNames@Foundation@shdfnd@physx@@UEAAX_N@Z 0000000180001f50 f i Adjacencies.obj
 0001:00000f60       ??0DebugText@Cm@physx@@QEAA@AEBU012@@Z 0000000180001f60 f i Cooking.obj
 0001:00000f60       ??0DebugText@Cm@physx@@QEAA@$$QEAU012@@Z 0000000180001f60 f i Cooking.obj
 0001:00001040       ??4HeightFieldData@Gu@physx@@QEAAAEAU012@AEBU012@@Z 0000000180002040 f i Cooking.obj
 0001:00001040       ??0HeightFieldData@Gu@physx@@QEAA@AEBU012@@Z 0000000180002040 f i Cooking.obj
 0001:00001040       ??4HeightFieldData@Gu@physx@@QEAAAEAU012@$$QEAU012@@Z 0000000180002040 f i Cooking.obj
 0001:00001040       ??0HeightFieldData@Gu@physx@@QEAA@$$QEAU012@@Z 0000000180002040 f i Cooking.obj
 0001:000010a0       ??0HeightFieldData@Gu@physx@@QEAA@XZ 00000001800020a0 f i Cooking.obj
 0001:000010b0       ??0RenderOutput@Cm@physx@@QEAA@AEAVRenderBuffer@12@@Z 00000001800020b0 f i Cooking.obj
 0001:00001100       ??0RenderOutput@Cm@physx@@QEAA@AEBV012@@Z 0000000180002100 f i Cooking.obj
 0001:000011a0       ??1PxHeightField@physx@@MEAA@XZ 00000001800021a0 f i Cooking.obj
 0001:000011a0       ??1PxConvexMesh@physx@@MEAA@XZ 00000001800021a0 f i Cooking.obj
 0001:000011b0       ??4DebugText@Cm@physx@@QEAAAEAU012@$$QEAU012@@Z 00000001800021b0 f i Cooking.obj
 0001:000011b0       ??4DebugText@Cm@physx@@QEAAAEAU012@AEBU012@@Z 00000001800021b0 f i Cooking.obj
 0001:000012e0       ??4FPUGuard@shdfnd@physx@@QEAAAEAV012@AEBV012@@Z 00000001800022e0 f i Cooking.obj
 0001:00001300       ??_ECooking@physx@@UEAAPEAXI@Z 0000000180002300 f i Cooking.obj
 0001:00001300       ??_GCooking@physx@@UEAAPEAXI@Z 0000000180002300 f i Cooking.obj
 0001:00001350       ??_EPxBase@physx@@MEAAPEAXI@Z 0000000180002350 f i Cooking.obj
 0001:00001350       ??_GPxBase@physx@@MEAAPEAXI@Z 0000000180002350 f i Cooking.obj
 0001:00001380       ??_EPxCooking@physx@@MEAAPEAXI@Z 0000000180002380 f i Cooking.obj
 0001:00001380       ??_GPxCooking@physx@@MEAAPEAXI@Z 0000000180002380 f i Cooking.obj
 0001:000013b0       ?computeHullPolygons@Cooking@physx@@UEBA_NAEBVPxSimpleTriangleMesh@2@AEAVPxAllocatorCallback@2@AEAIAEAPEAVPxVec3@2@2AEAPEAI2AEAPEAUPxHullPolygon@2@@Z 00000001800023b0 f   Cooking.obj
 0001:00001590       ?cookBVHStructure@Cooking@physx@@UEBA_NAEBVPxBVHStructureDesc@2@AEAVPxOutputStream@2@@Z 0000000180002590 f   Cooking.obj
 0001:00001670       ?cookConvexMesh@Cooking@physx@@UEBA_NAEBVPxConvexMeshDesc@2@AEAVPxOutputStream@2@PEAW4Enum@PxConvexMeshCookingResult@2@@Z 0000000180002670 f   Cooking.obj
 0001:00001850       ?cookConvexMeshInternal@Cooking@physx@@AEBA_NAEBVPxConvexMeshDesc@2@AEAVConvexMeshBuilder@2@PEAVConvexHullLib@2@PEAW4Enum@PxConvexMeshCookingResult@2@@Z 0000000180002850 f   Cooking.obj
 0001:00001ac0       ?cookHeightField@Cooking@physx@@UEBA_NAEBVPxHeightFieldDesc@2@AEAVPxOutputStream@2@@Z 0000000180002ac0 f   Cooking.obj
 0001:00001bc0       ?cookTriangleMesh@Cooking@physx@@UEBA_NAEBVPxTriangleMeshDesc@2@AEAVPxOutputStream@2@PEAW4Enum@PxTriangleMeshCookingResult@2@@Z 0000000180002bc0 f   Cooking.obj
 0001:00001d00       ?copy@?$Array@UPxDebugLine@physx@@VNamedAllocator@shdfnd@2@@shdfnd@physx@@KAXPEAUPxDebugLine@3@0PEBU43@@Z 0000000180002d00 f i Cooking.obj
 0001:00001eb0       ?createBVHStructure@Cooking@physx@@UEBAPEAVPxBVHStructure@2@AEBVPxBVHStructureDesc@2@AEAVPxPhysicsInsertionCallback@2@@Z 0000000180002eb0 f   Cooking.obj
 0001:00001f90       ?createConvexMesh@Cooking@physx@@UEBAPEAVPxConvexMesh@2@AEBVPxConvexMeshDesc@2@AEAVPxPhysicsInsertionCallback@2@PEAW4Enum@PxConvexMeshCookingResult@2@@Z 0000000180002f90 f   Cooking.obj
 0001:00002190       ?createHeightField@Cooking@physx@@UEBAPEAVPxHeightField@2@AEBVPxHeightFieldDesc@2@AEAVPxPhysicsInsertionCallback@2@@Z 0000000180003190 f   Cooking.obj
 0001:00002350       ?createTriangleMesh@Cooking@physx@@UEBAPEAVPxTriangleMesh@2@AEBVPxTriangleMeshDesc@2@AEAVPxPhysicsInsertionCallback@2@PEAW4Enum@PxTriangleMeshCookingResult@2@@Z 0000000180003350 f   Cooking.obj
 0001:000024a0       ?getConcreteTypeName@PxConvexMesh@physx@@UEBAPEBDXZ 00000001800034a0 f i Cooking.obj
 0001:000024b0       ?getConcreteTypeName@PxHeightField@physx@@UEBAPEBDXZ 00000001800034b0 f i Cooking.obj
 0001:000024c0       ?getConvexEdgeThreshold@HeightField@Gu@physx@@UEBAMXZ 00000001800034c0 f i Cooking.obj
 0001:000024d0       ?getFlags@HeightField@Gu@physx@@UEBA?AV?$PxFlags@W4Enum@PxHeightFieldFlag@physx@@G@3@XZ 00000001800034d0 f i Cooking.obj
 0001:000024e0       ?getFormat@HeightField@Gu@physx@@UEBA?AW4Enum@PxHeightFieldFormat@3@XZ 00000001800034e0 f i Cooking.obj
 0001:000024f0       ?getHeight@HeightField@Gu@physx@@UEBAMMM@Z 00000001800034f0 f i Cooking.obj
 0001:00002530       ?getHeightInternal2@HeightField@Gu@physx@@QEBAMIMM@Z 0000000180003530 f i Cooking.obj
 0001:000026a0       ?getIndexBuffer@ConvexMesh@Gu@physx@@UEBAPEBEXZ 00000001800036a0 f i Cooking.obj
 0001:000026e0       ?getNbColumns@HeightField@Gu@physx@@UEBAIXZ 00000001800036e0 f i Cooking.obj
 0001:000026f0       ?getNbPolygons@ConvexMesh@Gu@physx@@UEBAIXZ 00000001800036f0 f i Cooking.obj
 0001:00002700       ?getNbRows@HeightField@Gu@physx@@UEBAIXZ 0000000180003700 f i Cooking.obj
 0001:00002710       ?getNbVertices@ConvexMesh@Gu@physx@@UEBAIXZ 0000000180003710 f i Cooking.obj
 0001:00002720       ?getParams@Cooking@physx@@UEBAAEBUPxCookingParams@2@XZ 0000000180003720 f   Cooking.obj
 0001:00002720       ?getDenormalizeScale@QuantizerImpl@@UEBAAEBVPxVec3@physx@@XZ 0000000180003720 f   Quantizer.obj
 0001:00002730       ?getSample@HeightField@Gu@physx@@UEBAAEBUPxHeightFieldSample@3@II@Z 0000000180003730 f i Cooking.obj
 0001:00002740       ?getSampleStride@HeightField@Gu@physx@@UEBAIXZ 0000000180003740 f i Cooking.obj
 0001:00002750       ?getTimestamp@HeightField@Gu@physx@@UEBAIXZ 0000000180003750 f i Cooking.obj
 0001:00002760       ?getTriangleMaterialIndex@HeightField@Gu@physx@@UEBAGI@Z 0000000180003760 f i Cooking.obj
 0001:00002790       ?getTriangleNormal@HeightField@Gu@physx@@UEBA?AVPxVec3@3@I@Z 0000000180003790 f i Cooking.obj
 0001:00002890       ?getVertices@ConvexMesh@Gu@physx@@UEBAPEBVPxVec3@3@XZ 0000000180003890 f i Cooking.obj
 0001:000028b0       ?isKindOf@PxBase@physx@@MEBA_NPEBD@Z 00000001800038b0 f i Cooking.obj
 0001:000028e0       ?isKindOf@PxConvexMesh@physx@@MEBA_NPEBD@Z 00000001800038e0 f i Cooking.obj
 0001:00002930       ?isKindOf@PxHeightField@physx@@MEBA_NPEBD@Z 0000000180003930 f i Cooking.obj
 0001:00002980       ?isReleasable@PxBase@physx@@UEBA_NXZ 0000000180003980 f i Cooking.obj
 0001:00002990       ?outputSegment@RenderOutput@Cm@physx@@QEAAXAEBVPxVec3@3@0@Z 0000000180003990 f i Cooking.obj
 0001:00002a50       ?platformMismatch@Cooking@physx@@UEBA_NXZ 0000000180003a50 f   Cooking.obj
 0001:00002a60       ?preExportDataReset@ConvexMesh@Gu@physx@@QEAAXXZ 0000000180003a60 f i Cooking.obj
 0001:00002a60       ?preExportDataReset@HeightField@Gu@physx@@QEAAXXZ 0000000180003a60 f i Cooking.obj
 0001:00002a70       ?recreate@?$Array@UPxDebugLine@physx@@VNamedAllocator@shdfnd@2@@shdfnd@physx@@IEAAXI@Z 0000000180003a70 f i Cooking.obj
 0001:00002b10       ?release@Cooking@physx@@UEAAXXZ 0000000180003b10 f   Cooking.obj
 0001:00002b30       ?reserveSegments@RenderOutput@Cm@physx@@QEAAPEAUPxDebugLine@3@I@Z 0000000180003b30 f i Cooking.obj
 0001:00002ba0       ?setParams@Cooking@physx@@UEAAXAEBUPxCookingParams@2@@Z 0000000180003ba0 f   Cooking.obj
 0001:00002c00       ?validateConvexMesh@Cooking@physx@@UEBA_NAEBVPxConvexMeshDesc@2@@Z 0000000180003c00 f   Cooking.obj
 0001:00002c60       ?validateTriangleMesh@Cooking@physx@@UEBA_NAEBVPxTriangleMeshDesc@2@@Z 0000000180003c60 f   Cooking.obj
 0001:00002d70       PxCreateCooking            0000000180003d70 f   Cooking.obj
 0001:00002e60       ??0ReducedVertexCloud@physx@@QEAA@PEBVPxVec3@1@I@Z 0000000180003e60 f   CookingUtils.obj
 0001:00002e80       ??1ReducedVertexCloud@physx@@QEAA@XZ 0000000180003e80 f   CookingUtils.obj
 0001:00002e90       ?Clean@ReducedVertexCloud@physx@@QEAAAEAV12@XZ 0000000180003e90 f   CookingUtils.obj
 0001:00002f00       ?Reduce@ReducedVertexCloud@physx@@QEAA_NPEAUREDUCEDCLOUD@2@@Z 0000000180003f00 f   CookingUtils.obj
 0001:00003210       ??$?_UI@@YAPEAX_KV?$ReflectionAllocator@I@shdfnd@physx@@PEBDH@Z 0000000180004210 f i EdgeList.obj
 0001:000032b0       ??0EdgeListBuilder@Gu@physx@@QEAA@XZ 00000001800042b0 f   EdgeList.obj
 0001:000032d0       ??1EdgeList@Gu@physx@@QEAA@XZ 00000001800042d0 f   EdgeList.obj
 0001:00003370       ??1EdgeListBuilder@Gu@physx@@QEAA@XZ 0000000180004370 f   EdgeList.obj
 0001:00003380       ?computeActiveEdges@EdgeListBuilder@Gu@physx@@AEAA_NIPEBIPEBGPEBVPxVec3@3@M@Z 0000000180004380 f   EdgeList.obj
 0001:000049f0       ?createEdgesToFaces@EdgeListBuilder@Gu@physx@@AEAA_NIPEBIPEBG@Z 00000001800059f0 f   EdgeList.obj
 0001:00004c40       ?createFacesToEdges@EdgeListBuilder@Gu@physx@@AEAA_NIPEBIPEBG@Z 0000000180005c40 f   EdgeList.obj
 0001:000050c0       ?init@EdgeListBuilder@Gu@physx@@QEAA_NAEBUEDGELISTCREATE@23@@Z 00000001800060c0 f   EdgeList.obj
 0001:000051f0       ??0MeshCleaner@physx@@QEAA@IPEBVPxVec3@1@IPEBIM@Z 00000001800061f0 f   MeshCleaner.obj
 0001:00005bb0       ??1MeshCleaner@physx@@QEAA@XZ 0000000180006bb0 f   MeshCleaner.obj
 0001:00005c40       ??$kmeans_cluster@VPxVec3@physx@@M@@YAIPEBVPxVec3@physx@@IIPEAV01@PEAIMM@Z 0000000180006c40 f i Quantizer.obj
 0001:00006530       ??_GQuantizer@physx@@MEAAPEAXI@Z 0000000180007530 f i Quantizer.obj
 0001:00006530       ??_EQuantizer@physx@@MEAAPEAXI@Z 0000000180007530 f i Quantizer.obj
 0001:00006560       ??_EQuantizerImpl@@EEAAPEAXI@Z 0000000180007560 f i Quantizer.obj
 0001:00006560       ??_GQuantizerImpl@@EEAAPEAXI@Z 0000000180007560 f i Quantizer.obj
 0001:00006630       ?createQuantizer@physx@@YAPEAVQuantizer@1@XZ 0000000180007630 f   Quantizer.obj
 0001:00006750       ?getDenormalizeCenter@QuantizerImpl@@UEBAAEBVPxVec3@physx@@XZ 0000000180007750 f i Quantizer.obj
 0001:00006760       ?growAndPushBack@?$Array@VPxVec3@physx@@VNamedAllocator@shdfnd@2@@shdfnd@physx@@IEAAAEAVPxVec3@3@AEBV43@@Z 0000000180007760 f i Quantizer.obj
 0001:00006900       ?kmeansQuantize3D@QuantizerImpl@@UEAAPEBVPxVec3@physx@@IPEBV23@I_NIAEAI@Z 0000000180007900 f i Quantizer.obj
 0001:00006b70       ?normalizeInput@QuantizerImpl@@AEAAXIPEBVPxVec3@physx@@I@Z 0000000180007b70 f i Quantizer.obj
 0001:00006fa0       ?release@QuantizerImpl@@UEAAXXZ 0000000180007fa0 f i Quantizer.obj
 0001:00006fc0       ??$copy@VNamedAllocator@shdfnd@physx@@@?$Array@USlab@NodeAllocator@Gu@physx@@VNamedAllocator@shdfnd@4@@shdfnd@physx@@IEAAXAEBV012@@Z 0000000180007fc0 f i BVHStructureBuilder.obj
 0001:00007040       ??4AABBTreeBuildNode@Gu@physx@@QEAAAEAV012@AEBV012@@Z 0000000180008040 f i BVHStructureBuilder.obj
 0001:00007040       ??0AABBTreeBuildNode@Gu@physx@@QEAA@AEBV012@@Z 0000000180008040 f i BVHStructureBuilder.obj
 0001:00007080       ??0AABBTreeBuildParams@Gu@physx@@QEAA@IIPEBVPxBounds3@2@@Z 0000000180008080 f i BVHStructureBuilder.obj
 0001:000070a0       ??0BVHStructureBuilder@physx@@QEAA@XZ 00000001800080a0 f   BVHStructureBuilder.obj
 0001:000070c0       ??0BuildStats@Gu@physx@@QEAA@XZ 00000001800080c0 f i BVHStructureBuilder.obj
 0001:000070d0       ??0NodeAllocator@Gu@physx@@QEAA@AEBV012@@Z 00000001800080d0 f i BVHStructureBuilder.obj
 0001:00007140       ??1AABBTreeBuildParams@Gu@physx@@QEAA@XZ 0000000180008140 f i BVHStructureBuilder.obj
 0001:00007140       ?reset@AABBTreeBuildParams@Gu@physx@@QEAAXXZ 0000000180008140 f i BVHStructureBuilder.obj
 0001:000071a0       ??1BVHStructureBuilder@physx@@QEAA@XZ 00000001800081a0 f   BVHStructureBuilder.obj
 0001:00007220       ??4AABBTreeBuildParams@Gu@physx@@QEAAAEAV012@AEBV012@@Z 0000000180008220 f i BVHStructureBuilder.obj
 0001:00007240       ??4BuildStats@Gu@physx@@QEAAAEAU012@$$QEAU012@@Z 0000000180008240 f i BVHStructureBuilder.obj
 0001:00007250       ??4BuildStats@Gu@physx@@QEAAAEAU012@AEBU012@@Z 0000000180008250 f i BVHStructureBuilder.obj
 0001:00007260       ??4NodeAllocator@Gu@physx@@QEAAAEAV012@AEBV012@@Z 0000000180008260 f i BVHStructureBuilder.obj
 0001:00007310       ??_FAABBTreeBuildParams@Gu@physx@@QEAAXXZ 0000000180008310 f i BVHStructureBuilder.obj
 0001:00007330       ??_V@YAXPEAX_K@Z           0000000180008330 f i LIBCMT:delete_array_size.obj
 0001:00007330       ?__global_delete@@YAXPEAX_K@Z 0000000180008330 f i BVHStructureBuilder.obj
 0001:00007340       ?allocate@?$Array@USlab@NodeAllocator@Gu@physx@@VNamedAllocator@shdfnd@4@@shdfnd@physx@@IEAAPEAUSlab@NodeAllocator@Gu@3@I@Z 0000000180008340 f i BVHStructureBuilder.obj
 0001:000073a0       ?getCount@BuildStats@Gu@physx@@QEBAIXZ 00000001800083a0 f i BVHStructureBuilder.obj
 0001:000073b0       ?getNbPrimitives@AABBTreeBuildNode@Gu@physx@@QEBAIXZ 00000001800083b0 f i BVHStructureBuilder.obj
 0001:000073b0       ?getNbRuntimePrimitives@AABBTreeBuildNode@Gu@physx@@QEBAIXZ 00000001800083b0 f i BVHStructureBuilder.obj
 0001:000073c0       ?getNeg@AABBTreeBuildNode@Gu@physx@@QEBAPEBV123@XZ 00000001800083c0 f i BVHStructureBuilder.obj
 0001:000073e0       ?getPrimitives@AABBTreeBuildNode@Gu@physx@@QEBAPEBIPEBI@Z 00000001800083e0 f i BVHStructureBuilder.obj
 0001:000073e0       ?getPrimitives@AABBTreeBuildNode@Gu@physx@@QEAAPEAIPEAI@Z 00000001800083e0 f i BVHStructureBuilder.obj
 0001:000073f0       ?increaseCount@BuildStats@Gu@physx@@QEAAXI@Z 00000001800083f0 f i BVHStructureBuilder.obj
 0001:00007400       ?isLeaf@AABBTreeBuildNode@Gu@physx@@QEBA_NXZ 0000000180008400 f i BVHStructureBuilder.obj
 0001:00007410       ?loadFromDesc@BVHStructureBuilder@physx@@QEAA_NAEBVPxBVHStructureDesc@2@@Z 0000000180008410 f   BVHStructureBuilder.obj
 0001:000078b0       ?moveData@BVHStructureBuilder@physx@@QEAAXAEAUBVHStructureData@Gu@2@@Z 00000001800088b0 f   BVHStructureBuilder.obj
 0001:000078f0       ?recreate@?$Array@USlab@NodeAllocator@Gu@physx@@VNamedAllocator@shdfnd@4@@shdfnd@physx@@IEAAXI@Z 00000001800088f0 f i BVHStructureBuilder.obj
 0001:000079a0       ?reset@BuildStats@Gu@physx@@QEAAXXZ 00000001800089a0 f i BVHStructureBuilder.obj
 0001:000079b0       ?save@BVHStructureBuilder@physx@@QEBA_NAEAVPxOutputStream@2@_N@Z 00000001800089b0 f   BVHStructureBuilder.obj
 0001:00007b30       ?setCount@BuildStats@Gu@physx@@QEAAXI@Z 0000000180008b30 f i BVHStructureBuilder.obj
 0001:00007b40       ?setNbRunTimePrimitives@AABBTreeBuildNode@Gu@physx@@QEAAXI@Z 0000000180008b40 f i BVHStructureBuilder.obj
 0001:00007b50       ?saveHeightField@physx@@YA_NAEBVHeightField@Gu@1@AEAVPxOutputStream@1@_N@Z 0000000180008b50 f   HeightFieldCooking.obj
 0001:00007d90       ??$quickSelectFirstK@UBoundsLTE@physx@@@quickSelect@physx@@YAXPEIAIIIIAEBUBoundsLTE@1@@Z 0000000180008d90 f i RTreeCooking.obj
 0001:00007f70       ??$smallSort@I$$CBUSortBoundsPredicate@physx@@@internal@shdfnd@physx@@YAXPEAIHHAEBUSortBoundsPredicate@2@@Z 0000000180008f70 f i RTreeCooking.obj
 0001:00008240       ??$sort@IU?$Less@I@shdfnd@physx@@VNamedAllocator@23@@shdfnd@physx@@YAXPEAIIAEBU?$Less@I@01@AEBVNamedAllocator@01@I@Z 0000000180009240 f i RTreeCooking.obj
 0001:00008600       ??$sort@IUSortBoundsPredicate@physx@@VNamedAllocator@shdfnd@2@@shdfnd@physx@@YAXPEAIIAEBUSortBoundsPredicate@1@AEBVNamedAllocator@01@I@Z 0000000180009600 f i RTreeCooking.obj
 0001:00008a60       ??0?$InlineArray@UInterval@physx@@$0EAA@VNamedAllocator@shdfnd@2@@shdfnd@physx@@QEAA@AEBVNamedAllocator@12@@Z 0000000180009a60 f i RTreeCooking.obj
 0001:00008b30       ?allocate@?$Array@UInterval@physx@@V?$InlineAllocator@$0CAAA@VNamedAllocator@shdfnd@physx@@@shdfnd@2@@shdfnd@physx@@IEAAPEAUInterval@3@I@Z 0000000180009b30 f i RTreeCooking.obj
 0001:00009940       ?buildFromTriangles@RTreeCooker@physx@@SAXAEAURTree@Gu@2@PEBVPxVec3@2@IPEBGPEBIIAEAV?$Array@IVNamedAllocator@shdfnd@physx@@@shdfnd@2@PEAURemapCallback@12@MW4Enum@PxMeshCookingHint@2@@Z 000000018000a940 f   RTreeCooking.obj
 0001:00009bd0       ?copy@?$Array@URTreeNodeNQ@physx@@VNamedAllocator@shdfnd@2@@shdfnd@physx@@KAXPEAURTreeNodeNQ@3@0PEBU43@@Z 000000018000abd0 f i RTreeCooking.obj
 0001:00009d90       ?copy@?$Array@VPxVec3@physx@@VNamedAllocator@shdfnd@2@@shdfnd@physx@@KAXPEAVPxVec3@3@0PEBV43@@Z 000000018000ad90 f i RTreeCooking.obj
 0001:00009e60       ?growAndPushBack@?$Array@VHalfEdge@ConvexHull@physx@@VNamedAllocator@shdfnd@3@@shdfnd@physx@@IEAAAEAVHalfEdge@ConvexHull@3@AEBV453@@Z 000000018000ae60 f i ConvexHullUtils.obj
 0001:00009e60       ?growAndPushBack@?$Array@IVNamedAllocator@shdfnd@physx@@@shdfnd@physx@@IEAAAEAIAEBI@Z 000000018000ae60 f i RTreeCooking.obj
 0001:00009f50       ?growAndPushBack@?$Array@UInterval@physx@@V?$InlineAllocator@$0CAAA@VNamedAllocator@shdfnd@physx@@@shdfnd@2@@shdfnd@physx@@IEAAAEAUInterval@3@AEBU43@@Z 000000018000af50 f i RTreeCooking.obj
 0001:0000a030       ?growAndPushBack@?$Array@UPxBounds3V@physx@@VNamedAllocator@shdfnd@2@@shdfnd@physx@@IEAAAEAUPxBounds3V@3@AEBU43@@Z 000000018000b030 f i RTreeCooking.obj
 0001:0000a140       ?growAndPushBack@?$Array@URTreeNodeNQ@physx@@VNamedAllocator@shdfnd@2@@shdfnd@physx@@IEAAAEAURTreeNodeNQ@3@AEBU43@@Z 000000018000b140 f i RTreeCooking.obj
 0001:0000a250       ?growAndPushBack@?$Array@URTreeNodeQ@Gu@physx@@VNamedAllocator@shdfnd@3@@shdfnd@physx@@IEAAAEAURTreeNodeQ@Gu@3@AEBU453@@Z 000000018000b250 f i RTreeCooking.obj
 0001:0000a370       ?recreate@?$Array@VHalfEdge@ConvexHull@physx@@VNamedAllocator@shdfnd@3@@shdfnd@physx@@IEAAXI@Z 000000018000b370 f i ConvexHullUtils.obj
 0001:0000a370       ?recreate@?$Array@IVNamedAllocator@shdfnd@physx@@@shdfnd@physx@@IEAAXI@Z 000000018000b370 f i RTreeCooking.obj
 0001:0000a420       ?recreate@?$Array@UPxBounds3V@physx@@VNamedAllocator@shdfnd@2@@shdfnd@physx@@IEAAXI@Z 000000018000b420 f i RTreeCooking.obj
 0001:0000a4e0       ?recreate@?$Array@URTreeNodeNQ@physx@@VNamedAllocator@shdfnd@2@@shdfnd@physx@@IEAAXI@Z 000000018000b4e0 f i RTreeCooking.obj
 0001:0000a580       ?recreate@?$Array@URTreeNodeQ@Gu@physx@@VNamedAllocator@shdfnd@3@@shdfnd@physx@@IEAAXI@Z 000000018000b580 f i RTreeCooking.obj
 0001:0000a640       ?recreate@?$Array@VPxVec3@physx@@VNamedAllocator@shdfnd@2@@shdfnd@physx@@IEAAXI@Z 000000018000b640 f i RTreeCooking.obj
 0001:0000a6e0       ?resize@?$Array@IVNamedAllocator@shdfnd@physx@@@shdfnd@physx@@QEAAXIAEBI@Z 000000018000b6e0 f i RTreeCooking.obj
 0001:0000a7a0       ?resizeUninitialized@?$Array@URTreeNodeNQ@physx@@VNamedAllocator@shdfnd@2@@shdfnd@physx@@QEAAXI@Z 000000018000b7a0 f i RTreeCooking.obj
 0001:0000a7e0       ?sort4@SubSortQuick@physx@@QEAAXPEIAIIAEAV?$Array@URTreeNodeNQ@physx@@VNamedAllocator@shdfnd@2@@shdfnd@2@AEAIAEAUPxBounds3V@2@I@Z 000000018000b7e0 f i RTreeCooking.obj
 0001:0000ab70       ?sort4@SubSortSAH@physx@@QEAAXPEAIIAEAV?$Array@URTreeNodeNQ@physx@@VNamedAllocator@shdfnd@2@@shdfnd@2@AEAIIPEAURTreeNodeNQ@2@@Z 000000018000bb70 f i RTreeCooking.obj
 0001:0000b400       ?split@SubSortSAH@physx@@QEAAIPEAII@Z 000000018000c400 f i RTreeCooking.obj
 0001:0000be30       ?computeLocalBounds@MeshBulider@physx@@IEAAXAEAVMeshDataBase@Gu@2@@Z 000000018000ce30 f   MeshBuilder.obj
 0001:0000bec0       ??$?_UG@@YAPEAX_KV?$ReflectionAllocator@G@shdfnd@physx@@PEBDH@Z 000000018000cec0 f i TriangleMeshBuilder.obj
 0001:0000bf60       ??$sort@UEdgeTriLookup@physx@@U?$Less@UEdgeTriLookup@physx@@@shdfnd@2@VNamedAllocator@42@@shdfnd@physx@@YAXPEAUEdgeTriLookup@1@IAEBU?$Less@UEdgeTriLookup@physx@@@01@AEBVNamedAllocator@01@I@Z 000000018000cf60 f i TriangleMeshBuilder.obj
 0001:0000c450       ??0BV4TriangleMeshBuilder@physx@@QEAA@AEBUPxCookingParams@1@@Z 000000018000d450 f   TriangleMeshBuilder.obj
 0001:0000c520       ??0RTreeTriangleMeshBuilder@physx@@QEAA@AEBUPxCookingParams@1@@Z 000000018000d520 f   TriangleMeshBuilder.obj
 0001:0000c5e0       ??1BV4TriangleMeshBuilder@physx@@UEAA@XZ 000000018000d5e0 f   TriangleMeshBuilder.obj
 0001:0000c640       ??1MeshDataBase@Gu@physx@@UEAA@XZ 000000018000d640 f i TriangleMeshBuilder.obj
 0001:0000c720       ??1RTreeTriangleData@Gu@physx@@UEAA@XZ 000000018000d720 f i TriangleMeshBuilder.obj
 0001:0000c790       ??1RTreeTriangleMeshBuilder@physx@@UEAA@XZ 000000018000d790 f   TriangleMeshBuilder.obj
 0001:0000c7c0       ??1TriangleMeshBuilder@physx@@UEAA@XZ 000000018000d7c0 f   TriangleMeshBuilder.obj
 0001:0000c820       ??1TriangleMeshData@Gu@physx@@UEAA@XZ 000000018000d820 f i TriangleMeshBuilder.obj
 0001:0000c8f0       ??_GBV4TriangleData@Gu@physx@@UEAAPEAXI@Z 000000018000d8f0 f i TriangleMeshBuilder.obj
 0001:0000c8f0       ??_EBV4TriangleData@Gu@physx@@UEAAPEAXI@Z 000000018000d8f0 f i TriangleMeshBuilder.obj
 0001:0000c970       ??_EBV4TriangleMeshBuilder@physx@@UEAAPEAXI@Z 000000018000d970 f i TriangleMeshBuilder.obj
 0001:0000c970       ??_GBV4TriangleMeshBuilder@physx@@UEAAPEAXI@Z 000000018000d970 f i TriangleMeshBuilder.obj
 0001:0000c9f0       ??_GMeshDataBase@Gu@physx@@UEAAPEAXI@Z 000000018000d9f0 f i TriangleMeshBuilder.obj
 0001:0000c9f0       ??_EMeshDataBase@Gu@physx@@UEAAPEAXI@Z 000000018000d9f0 f i TriangleMeshBuilder.obj
 0001:0000ca50       ??_GRTreeCookerRemap@physx@@UEAAPEAXI@Z 000000018000da50 f i TriangleMeshBuilder.obj
 0001:0000ca50       ??_ERTreeCookerRemap@physx@@UEAAPEAXI@Z 000000018000da50 f i TriangleMeshBuilder.obj
 0001:0000ca80       ??_GRTreeTriangleData@Gu@physx@@UEAAPEAXI@Z 000000018000da80 f i TriangleMeshBuilder.obj
 0001:0000ca80       ??_ERTreeTriangleData@Gu@physx@@UEAAPEAXI@Z 000000018000da80 f i TriangleMeshBuilder.obj
 0001:0000cae0       ??_ERTreeTriangleMeshBuilder@physx@@UEAAPEAXI@Z 000000018000dae0 f i TriangleMeshBuilder.obj
 0001:0000cae0       ??_GRTreeTriangleMeshBuilder@physx@@UEAAPEAXI@Z 000000018000dae0 f i TriangleMeshBuilder.obj
 0001:0000cb30       ??_GRemapCallback@RTreeCooker@physx@@UEAAPEAXI@Z 000000018000db30 f i TriangleMeshBuilder.obj
 0001:0000cb30       ??_ERemapCallback@RTreeCooker@physx@@UEAAPEAXI@Z 000000018000db30 f i TriangleMeshBuilder.obj
 0001:0000cb60       ??_GTriangleMeshBuilder@physx@@UEAAPEAXI@Z 000000018000db60 f i TriangleMeshBuilder.obj
 0001:0000cb60       ??_ETriangleMeshBuilder@physx@@UEAAPEAXI@Z 000000018000db60 f i TriangleMeshBuilder.obj
 0001:0000cba0       ??_GTriangleMeshData@Gu@physx@@UEAAPEAXI@Z 000000018000dba0 f i TriangleMeshBuilder.obj
 0001:0000cba0       ??_ETriangleMeshData@Gu@physx@@UEAAPEAXI@Z 000000018000dba0 f i TriangleMeshBuilder.obj
 0001:0000cc00       ?allocateTriangles@TriangleMeshData@Gu@physx@@QEAAPEAXI_NI@Z 000000018000dc00 f i TriangleMeshBuilder.obj
 0001:0000ccd0       ?allocateVertices@MeshDataBase@Gu@physx@@QEAAPEAVPxVec3@3@I@Z 000000018000dcd0 f i TriangleMeshBuilder.obj
 0001:0000d1e0       ?checkMeshIndicesSize@TriangleMeshBuilder@physx@@QEAAXXZ 000000018000e1e0 f   TriangleMeshBuilder.obj
 0001:0000d2f0       ?cleanMesh@TriangleMeshBuilder@physx@@QEAA_N_NPEAW4Enum@PxTriangleMeshCookingResult@2@@Z 000000018000e2f0 f   TriangleMeshBuilder.obj
 0001:0000d7b0       ?createGRBMidPhaseAndData@TriangleMeshBuilder@physx@@QEAAXI@Z 000000018000e7b0 f   TriangleMeshBuilder.obj
 0001:0000db30       ?createMidPhaseStructure@BV4TriangleMeshBuilder@physx@@UEAAXXZ 000000018000eb30 f   TriangleMeshBuilder.obj
 0001:0000ddf0       ?createMidPhaseStructure@RTreeTriangleMeshBuilder@physx@@UEAAXXZ 000000018000edf0 f   TriangleMeshBuilder.obj
 0001:0000df20       ?createSharedEdgeData@TriangleMeshBuilder@physx@@QEAAX_N0@Z 000000018000ef20 f   TriangleMeshBuilder.obj
 0001:0000e570       _get_startup_argv_mode     000000018000f570 f i LIBCMT:argv_mode.obj
 0001:0000e570       ?raw_length@charNode@@UEBAHXZ 000000018000f570 f i libvcruntime:undname.obj
 0001:0000e570       ?getMidphaseID@BV4TriangleMeshBuilder@physx@@UEBA?AW4Enum@PxMeshMidPhase@2@XZ 000000018000f570 f i TriangleMeshBuilder.obj
 0001:0000e570       DllMain                    000000018000f570 f i LIBCMT:dll_dllmain_stub.obj
 0001:0000e570       ?length@charNode@@UEBAHXZ  000000018000f570 f i libvcruntime:undname.obj
 0001:0000e580       ?getMidphaseID@RTreeTriangleMeshBuilder@physx@@UEBA?AW4Enum@PxMeshMidPhase@2@XZ 000000018000f580 f i TriangleMeshBuilder.obj
 0001:0000e590       ?importMesh@TriangleMeshBuilder@physx@@IEAA_NAEBVPxTriangleMeshDesc@2@AEBUPxCookingParams@2@PEAW4Enum@PxTriangleMeshCookingResult@2@_N@Z 000000018000f590 f   TriangleMeshBuilder.obj
 0001:0000e930       ?loadFromDesc@TriangleMeshBuilder@physx@@QEAA_NAEBVPxTriangleMeshDesc@2@PEAW4Enum@PxTriangleMeshCookingResult@2@_N@Z 000000018000f930 f   TriangleMeshBuilder.obj
 0001:0000ed10       ?onMeshIndexFormatChange@BV4TriangleMeshBuilder@physx@@UEAAXXZ 000000018000fd10 f   TriangleMeshBuilder.obj
 0001:0000ed50       ?remap@RTreeCookerRemap@physx@@UEAAXPEAIII@Z 000000018000fd50 f i TriangleMeshBuilder.obj
 0001:0000ed70       ?remapTopology@TriangleMeshBuilder@physx@@QEAAXPEBI@Z 000000018000fd70 f   TriangleMeshBuilder.obj
 0001:0000f070       ?save@TriangleMeshBuilder@physx@@QEBA_NAEAVPxOutputStream@2@_NAEBUPxCookingParams@2@@Z 0000000180010070 f   TriangleMeshBuilder.obj
 0001:0000f640       ?saveMidPhaseStructure@BV4TriangleMeshBuilder@physx@@UEBAXAEAVPxOutputStream@2@_N@Z 0000000180010640 f   TriangleMeshBuilder.obj
 0001:0000f7e0       ?saveMidPhaseStructure@RTreeTriangleMeshBuilder@physx@@UEBAXAEAVPxOutputStream@2@_N@Z 00000001800107e0 f   TriangleMeshBuilder.obj
 0001:0000fa20       ??0BigConvexDataBuilder@physx@@QEAA@PEBUConvexHullData@Gu@1@PEAVBigConvexData@1@PEBVPxVec3@1@@Z 0000000180010a20 f   BigConvexDataBuilder.obj
 0001:0000fa30       ??4BigConvexData@physx@@QEAAAEAV01@AEBV01@@Z 0000000180010a30 f i BigConvexDataBuilder.obj
 0001:0000fa50       ?GetAdjacentVerts@BigConvexData@physx@@QEBAPEBEXZ 0000000180010a50 f i BigConvexDataBuilder.obj
 0001:0000fa60       ?GetValency@BigConvexData@physx@@QEBAGI@Z 0000000180010a60 f i BigConvexDataBuilder.obj
 0001:0000fa60       ?GetNbNeighbors@BigConvexData@physx@@QEBAGI@Z 0000000180010a60 f i BigConvexDataBuilder.obj
 0001:0000fa70       ?GetNbSamples@BigConvexData@physx@@QEBAIXZ 0000000180010a70 f i BigConvexDataBuilder.obj
 0001:0000fa80       ?GetNbVerts@BigConvexData@physx@@QEBAIXZ 0000000180010a80 f i BigConvexDataBuilder.obj
 0001:0000fa80       ?length@pcharNode@@UEBAHXZ 0000000180010a80 f i libvcruntime:undname.obj
 0001:0000fa80       ?raw_length@pcharNode@@UEBAHXZ 0000000180010a80 f i libvcruntime:undname.obj
 0001:0000fa90       ?GetNeighbors@BigConvexData@physx@@QEBAPEBEI@Z 0000000180010a90 f i BigConvexDataBuilder.obj
 0001:0000faa0       ?GetOffset@BigConvexData@physx@@QEBAGI@Z 0000000180010aa0 f i BigConvexDataBuilder.obj
 0001:0000fab0       ?GetSubdiv@BigConvexData@physx@@QEBAIXZ 0000000180010ab0 f i BigConvexDataBuilder.obj
 0001:0000fac0       ?computeValencies@BigConvexDataBuilder@physx@@QEAA_NAEBVConvexHullBuilder@2@@Z 0000000180010ac0 f   BigConvexDataBuilder.obj
 0001:0000feb0       ?precompute@BigConvexDataBuilder@physx@@QEAA_NI@Z 0000000180010eb0 f   BigConvexDataBuilder.obj
 0001:00010af0       ?save@BigConvexDataBuilder@physx@@QEBA_NAEAVPxOutputStream@2@_N@Z 0000000180011af0 f   BigConvexDataBuilder.obj
 0001:00010d30       ??$?_UE@@YAPEAX_KV?$ReflectionAllocator@E@shdfnd@physx@@PEBDH@Z 0000000180011d30 f i ConvexHullBuilder.obj
 0001:00010dd0       ??0ConvexHullBuilder@physx@@QEAA@PEAUConvexHullData@Gu@1@_N@Z 0000000180011dd0 f   ConvexHullBuilder.obj
 0001:00010e00       ??1ConvexHullBuilder@physx@@QEAA@XZ 0000000180011e00 f   ConvexHullBuilder.obj
 0001:00010f00       ?calculateVertexMapTable@ConvexHullBuilder@physx@@QEAA_NI_N@Z 0000000180011f00 f   ConvexHullBuilder.obj
 0001:00011110       ?checkHullPolygons@ConvexHullBuilder@physx@@QEBA_NXZ 0000000180012110 f   ConvexHullBuilder.obj
 0001:000116f0       ?computeGeomCenter@ConvexHullBuilder@physx@@IEBA_NAEAVPxVec3@2@IPEAUHullTriangleData@2@@Z 00000001800126f0 f   ConvexHullBuilder.obj
 0001:000119b0       ?copy@ConvexHullBuilder@physx@@QEAA_NAEAUConvexHullData@Gu@2@AEAI@Z 00000001800129b0 f   ConvexHullBuilder.obj
 0001:00011c20       ?createEdgeList@ConvexHullBuilder@physx@@QEAA_N_NI@Z 0000000180012c20 f   ConvexHullBuilder.obj
 0001:00012490       ?init@ConvexHullBuilder@physx@@QEAA_NIPEBVPxVec3@2@PEBIIIPEBUPxHullPolygon@2@_NPEAVConvexHullLib@2@@Z 0000000180013490 f   ConvexHullBuilder.obj
 0001:00012e00       ?save@ConvexHullBuilder@physx@@QEBA_NAEAVPxOutputStream@2@_N@Z 0000000180013e00 f   ConvexHullBuilder.obj
 0001:00013120       ??1ConvexHullLib@physx@@UEAA@XZ 0000000180014120 f   ConvexHullLib.obj
 0001:00013180       ??_GConvexHullLib@physx@@UEAAPEAXI@Z 0000000180014180 f i ConvexHullLib.obj
 0001:00013180       ??_EConvexHullLib@physx@@UEAAPEAXI@Z 0000000180014180 f i ConvexHullLib.obj
 0001:000136f0       ?cleanupVertices@ConvexHullLib@physx@@IEAA_NIPEBVPxVec3@2@IAEAIPEAV32@AEAV32@3@Z 00000001800146f0 f   ConvexHullLib.obj
 0001:00013b70       ?shiftAndcleanupVertices@ConvexHullLib@physx@@IEAA_NIPEBVPxVec3@2@IAEAIPEAV32@AEAV32@3@Z 0000000180014b70 f   ConvexHullLib.obj
 0001:00014060       ?shiftConvexMeshDesc@ConvexHullLib@physx@@IEAAXAEAVPxConvexMeshDesc@2@@Z 0000000180015060 f   ConvexHullLib.obj
 0001:00014120       ?swapLargestFace@ConvexHullLib@physx@@IEAAXAEAVPxConvexMeshDesc@2@@Z 0000000180015120 f   ConvexHullLib.obj
 0001:00014310       ??0Box@Gu@physx@@QEAA@AEBV012@@Z 0000000180015310 f i ConvexHullUtils.obj
 0001:00014310       ??4Box@Gu@physx@@QEAAAEBV012@AEBV012@@Z 0000000180015310 f i ConvexHullUtils.obj
 0001:00014370       ??0Box@Gu@physx@@QEAA@AEBVPxVec3@2@0AEBVPxMat33@2@@Z 0000000180015370 f i ConvexHullUtils.obj
 0001:000143e0       ??0ConvexHull@physx@@QEAA@AEBVPxVec3@1@AEBVPxTransform@1@AEBV?$Array@VPxPlane@physx@@VNamedAllocator@shdfnd@2@@shdfnd@1@@Z 00000001800153e0 f   ConvexHullUtils.obj
 0001:00015710       ??0PxQuat@physx@@QEAA@AEBVPxMat33@1@@Z 0000000180016710 f i ConvexHullUtils.obj
 0001:000158f0       ?assertIntact@ConvexHull@physx@@QEBA_NM@Z 00000001800168f0 f   ConvexHullUtils.obj
 0001:00015c00       ?computeAABBExtent@Box@Gu@physx@@QEBA?AVPxVec3@3@XZ 0000000180016c00 f i ConvexHullUtils.obj
 0001:00015cc0       ?computeBoxPoints@Box@Gu@physx@@QEBAXPEIAVPxVec3@3@@Z 0000000180016cc0 f i ConvexHullUtils.obj
 0001:00015d00       ?computeOBBFromConvex@physx@@YA_NAEBVPxConvexMeshDesc@1@AEAVPxVec3@1@AEAVPxTransform@1@@Z 0000000180016d00 f   ConvexHullUtils.obj
 0001:000163f0       ?computeOBBSIMD@local@@YAXIPEBT__m128@@AEAT2@AEBT2@1@Z 00000001800173f0 f   ConvexHullUtils.obj
 0001:00016800       ?convexHullCrop@physx@@YAPEAVConvexHull@1@AEBV21@AEBVPxPlane@1@M@Z 0000000180017800 f   ConvexHullUtils.obj
 0001:000176b0       ?copy@?$Array@VPxPlane@physx@@VNamedAllocator@shdfnd@2@@shdfnd@physx@@KAXPEAVPxPlane@3@0PEBV43@@Z 00000001800186b0 f i ConvexHullUtils.obj
 0001:000177b0       ?findCandidatePlane@ConvexHull@physx@@QEBAHMM@Z 00000001800187b0 f   ConvexHullUtils.obj
 0001:00017c20       ?getInverse@PxMat33@physx@@QEBA?BV12@XZ 0000000180018c20 f i ConvexHullUtils.obj
 0001:00017e70       ?getTransform@Box@Gu@physx@@QEBA?AVPxTransform@3@XZ 0000000180018e70 f i ConvexHullUtils.obj
 0001:00017ed0       ?growAndPushBack@?$Array@VPxPlane@physx@@VNamedAllocator@shdfnd@2@@shdfnd@physx@@IEAAAEAVPxPlane@3@AEBV43@@Z 0000000180018ed0 f i ConvexHullUtils.obj
 0001:00017fc0       ?isValid@Box@Gu@physx@@QEBA_NXZ 0000000180018fc0 f i ConvexHullUtils.obj
 0001:00017fe0       ?maxNumVertsPerFace@ConvexHull@physx@@QEBAIXZ 0000000180018fe0 f   ConvexHullUtils.obj
 0001:00018050       ?recreate@?$Array@VPxPlane@physx@@VNamedAllocator@shdfnd@2@@shdfnd@physx@@IEAAXI@Z 0000000180019050 f i ConvexHullUtils.obj
 0001:000180f0       ?resize@?$Array@VHalfEdge@ConvexHull@physx@@VNamedAllocator@shdfnd@3@@shdfnd@physx@@QEAAXIAEBVHalfEdge@ConvexHull@3@@Z 00000001800190f0 f i ConvexHullUtils.obj
 0001:000181b0       ?resize@?$Array@VPxPlane@physx@@VNamedAllocator@shdfnd@2@@shdfnd@physx@@QEAAXIAEBVPxPlane@3@@Z 00000001800191b0 f i ConvexHullUtils.obj
 0001:000182d0       ?resize@?$Array@VPxVec3@physx@@VNamedAllocator@shdfnd@2@@shdfnd@physx@@QEAAXIAEBVPxVec3@3@@Z 00000001800192d0 f i ConvexHullUtils.obj
 0001:000183c0       ?rotate@Box@Gu@physx@@QEBA?AVPxVec3@3@AEBV43@@Z 00000001800193c0 f i ConvexHullUtils.obj
 0001:00018450       ?rotateInv@Box@Gu@physx@@QEBA?AVPxVec3@3@AEBV43@@Z 0000000180019450 f i ConvexHullUtils.obj
 0001:000184e0       ?setAxes@Box@Gu@physx@@QEAAXAEBVPxVec3@3@00@Z 00000001800194e0 f i ConvexHullUtils.obj
 0001:00018520       ?setEmpty@Box@Gu@physx@@QEAAXXZ 0000000180019520 f i ConvexHullUtils.obj
 0001:00018560       ?transform@Box@Gu@physx@@QEBA?AVPxVec3@3@AEBV43@@Z 0000000180019560 f i ConvexHullUtils.obj
 0001:00018600       ??0ConvexMeshBuilder@physx@@QEAA@_N@Z 0000000180019600 f   ConvexMeshBuilder.obj
 0001:00018660       ??1ConvexMeshBuilder@physx@@QEAA@XZ 0000000180019660 f   ConvexMeshBuilder.obj
 0001:00018ab0       ?build@ConvexMeshBuilder@physx@@QEAA_NAEBVPxConvexMeshDesc@2@I_NPEAVConvexHullLib@2@@Z 0000000180019ab0 f   ConvexMeshBuilder.obj
 0001:00018de0       ?computeHullPolygons@ConvexMeshBuilder@physx@@QEAA_NAEBIPEBVPxVec3@2@0PEBIAEAVPxAllocatorCallback@2@AEAIAEAPEAV32@4AEAPEAI4AEAPEAUPxHullPolygon@2@@Z 0000000180019de0 f   ConvexMeshBuilder.obj
 0001:00019000       ?computeMassInfo@ConvexMeshBuilder@physx@@QEAAX_N@Z 000000018001a000 f   ConvexMeshBuilder.obj
 0001:000193d0       ?copy@ConvexMeshBuilder@physx@@QEAA_NAEAUConvexHullInitData@Gu@2@@Z 000000018001a3d0 f   ConvexMeshBuilder.obj
 0001:000194f0       ?isFinite@PxVec3@physx@@QEBA_NXZ 000000018001a4f0 f i ConvexMeshBuilder.obj
 0001:00019550       ?loadConvexHull@ConvexMeshBuilder@physx@@QEAA_NAEBVPxConvexMeshDesc@2@PEAVConvexHullLib@2@@Z 000000018001a550 f   ConvexMeshBuilder.obj
 0001:000197d0       ?save@ConvexMeshBuilder@physx@@QEBA_NAEAVPxOutputStream@2@_N@Z 000000018001a7d0 f   ConvexMeshBuilder.obj
 0001:000199e0       ??$copy@VNamedAllocator@shdfnd@physx@@@?$Array@VPair@@VNamedAllocator@shdfnd@physx@@@shdfnd@physx@@IEAAXAEBV012@@Z 000000018001a9e0 f i ConvexPolygonsBuilder.obj
 0001:00019a60       ??0ConvexPolygonsBuilder@physx@@QEAA@PEAUConvexHullData@Gu@1@_N@Z 000000018001aa60 f   ConvexPolygonsBuilder.obj
 0001:00019a80       ??1ConvexPolygonsBuilder@physx@@QEAA@XZ 000000018001aa80 f   ConvexPolygonsBuilder.obj
 0001:0001a2d0       ?allocate@?$Array@VPair@@VNamedAllocator@shdfnd@physx@@@shdfnd@physx@@IEAAPEAVPair@@I@Z 000000018001b2d0 f i ConvexPolygonsBuilder.obj
 0001:0001aab0       ?computeHullPolygons@ConvexPolygonsBuilder@physx@@QEAA_NAEBIPEBVPxVec3@2@0PEBI@Z 000000018001bab0 f   ConvexPolygonsBuilder.obj
 0001:0001bb60       ?createPolygonData@ConvexPolygonsBuilder@physx@@AEAA_NXZ 000000018001cb60 f   ConvexPolygonsBuilder.obj
 0001:0001c790       ?createTrianglesFromPolygons@ConvexPolygonsBuilder@physx@@AEAA_NXZ 000000018001d790 f   ConvexPolygonsBuilder.obj
 0001:0001de60       ?growAndPushBack@?$Array@VPair@@VNamedAllocator@shdfnd@physx@@@shdfnd@physx@@IEAAAEAVPair@@AEBV4@@Z 000000018001ee60 f i ConvexPolygonsBuilder.obj
 0001:0001df50       ??0QuickHull@local@@QEAA@AEBUPxCookingParams@physx@@AEBVPxConvexMeshDesc@3@@Z 000000018001ef50 f   QuickHullConvexHullLib.obj
 0001:0001e140       ??0QuickHullConvexHullLib@physx@@QEAA@AEBVPxConvexMeshDesc@1@AEBUPxCookingParams@1@@Z 000000018001f140 f   QuickHullConvexHullLib.obj
 0001:0001e230       ??1?$MemBlock@UQuickHullHalfEdge@local@@$0A@@local@@QEAA@XZ 000000018001f230 f i QuickHullConvexHullLib.obj
 0001:0001e230       ??1?$MemBlock@UQuickHullFace@local@@$00@local@@QEAA@XZ 000000018001f230 f i QuickHullConvexHullLib.obj
 0001:0001e2b0       ??_GConvexHull@physx@@QEAAPEAXI@Z 000000018001f2b0 f i QuickHullConvexHullLib.obj
 0001:0001e380       ??_GQuickHull@local@@QEAAPEAXI@Z 000000018001f380 f i QuickHullConvexHullLib.obj
 0001:0001e520       ??_GQuickHullConvexHullLib@physx@@UEAAPEAXI@Z 000000018001f520 f i QuickHullConvexHullLib.obj
 0001:0001e520       ??_EQuickHullConvexHullLib@physx@@UEAAPEAXI@Z 000000018001f520 f i QuickHullConvexHullLib.obj
 0001:0001e610       ?addPointToHull@QuickHull@local@@IEAA_NPEBUQuickHullVertex@2@AEAUQuickHullFace@2@AEA_N@Z 000000018001f610 f   QuickHullConvexHullLib.obj
 0001:0001e8e0       ?addSimplex@QuickHull@local@@IEAAXPEAUQuickHullVertex@2@_N@Z 000000018001f8e0 f   QuickHullConvexHullLib.obj
 0001:0001edb0       ?buildHull@QuickHull@local@@QEAA?AW4Enum@QuickHullResult@2@XZ 000000018001fdb0 f   QuickHullConvexHullLib.obj
 0001:0001efc0       ?calculateHorizon@QuickHull@local@@IEAAXAEBVPxVec3@physx@@PEAUQuickHullHalfEdge@2@AEAUQuickHullFace@2@AEAV?$Array@PEAUQuickHullHalfEdge@local@@VNamedAllocator@shdfnd@physx@@@shdfnd@4@AEAV?$Array@PEAUQuickHullFace@local@@VNamedAllocator@shdfnd@physx@@@84@@Z 000000018001ffc0 f   QuickHullConvexHullLib.obj
 0001:0001f170       ?canMergeFaces@QuickHull@local@@IEAA_NAEBUQuickHullHalfEdge@2@@Z 0000000180020170 f   QuickHullConvexHullLib.obj
 0001:0001f9a0       ?cleanupForSimplex@QuickHullConvexHullLib@physx@@IEAA_NPEAVPxVec3@2@IPEAUQuickHullVertex@local@@1AEAM2@Z 00000001800209a0 f   QuickHullConvexHullLib.obj
 0001:00020570       ?computeMinMaxVerts@QuickHull@local@@IEAAXXZ 0000000180021570 f   QuickHullConvexHullLib.obj
 0001:00020940       ?connectHalfEdges@QuickHullFace@local@@AEAAPEAU12@PEAUQuickHullHalfEdge@2@0@Z 0000000180021940 f   QuickHullConvexHullLib.obj
 0001:00020ca0       ?copy@?$Array@UExpandPoint@local@@VNamedAllocator@shdfnd@physx@@@shdfnd@physx@@KAXPEAUExpandPoint@local@@0PEBU45@@Z 0000000180021ca0 f i QuickHullConvexHullLib.obj
 0001:00020d50       ?createConvexHull@QuickHullConvexHullLib@physx@@UEAA?AW4Enum@PxConvexMeshCookingResult@2@XZ 0000000180021d50 f   QuickHullConvexHullLib.obj
 0001:00021140       ?createEdgeList@QuickHullConvexHullLib@physx@@UEAA_NIPEBEPEAPEAEPEAPEAG2@Z 0000000180022140 f   QuickHullConvexHullLib.obj
 0001:00021370       ?createTriangle@QuickHull@local@@IEAAPEAUQuickHullFace@2@AEBUQuickHullVertex@2@00@Z 0000000180022370 f   QuickHullConvexHullLib.obj
 0001:00021700       ?doAdjacentMerge@QuickHull@local@@IEAA_NAEAUQuickHullFace@2@_NAEA_N@Z 0000000180022700 f   QuickHullConvexHullLib.obj
 0001:00021a40       ?expandHull@QuickHullConvexHullLib@physx@@IEAA?AW4Enum@PxConvexMeshCookingResult@2@XZ 0000000180022a40 f   QuickHullConvexHullLib.obj
 0001:000222a0       ?expandHullOBB@QuickHullConvexHullLib@physx@@IEAA?AW4Enum@PxConvexMeshCookingResult@2@XZ 00000001800232a0 f   QuickHullConvexHullLib.obj
 0001:000226d0       ?fillConvexMeshDesc@QuickHullConvexHullLib@physx@@UEAAXAEAVPxConvexMeshDesc@2@@Z 00000001800236d0 f   QuickHullConvexHullLib.obj
 0001:00022720       ?fillConvexMeshDescFromCroppedHull@QuickHullConvexHullLib@physx@@IEAAXAEAVPxConvexMeshDesc@2@@Z 0000000180023720 f   QuickHullConvexHullLib.obj
 0001:00022910       ?fillConvexMeshDescFromQuickHull@QuickHullConvexHullLib@physx@@IEAAXAEAVPxConvexMeshDesc@2@@Z 0000000180023910 f   QuickHullConvexHullLib.obj
 0001:00022c80       ?findSimplex@QuickHull@local@@IEAA_NXZ 0000000180023c80 f   QuickHullConvexHullLib.obj
 0001:00023930       ?getFreeItem@?$MemBlock@UQuickHullFace@local@@$00@local@@QEAAPEAUQuickHullFace@2@XZ 0000000180024930 f i QuickHullConvexHullLib.obj
 0001:00023a60       ?getFreeItem@?$MemBlock@UQuickHullHalfEdge@local@@$0A@@local@@QEAAPEAUQuickHullHalfEdge@2@XZ 0000000180024a60 f i QuickHullConvexHullLib.obj
 0001:00023b40       ?growAndPushBack@?$Array@PEAUQuickHullVertex@local@@VNamedAllocator@shdfnd@physx@@@shdfnd@physx@@IEAAAEAPEAUQuickHullVertex@local@@AEBQEAU45@@Z 0000000180024b40 f i QuickHullConvexHullLib.obj
 0001:00023b40       ?growAndPushBack@?$Array@PEAUQuickHullHalfEdge@local@@VNamedAllocator@shdfnd@physx@@@shdfnd@physx@@IEAAAEAPEAUQuickHullHalfEdge@local@@AEBQEAU45@@Z 0000000180024b40 f i QuickHullConvexHullLib.obj
 0001:00023b40       ?growAndPushBack@?$Array@PEAUQuickHullFace@local@@VNamedAllocator@shdfnd@physx@@@shdfnd@physx@@IEAAAEAPEAUQuickHullFace@local@@AEBQEAU45@@Z 0000000180024b40 f i QuickHullConvexHullLib.obj
 0001:00023c30       ?growAndPushBack@?$Array@UExpandPoint@local@@VNamedAllocator@shdfnd@physx@@@shdfnd@physx@@IEAAAEAUExpandPoint@local@@AEBU45@@Z 0000000180024c30 f i QuickHullConvexHullLib.obj
 0001:00023d70       ?init@?$MemBlock@UQuickHullFace@local@@$00@local@@QEAAXI@Z 0000000180024d70 f i QuickHullConvexHullLib.obj
 0001:00023e50       ?init@?$MemBlock@UQuickHullHalfEdge@local@@$0A@@local@@QEAAXI@Z 0000000180024e50 f i QuickHullConvexHullLib.obj
 0001:00023ef0       ?mergeAdjacentFace@QuickHullFace@local@@QEAA_NPEAUQuickHullHalfEdge@2@AEAV?$Array@PEAUQuickHullFace@local@@VNamedAllocator@shdfnd@physx@@@shdfnd@physx@@@Z 0000000180024ef0 f   QuickHullConvexHullLib.obj
 0001:00024340       ?nextPointToAdd@QuickHull@local@@IEAAPEAUQuickHullVertex@2@AEAPEAUQuickHullFace@2@@Z 0000000180025340 f   QuickHullConvexHullLib.obj
 0001:000244c0       ?parseInputVertices@QuickHull@local@@QEAAXPEBVPxVec3@physx@@I@Z 00000001800254c0 f   QuickHullConvexHullLib.obj
 0001:00024650       ?postMergeHull@QuickHull@local@@IEAAXXZ 0000000180025650 f   QuickHullConvexHullLib.obj
 0001:000248b0       ?preallocate@QuickHull@local@@QEAAXI@Z 00000001800258b0 f   QuickHullConvexHullLib.obj
 0001:000249f0       ?recreate@?$Array@PEAUQuickHullHalfEdge@local@@VNamedAllocator@shdfnd@physx@@@shdfnd@physx@@IEAAXI@Z 00000001800259f0 f i QuickHullConvexHullLib.obj
 0001:000249f0       ?recreate@?$Array@PEAUQuickHullFace@local@@VNamedAllocator@shdfnd@physx@@@shdfnd@physx@@IEAAXI@Z 00000001800259f0 f i QuickHullConvexHullLib.obj
 0001:000249f0       ?recreate@?$Array@PEAUQuickHullVertex@local@@VNamedAllocator@shdfnd@physx@@@shdfnd@physx@@IEAAXI@Z 00000001800259f0 f i QuickHullConvexHullLib.obj
 0001:00024aa0       ?recreate@?$Array@UExpandPoint@local@@VNamedAllocator@shdfnd@physx@@@shdfnd@physx@@IEAAXI@Z 0000000180025aa0 f i QuickHullConvexHullLib.obj
 0001:00024b40       ?resolveUnclaimedPoints@QuickHull@local@@IEAAXAEBV?$Array@PEAUQuickHullFace@local@@VNamedAllocator@shdfnd@physx@@@shdfnd@physx@@@Z 0000000180025b40 f   QuickHullConvexHullLib.obj
 0001:00025840       ?computeVolumeIntegralsEberly@physx@@YA_NAEBVPxConvexMeshDesc@1@MAEAUPxIntegrals@1@AEBVPxVec3@1@@Z 0000000180026840 f   VolumeIntegration.obj
 0001:00025880       ?computeVolumeIntegralsEberlySIMD@physx@@YA_NAEBVPxConvexMeshDesc@1@MAEAUPxIntegrals@1@AEBVPxVec3@1@@Z 0000000180026880 f   VolumeIntegration.obj
 0001:00025ec0       ?cookingDelayHook@@YAP6A_JXZIPEAUDelayLoadInfo@@@Z 0000000180026ec0 f   WindowsCookingDelayLoadHook.obj
 0001:00025fa0       PxSetPhysXCookingDelayLoadHook 0000000180026fa0 f   WindowsCookingDelayLoadHook.obj
 0001:00025fa8       __imp_load_??0RadixSortBuffered@Cm@physx@@QEAA@XZ 0000000180026fa8 f   PhysXCommon_64:PhysXCommon_64.dll
 0001:00025fb4       ??0RadixSortBuffered@Cm@physx@@QEAA@XZ 0000000180026fb4 f   PhysXCommon_64:PhysXCommon_64.dll
 0001:00025fba       __tailMerge_physxcommon_64_dll 0000000180026fba     PhysXCommon_64:PhysXCommon_64.dll
 0001:00026033       __imp_load_??1RadixSortBuffered@Cm@physx@@UEAA@XZ 0000000180027033 f   PhysXCommon_64:PhysXCommon_64.dll
 0001:0002603f       ??1RadixSortBuffered@Cm@physx@@UEAA@XZ 000000018002703f f   PhysXCommon_64:PhysXCommon_64.dll
 0001:00026045       __imp_load_?Sort@RadixSortBuffered@Cm@physx@@QEAAAEAV123@PEBIIW4RadixHint@23@@Z 0000000180027045 f   PhysXCommon_64:PhysXCommon_64.dll
 0001:00026051       ?Sort@RadixSortBuffered@Cm@physx@@QEAAAEAV123@PEBIIW4RadixHint@23@@Z 0000000180027051 f   PhysXCommon_64:PhysXCommon_64.dll
 0001:00026057       __imp_load_??0HeightField@Gu@physx@@QEAA@PEAVGuMeshFactory@2@@Z 0000000180027057 f   PhysXCommon_64:PhysXCommon_64.dll
 0001:00026063       ??0HeightField@Gu@physx@@QEAA@PEAVGuMeshFactory@2@@Z 0000000180027063 f   PhysXCommon_64:PhysXCommon_64.dll
 0001:00026069       __imp_load_?loadFromDesc@HeightField@Gu@physx@@QEAA_NAEBVPxHeightFieldDesc@3@@Z 0000000180027069 f   PhysXCommon_64:PhysXCommon_64.dll
 0001:00026075       ?loadFromDesc@HeightField@Gu@physx@@QEAA_NAEBVPxHeightFieldDesc@3@@Z 0000000180027075 f   PhysXCommon_64:PhysXCommon_64.dll
 0001:0002607b       __imp_load_?computeCellCoordinates@HeightField@Gu@physx@@QEBAIMMAEAM0@Z 000000018002707b f   PhysXCommon_64:PhysXCommon_64.dll
 0001:00026087       ?computeCellCoordinates@HeightField@Gu@physx@@QEBAIMMAEAM0@Z 0000000180027087 f   PhysXCommon_64:PhysXCommon_64.dll
 0001:0002608d       __imp_load_?releaseMemory@HeightField@Gu@physx@@QEAAXXZ 000000018002708d f   PhysXCommon_64:PhysXCommon_64.dll
 0001:00026099       ?releaseMemory@HeightField@Gu@physx@@QEAAXXZ 0000000180027099 f   PhysXCommon_64:PhysXCommon_64.dll
 0001:0002609f       __imp_load_??1HeightField@Gu@physx@@UEAA@XZ 000000018002709f f   PhysXCommon_64:PhysXCommon_64.dll
 0001:000260ab       ??1HeightField@Gu@physx@@UEAA@XZ 00000001800270ab f   PhysXCommon_64:PhysXCommon_64.dll
 0001:000260b1       __imp_load_??0NodeAllocator@Gu@physx@@QEAA@XZ 00000001800270b1 f   PhysXCommon_64:PhysXCommon_64.dll
 0001:000260bd       ??0NodeAllocator@Gu@physx@@QEAA@XZ 00000001800270bd f   PhysXCommon_64:PhysXCommon_64.dll
 0001:000260c3       __imp_load_??1NodeAllocator@Gu@physx@@QEAA@XZ 00000001800270c3 f   PhysXCommon_64:PhysXCommon_64.dll
 0001:000260cf       ??1NodeAllocator@Gu@physx@@QEAA@XZ 00000001800270cf f   PhysXCommon_64:PhysXCommon_64.dll
 0001:000260d5       __imp_load_?release@NodeAllocator@Gu@physx@@QEAAXXZ 00000001800270d5 f   PhysXCommon_64:PhysXCommon_64.dll
 0001:000260e1       ?release@NodeAllocator@Gu@physx@@QEAAXXZ 00000001800270e1 f   PhysXCommon_64:PhysXCommon_64.dll
 0001:000260e7       __imp_load_?buildAABBTree@Gu@physx@@YA_NAEAVAABBTreeBuildParams@12@AEAVNodeAllocator@12@AEAUBuildStats@12@AEAPEAI@Z 00000001800270e7 f   PhysXCommon_64:PhysXCommon_64.dll
 0001:000260f3       ?buildAABBTree@Gu@physx@@YA_NAEAVAABBTreeBuildParams@12@AEAVNodeAllocator@12@AEAUBuildStats@12@AEAPEAI@Z 00000001800270f3 f   PhysXCommon_64:PhysXCommon_64.dll
 0001:000260f9       __imp_load_?writeDword@physx@@YAXI_NAEAVPxOutputStream@1@@Z 00000001800270f9 f   PhysXCommon_64:PhysXCommon_64.dll
 0001:00026105       ?writeDword@physx@@YAXI_NAEAVPxOutputStream@1@@Z 0000000180027105 f   PhysXCommon_64:PhysXCommon_64.dll
 0001:0002610b       __imp_load_?writeFloatBuffer@physx@@YAXPEBMI_NAEAVPxOutputStream@1@@Z 000000018002710b f   PhysXCommon_64:PhysXCommon_64.dll
 0001:00026117       ?writeFloatBuffer@physx@@YAXPEBMI_NAEAVPxOutputStream@1@@Z 0000000180027117 f   PhysXCommon_64:PhysXCommon_64.dll
 0001:0002611d       __imp_load_?writeHeader@physx@@YA_NCCCCI_NAEAVPxOutputStream@1@@Z 000000018002711d f   PhysXCommon_64:PhysXCommon_64.dll
 0001:00026129       ?writeHeader@physx@@YA_NCCCCI_NAEAVPxOutputStream@1@@Z 0000000180027129 f   PhysXCommon_64:PhysXCommon_64.dll
 0001:0002612f       __imp_load_?writeWord@physx@@YAXG_NAEAVPxOutputStream@1@@Z 000000018002712f f   PhysXCommon_64:PhysXCommon_64.dll
 0001:0002613b       ?writeWord@physx@@YAXG_NAEAVPxOutputStream@1@@Z 000000018002713b f   PhysXCommon_64:PhysXCommon_64.dll
 0001:00026141       __imp_load_?writeFloat@physx@@YAXM_NAEAVPxOutputStream@1@@Z 0000000180027141 f   PhysXCommon_64:PhysXCommon_64.dll
 0001:0002614d       ?writeFloat@physx@@YAXM_NAEAVPxOutputStream@1@@Z 000000018002714d f   PhysXCommon_64:PhysXCommon_64.dll
 0001:00026153       __imp_load_?computeBoundsAroundVertices@Gu@physx@@YAXAEAVPxBounds3@2@IPEIBVPxVec3@2@@Z 0000000180027153 f   PhysXCommon_64:PhysXCommon_64.dll
 0001:0002615f       ?computeBoundsAroundVertices@Gu@physx@@YAXAEAVPxBounds3@2@IPEIBVPxVec3@2@@Z 000000018002715f f   PhysXCommon_64:PhysXCommon_64.dll
 0001:00026165       __imp_load_??0SourceMesh@Gu@physx@@QEAA@XZ 0000000180027165 f   PhysXCommon_64:PhysXCommon_64.dll
 0001:00026171       ??0SourceMesh@Gu@physx@@QEAA@XZ 0000000180027171 f   PhysXCommon_64:PhysXCommon_64.dll
 0001:00026177       __imp_load_??1SourceMesh@Gu@physx@@QEAA@XZ 0000000180027177 f   PhysXCommon_64:PhysXCommon_64.dll
 0001:00026183       ??1SourceMesh@Gu@physx@@QEAA@XZ 0000000180027183 f   PhysXCommon_64:PhysXCommon_64.dll
 0001:00026189       __imp_load_??0BV4Tree@Gu@physx@@QEAA@XZ 0000000180027189 f   PhysXCommon_64:PhysXCommon_64.dll
 0001:00026195       ??0BV4Tree@Gu@physx@@QEAA@XZ 0000000180027195 f   PhysXCommon_64:PhysXCommon_64.dll
 0001:0002619b       __imp_load_??1BV4Tree@Gu@physx@@QEAA@XZ 000000018002719b f   PhysXCommon_64:PhysXCommon_64.dll
 0001:000261a7       ??1BV4Tree@Gu@physx@@QEAA@XZ 00000001800271a7 f   PhysXCommon_64:PhysXCommon_64.dll
 0001:000261ad       __imp_load_??0BV32Tree@Gu@physx@@QEAA@XZ 00000001800271ad f   PhysXCommon_64:PhysXCommon_64.dll
 0001:000261b9       ??0BV32Tree@Gu@physx@@QEAA@XZ 00000001800271b9 f   PhysXCommon_64:PhysXCommon_64.dll
 0001:000261bf       __imp_load_??1BV32Tree@Gu@physx@@QEAA@XZ 00000001800271bf f   PhysXCommon_64:PhysXCommon_64.dll
 0001:000261cb       ??1BV32Tree@Gu@physx@@QEAA@XZ 00000001800271cb f   PhysXCommon_64:PhysXCommon_64.dll
 0001:000261d1       __imp_load_?writeWordBuffer@physx@@YAXPEBGI_NAEAVPxOutputStream@1@@Z 00000001800271d1 f   PhysXCommon_64:PhysXCommon_64.dll
 0001:000261dd       ?writeWordBuffer@physx@@YAXPEBGI_NAEAVPxOutputStream@1@@Z 00000001800271dd f   PhysXCommon_64:PhysXCommon_64.dll
 0001:000261e3       __imp_load_?computeMaxIndex@physx@@YAIPEBII@Z 00000001800271e3 f   PhysXCommon_64:PhysXCommon_64.dll
 0001:000261ef       ?computeMaxIndex@physx@@YAIPEBII@Z 00000001800271ef f   PhysXCommon_64:PhysXCommon_64.dll
 0001:000261f5       __imp_load_?storeIndices@physx@@YAXIIPEBIAEAVPxOutputStream@1@_N@Z 00000001800271f5 f   PhysXCommon_64:PhysXCommon_64.dll
 0001:00026201       ?storeIndices@physx@@YAXIIPEBIAEAVPxOutputStream@1@_N@Z 0000000180027201 f   PhysXCommon_64:PhysXCommon_64.dll
 0001:00026207       __imp_load_?BuildBV4Ex@Gu@physx@@YA_NAEAVBV4Tree@12@AEAVSourceMesh@12@MI@Z 0000000180027207 f   PhysXCommon_64:PhysXCommon_64.dll
 0001:00026213       ?BuildBV4Ex@Gu@physx@@YA_NAEAVBV4Tree@12@AEAVSourceMesh@12@MI@Z 0000000180027213 f   PhysXCommon_64:PhysXCommon_64.dll
 0001:00026219       __imp_load_?BuildBV32Ex@Gu@physx@@YA_NAEAVBV32Tree@12@AEAVSourceMesh@12@MI@Z 0000000180027219 f   PhysXCommon_64:PhysXCommon_64.dll
 0001:00026225       ?BuildBV32Ex@Gu@physx@@YA_NAEAVBV32Tree@12@AEAVSourceMesh@12@MI@Z 0000000180027225 f   PhysXCommon_64:PhysXCommon_64.dll
 0001:0002622b       __imp_load_?computeMaxIndex@physx@@YAGPEBGI@Z 000000018002722b f   PhysXCommon_64:PhysXCommon_64.dll
 0001:00026237       ?computeMaxIndex@physx@@YAGPEBGI@Z 0000000180027237 f   PhysXCommon_64:PhysXCommon_64.dll
 0001:0002623d       __imp_load_?WriteHeader@Gu@physx@@YA_NEEEEI_NAEAVPxOutputStream@2@@Z 000000018002723d f   PhysXCommon_64:PhysXCommon_64.dll
 0001:00026249       ?WriteHeader@Gu@physx@@YA_NEEEEI_NAEAVPxOutputStream@2@@Z 0000000180027249 f   PhysXCommon_64:PhysXCommon_64.dll
 0001:0002624f       __imp_load_?StoreIndices@Gu@physx@@YAXGIPEBGAEAVPxOutputStream@2@_N@Z 000000018002724f f   PhysXCommon_64:PhysXCommon_64.dll
 0001:0002625b       ?StoreIndices@Gu@physx@@YAXGIPEBGAEAVPxOutputStream@2@_N@Z 000000018002725b f   PhysXCommon_64:PhysXCommon_64.dll
 0001:00026261       __imp_load_?CreateOffsets@BigConvexData@physx@@IEAAXXZ 0000000180027261 f   PhysXCommon_64:PhysXCommon_64.dll
 0001:0002626d       ?CreateOffsets@BigConvexData@physx@@IEAAXXZ 000000018002726d f   PhysXCommon_64:PhysXCommon_64.dll
 0001:00026273       __imp_load_?computeOBBPoints@Gu@physx@@YAXPEIAVPxVec3@2@AEBV32@1111@Z 0000000180027273 f   PhysXCommon_64:PhysXCommon_64.dll
 0001:0002627f       ?computeOBBPoints@Gu@physx@@YAXPEIAVPxVec3@2@AEBV32@1111@Z 000000018002727f f   PhysXCommon_64:PhysXCommon_64.dll
 0001:00026285       __imp_load_??0BigConvexData@physx@@QEAA@XZ 0000000180027285 f   PhysXCommon_64:PhysXCommon_64.dll
 0001:00026291       ??0BigConvexData@physx@@QEAA@XZ 0000000180027291 f   PhysXCommon_64:PhysXCommon_64.dll
 0001:00026297       __imp_load_??1BigConvexData@physx@@QEAA@XZ 0000000180027297 f   PhysXCommon_64:PhysXCommon_64.dll
 0001:000262a3       ??1BigConvexData@physx@@QEAA@XZ 00000001800272a3 f   PhysXCommon_64:PhysXCommon_64.dll
 0001:000262a9       __imp_load_PxGetFoundation 00000001800272a9 f   PhysXFoundation_64:PhysXFoundation_64.dll
 0001:000262b5       PxGetFoundation            00000001800272b5 f   PhysXFoundation_64:PhysXFoundation_64.dll
 0001:000262bb       __tailMerge_physxfoundation_64_dll 00000001800272bb     PhysXFoundation_64:PhysXFoundation_64.dll
 0001:00026334       __imp_load_?getAllocator@shdfnd@physx@@YAAEAVPxAllocatorCallback@2@XZ 0000000180027334 f   PhysXFoundation_64:PhysXFoundation_64.dll
 0001:00026340       ?getAllocator@shdfnd@physx@@YAAEAVPxAllocatorCallback@2@XZ 0000000180027340 f   PhysXFoundation_64:PhysXFoundation_64.dll
 0001:00026346       __imp_load_??0NamedAllocator@shdfnd@physx@@QEAA@PEBD@Z 0000000180027346 f   PhysXFoundation_64:PhysXFoundation_64.dll
 0001:00026352       ??0NamedAllocator@shdfnd@physx@@QEAA@PEBD@Z 0000000180027352 f   PhysXFoundation_64:PhysXFoundation_64.dll
 0001:00026358       __imp_load_?getInstance@Foundation@shdfnd@physx@@SAAEAV123@XZ 0000000180027358 f   PhysXFoundation_64:PhysXFoundation_64.dll
 0001:00026364       ?getInstance@Foundation@shdfnd@physx@@SAAEAV123@XZ 0000000180027364 f   PhysXFoundation_64:PhysXFoundation_64.dll
 0001:0002636a       __imp_load_?error@Foundation@shdfnd@physx@@QEAAXW4Enum@PxErrorCode@3@PEBDH1ZZ 000000018002736a f   PhysXFoundation_64:PhysXFoundation_64.dll
 0001:00026376       ?error@Foundation@shdfnd@physx@@QEAAXW4Enum@PxErrorCode@3@PEBDH1ZZ 0000000180027376 f   PhysXFoundation_64:PhysXFoundation_64.dll
 0001:0002637c       __imp_load_?allocate@NamedAllocator@shdfnd@physx@@QEAAPEAX_KPEBDH@Z 000000018002737c f   PhysXFoundation_64:PhysXFoundation_64.dll
 0001:00026388       ?allocate@NamedAllocator@shdfnd@physx@@QEAAPEAX_KPEBDH@Z 0000000180027388 f   PhysXFoundation_64:PhysXFoundation_64.dll
 0001:0002638e       __imp_load_?deallocate@NamedAllocator@shdfnd@physx@@QEAAXPEAX@Z 000000018002738e f   PhysXFoundation_64:PhysXFoundation_64.dll
 0001:0002639a       ?deallocate@NamedAllocator@shdfnd@physx@@QEAAXPEAX@Z 000000018002739a f   PhysXFoundation_64:PhysXFoundation_64.dll
 0001:000263a0       __imp_load_?incRefCount@Foundation@shdfnd@physx@@SAXXZ 00000001800273a0 f   PhysXFoundation_64:PhysXFoundation_64.dll
 0001:000263ac       ?incRefCount@Foundation@shdfnd@physx@@SAXXZ 00000001800273ac f   PhysXFoundation_64:PhysXFoundation_64.dll
 0001:000263b2       __imp_load_?decRefCount@Foundation@shdfnd@physx@@SAXXZ 00000001800273b2 f   PhysXFoundation_64:PhysXFoundation_64.dll
 0001:000263be       ?decRefCount@Foundation@shdfnd@physx@@SAXXZ 00000001800273be f   PhysXFoundation_64:PhysXFoundation_64.dll
 0001:000263c4       __imp_load_??0FPUGuard@shdfnd@physx@@QEAA@XZ 00000001800273c4 f   PhysXFoundation_64:PhysXFoundation_64.dll
 0001:000263d0       ??0FPUGuard@shdfnd@physx@@QEAA@XZ 00000001800273d0 f   PhysXFoundation_64:PhysXFoundation_64.dll
 0001:000263d6       __imp_load_??1FPUGuard@shdfnd@physx@@QEAA@XZ 00000001800273d6 f   PhysXFoundation_64:PhysXFoundation_64.dll
 0001:000263e2       ??1FPUGuard@shdfnd@physx@@QEAA@XZ 00000001800273e2 f   PhysXFoundation_64:PhysXFoundation_64.dll
 0001:000263e8       __imp_load_??1NamedAllocator@shdfnd@physx@@QEAA@XZ 00000001800273e8 f   PhysXFoundation_64:PhysXFoundation_64.dll
 0001:000263f4       ??1NamedAllocator@shdfnd@physx@@QEAA@XZ 00000001800273f4 f   PhysXFoundation_64:PhysXFoundation_64.dll
 0001:000263fa       __imp_load_??0NamedAllocator@shdfnd@physx@@QEAA@AEBV012@@Z 00000001800273fa f   PhysXFoundation_64:PhysXFoundation_64.dll
 0001:00026406       ??0NamedAllocator@shdfnd@physx@@QEAA@AEBV012@@Z 0000000180027406 f   PhysXFoundation_64:PhysXFoundation_64.dll
 0001:0002640c       __imp_load_?allocate@TempAllocator@shdfnd@physx@@QEAAPEAX_KPEBDH@Z 000000018002740c f   PhysXFoundation_64:PhysXFoundation_64.dll
 0001:00026418       ?allocate@TempAllocator@shdfnd@physx@@QEAAPEAX_KPEBDH@Z 0000000180027418 f   PhysXFoundation_64:PhysXFoundation_64.dll
 0001:0002641e       __imp_load_?deallocate@TempAllocator@shdfnd@physx@@QEAAXPEAX@Z 000000018002741e f   PhysXFoundation_64:PhysXFoundation_64.dll
 0001:0002642a       ?deallocate@TempAllocator@shdfnd@physx@@QEAAXPEAX@Z 000000018002742a f   PhysXFoundation_64:PhysXFoundation_64.dll
 0001:00026430       __imp_load_?PxDiagonalize@physx@@YA?AVPxVec3@1@AEBVPxMat33@1@AEAVPxQuat@1@@Z 0000000180027430 f   PhysXFoundation_64:PhysXFoundation_64.dll
 0001:0002643c       ?PxDiagonalize@physx@@YA?AVPxVec3@1@AEBVPxMat33@1@AEAVPxQuat@1@@Z 000000018002743c f   PhysXFoundation_64:PhysXFoundation_64.dll
 0001:00026444       ?DloadAcquireSectionWriteAccess@@YAXXZ 0000000180027444 f i Delayimp:delayhlp.obj
 0001:000264f0       ?DloadGetSRWLockFunctionPointers@@YAEXZ 00000001800274f0 f i Delayimp:delayhlp.obj
 0001:0002658c       ?DloadMakePermanentImageCommit@@YAXPEAX_K@Z 000000018002758c f i Delayimp:delayhlp.obj
 0001:00026624       ?DloadObtainSection@@YAPEAXPEAK0@Z 0000000180027624 f i Delayimp:delayhlp.obj
 0001:000266c0       ?DloadProtectSection@@YAXKPEAK@Z 00000001800276c0 f i Delayimp:delayhlp.obj
 0001:00026750       ?DloadReleaseSectionWriteAccess@@YAXXZ 0000000180027750 f i Delayimp:delayhlp.obj
 0001:000267e4       __delayLoadHelper2         00000001800277e4 f   Delayimp:delayhlp.obj
 0001:00026ab8       ??3@YAXPEAX_K@Z            0000000180027ab8 f   LIBCMT:delete_scalar_size.obj
 0001:00026ab8       ??_V@YAXPEAX@Z             0000000180027ab8 f   LIBCMT:delete_array.obj
 0001:00026ac0       ??_Etype_info@@UEAAPEAXI@Z 0000000180027ac0 f i LIBCMT:std_type_info_static.obj
 0001:00026ac0       ??_Gtype_info@@UEAAPEAXI@Z 0000000180027ac0 f i LIBCMT:std_type_info_static.obj
 0001:00026aec       ?__scrt_initialize_type_info@@YAXXZ 0000000180027aec f   LIBCMT:tncleanup.obj
 0001:00026afc       ?__scrt_uninitialize_type_info@@YAXXZ 0000000180027afc f   LIBCMT:tncleanup.obj
 0001:00026b20       __chkstk                   0000000180027b20 f   LIBCMT:chkstk.obj
 0001:00026b20       _alloca_probe              0000000180027b20 f   LIBCMT:chkstk.obj
 0001:00026b70       ??3@YAXPEAX@Z              0000000180027b70 f   LIBCMT:delete_scalar.obj
 0001:00026b80       __vdecl_sinf4              0000000180027b80 f   LIBCMT:svml_ssinf4_dispatch.obj
 0001:00026ba0       __libm_sse2_sincosf_       0000000180027ba0 f   LIBCMT:svml_ssinf4_dispatch.obj
 0001:00026be3       __libm_sse2_sincosf4_      0000000180027be3 f   LIBCMT:svml_ssinf4_dispatch.obj
 0001:00026f10       _DllMainCRTStartup         0000000180027f10 f   LIBCMT:dll_dllmain.obj
 0001:00026f50       __isa_available_init       0000000180027f50 f   LIBCMT:cpu_disp.obj
 0001:00027100       __sse2_sinf4@@16           0000000180028100 f   LIBCMT:svml_ssinf4_sse2.obj
 0001:00027a40       __sse4_sinf4@@16           0000000180028a40 f   LIBCMT:svml_ssinf4_sse4.obj
 0001:000281b4       __security_init_cookie     00000001800291b4 f   LIBCMT:gs_support.obj
 0001:00028260       __local_stdio_printf_options 0000000180029260 f i LIBCMT:default_local_stdio_options.obj
 0001:00028268       __local_stdio_scanf_options 0000000180029268 f i LIBCMT:default_local_stdio_options.obj
 0001:00028270       __scrt_initialize_default_local_stdio_options 0000000180029270 f   LIBCMT:default_local_stdio_options.obj
 0001:0002828c       __scrt_acquire_startup_lock 000000018002928c f   LIBCMT:utility.obj
 0001:000282c8       __scrt_dllmain_after_initialize_c 00000001800292c8 f   LIBCMT:utility.obj
 0001:000282fc       __scrt_dllmain_before_initialize_c 00000001800292fc f   LIBCMT:utility.obj
 0001:00028314       __scrt_dllmain_crt_thread_attach 0000000180029314 f   LIBCMT:utility.obj
 0001:0002833c       __scrt_dllmain_crt_thread_detach 000000018002933c f   LIBCMT:utility.obj
 0001:00028354       __scrt_dllmain_exception_filter 0000000180029354 f   LIBCMT:utility.obj
 0001:000283b4       __scrt_dllmain_uninitialize_c 00000001800293b4 f   LIBCMT:utility.obj
 0001:000283e4       __scrt_dllmain_uninitialize_critical 00000001800293e4 f   LIBCMT:utility.obj
 0001:000283f8       __scrt_initialize_crt      00000001800293f8 f   LIBCMT:utility.obj
 0001:00028444       __scrt_initialize_onexit_tables 0000000180029444 f   LIBCMT:utility.obj
 0001:000284d0       __scrt_is_nonwritable_in_current_image 00000001800294d0 f   LIBCMT:utility.obj
 0001:00028568       __scrt_release_startup_lock 0000000180029568 f   LIBCMT:utility.obj
 0001:0002858c       __scrt_uninitialize_crt    000000018002958c f   LIBCMT:utility.obj
 0001:000285b8       __scrt_get_dyn_tls_init_callback 00000001800295b8 f   LIBCMT:dyn_tls_init.obj
 0001:000285c0       __crt_debugger_hook        00000001800295c0 f   LIBCMT:utility_desktop.obj
 0001:000285c8       __scrt_fastfail            00000001800295c8 f   LIBCMT:utility_desktop.obj
 0001:00028714       _RTC_Initialize            0000000180029714 f   LIBCMT:initsect.obj
 0001:00028750       _RTC_Terminate             0000000180029750 f   LIBCMT:initsect.obj
 0001:00028790       __common_ssin_cout_rare    0000000180029790 f   LIBCMT:svml_s_sin_cout.obj
 0001:00028800       __scrt_is_ucrt_dll_in_use  0000000180029800 f   LIBCMT:ucrt_detection.obj
 0001:0002880c       _get_purecall_handler      000000018002980c f   libvcruntime:purevirt.obj
 0001:00028818       _purecall                  0000000180029818 f   libvcruntime:purevirt.obj
 0001:0002883c       __std_type_info_compare    000000018002983c f   libvcruntime:std_type_info.obj
 0001:00028864       __std_type_info_destroy_list 0000000180029864 f   libvcruntime:std_type_info.obj
 0001:00028890       __std_type_info_name       0000000180029890 f   libvcruntime:std_type_info.obj
 0001:000289c0       memset_repmovs             00000001800299c0 f   libvcruntime:memset.obj
 0001:000289e0       memset                     00000001800299e0 f   libvcruntime:memset.obj
 0001:00028b80       memcpy_repmovs             0000000180029b80 f   libvcruntime:memcpy.obj
 0001:00028ba0       memcpy                     0000000180029ba0 f   libvcruntime:memcpy.obj
 0001:00028ba0       memmove                    0000000180029ba0 f   libvcruntime:memcpy.obj
 0001:00029218       strstr                     000000018002a218 f   libvcruntime:strstr.obj
 0001:00029414       __C_specific_handler       000000018002a414 f   libvcruntime:riscchandler.obj
 0001:00029620       __vcrt_initialize          000000018002a620 f   libvcruntime:initialization.obj
 0001:00029648       __vcrt_thread_attach       000000018002a648 f   libvcruntime:initialization.obj
 0001:0002965c       __vcrt_thread_detach       000000018002a65c f   libvcruntime:initialization.obj
 0001:00029670       __vcrt_uninitialize        000000018002a670 f   libvcruntime:initialization.obj
 0001:0002968c       __vcrt_uninitialize_critical 000000018002a68c f   libvcruntime:initialization.obj
 0001:0002969c       __DestructExceptionObject  000000018002a69c f   libvcruntime:ehhelpers.obj
 0001:0002970c       ?_CallMemberFunction0@@YAXQEAX0@Z 000000018002a70c f i libvcruntime:ehhelpers.obj
 0001:00029710       _IsExceptionObjectToBeDestroyed 000000018002a710 f   libvcruntime:ehhelpers.obj
 0001:00029740       __AdjustPointer            000000018002a740 f   libvcruntime:ehhelpers.obj
 0001:00029764       __FrameUnwindFilter        000000018002a764 f   libvcruntime:ehhelpers.obj
 0001:000297cc       ??$?0$00@DName@@QEAA@PEBDU?$StringLifeSelector@$00@@@Z 000000018002a7cc f i libvcruntime:undname.obj
 0001:0002980c       ??$?0$0A@@DName@@QEAA@PEBDU?$StringLifeSelector@$0A@@@@Z 000000018002a80c f i libvcruntime:undname.obj
 0001:0002980c       ??$?0$01@DName@@QEAA@PEBDU?$StringLifeSelector@$01@@@Z 000000018002a80c f i libvcruntime:undname.obj
 0001:0002984c       ??$?0$0A@@pcharNode@@QEAA@PEBDHU?$StringLifeSelector@$0A@@@@Z 000000018002a84c f i libvcruntime:undname.obj
 0001:0002984c       ??$?0$01@pcharNode@@QEAA@PEBDHU?$StringLifeSelector@$01@@@Z 000000018002a84c f i libvcruntime:undname.obj
 0001:000298c0       ??$append@VpcharNode@@@DName@@AEAAXPEBVpcharNode@@@Z 000000018002a8c0 f i libvcruntime:undname.obj
 0001:000298c0       ??$append@VDNameNode@@@DName@@AEAAXPEBVDNameNode@@@Z 000000018002a8c0 f i libvcruntime:undname.obj
 0001:000298c0       ??$append@VDNameStatusNode@@@DName@@AEAAXPEBVDNameStatusNode@@@Z 000000018002a8c0 f i libvcruntime:undname.obj
 0001:000298c0       ??$append@VcharNode@@@DName@@AEAAXPEBVcharNode@@@Z 000000018002a8c0 f i libvcruntime:undname.obj
 0001:00029924       ??$doPchar@$00@DName@@AEAAXPEBDH@Z 000000018002a924 f i libvcruntime:undname.obj
 0001:000299c8       ??$doPchar@$01@DName@@AEAAXPEBDH@Z 000000018002a9c8 f i libvcruntime:undname.obj
 0001:000299c8       ??$doPchar@$0A@@DName@@AEAAXPEBDH@Z 000000018002a9c8 f i libvcruntime:undname.obj
 0001:00029a60       ??0DName@@QEAA@AEAPEBDD@Z  000000018002aa60 f   libvcruntime:undname.obj
 0001:00029b10       ??0DName@@QEAA@AEBUStringLiteral@@@Z 000000018002ab10 f   libvcruntime:undname.obj
 0001:00029b3c       ??0DName@@QEAA@PEAV0@@Z    000000018002ab3c f   libvcruntime:undname.obj
 0001:00029bc0       ??0DName@@QEAA@_J@Z        000000018002abc0 f   libvcruntime:undname.obj
 0001:00029c68       ??0DName@@QEAA@_K@Z        000000018002ac68 f   libvcruntime:undname.obj
 0001:00029cf8       ??2@YAPEAX_KAEAV_HeapManager@@H@Z 000000018002acf8 f   libvcruntime:undname.obj
 0001:00029d24       ??AReplicator@@QEBA?AVDName@@H@Z 000000018002ad24 f   libvcruntime:undname.obj
 0001:00029d64       ??HDName@@QEBA?AV0@AEBUStringLiteral@@@Z 000000018002ad64 f   libvcruntime:undname.obj
 0001:00029d90       ??HDName@@QEBA?AV0@AEBV0@@Z 000000018002ad90 f   libvcruntime:undname.obj
 0001:00029dbc       ??HDName@@QEBA?AV0@D@Z     000000018002adbc f   libvcruntime:undname.obj
 0001:00029de8       ??HDName@@QEBA?AV0@W4DNameStatus@@@Z 000000018002ade8 f   libvcruntime:undname.obj
 0001:00029e14       ??YDName@@QEAAAEAV0@AEBUStringLiteral@@@Z 000000018002ae14 f   libvcruntime:undname.obj
 0001:00029e94       ??YDName@@QEAAAEAV0@AEBV0@@Z 000000018002ae94 f   libvcruntime:undname.obj
 0001:00029f48       ??YDName@@QEAAAEAV0@D@Z    000000018002af48 f   libvcruntime:undname.obj
 0001:00029fb4       ??YDName@@QEAAAEAV0@W4DNameStatus@@@Z 000000018002afb4 f   libvcruntime:undname.obj
 0001:0002a020       ??YReplicator@@QEAAAEAV0@AEBVDName@@@Z 000000018002b020 f   libvcruntime:undname.obj
 0001:0002a078       ?UScore@UnDecorator@@SA?AUStringLiteral@@W4Tokens@@@Z 000000018002b078 f   libvcruntime:undname.obj
 0001:0002a0c4       ?composeDeclaration@UnDecorator@@CA?AVDName@@AEBV2@@Z 000000018002b0c4 f i libvcruntime:undname.obj
 0001:0002af6c       ?doPchar@DName@@AEAAXD@Z   000000018002bf6c f   libvcruntime:undname.obj
 0001:0002afbc       ?getAddressOf@UnDecorator@@CA?AVDName@@XZ 000000018002bfbc f   libvcruntime:undname.obj
 0001:0002b04c       ?getArgumentList@UnDecorator@@CA?AVDName@@XZ 000000018002c04c f   libvcruntime:undname.obj
 0001:0002b1e0       ?getArgumentTypes@UnDecorator@@CA?AVDName@@XZ 000000018002c1e0 f   libvcruntime:undname.obj
 0001:0002b33c       ?getArrayAccess@UnDecorator@@CA?AVDName@@XZ 000000018002c33c f   libvcruntime:undname.obj
 0001:0002b3d8       ?getArrayObject@UnDecorator@@CA?AVDName@@XZ 000000018002c3d8 f   libvcruntime:undname.obj
 0001:0002b4a0       ?getArrayType@UnDecorator@@CA?AVDName@@AEBV2@@Z 000000018002c4a0 f i libvcruntime:undname.obj
 0001:0002b6e8       ?getBasedType@UnDecorator@@CA?AVDName@@XZ 000000018002c6e8 f   libvcruntime:undname.obj
 0001:0002b7e0       ?getBasicDataType@UnDecorator@@CA?AVDName@@AEBV2@@Z 000000018002c7e0 f   libvcruntime:undname.obj
 0001:0002bd90       ?getCallingConvention@UnDecorator@@CA?AVDName@@XZ 000000018002cd90 f   libvcruntime:undname.obj
 0001:0002bed0       ?getDataIndirectType@UnDecorator@@CA?AVDName@@AEBV2@W4IndirectionKind@@0H@Z 000000018002ced0 f   libvcruntime:undname.obj
 0001:0002c768       ?getDataType@UnDecorator@@CA?AVDName@@PEAV2@@Z 000000018002d768 f   libvcruntime:undname.obj
 0001:0002c87c       ?getDecoratedName@UnDecorator@@CA?AVDName@@XZ 000000018002d87c f   libvcruntime:undname.obj
 0001:0002cb60       ?getDimension@UnDecorator@@CA?AVDName@@_N@Z 000000018002db60 f   libvcruntime:undname.obj
 0001:0002ccac       ?getDispatchTarget@UnDecorator@@CA?AVDName@@XZ 000000018002dcac f   libvcruntime:undname.obj
 0001:0002ccf8       ?getECSUDataType@UnDecorator@@CA?AVDName@@XZ 000000018002dcf8 f   libvcruntime:undname.obj
 0001:0002ced8       ?getEnumType@UnDecorator@@CA?AVDName@@XZ 000000018002ded8 f i libvcruntime:undname.obj
 0001:0002d008       ?getExtendedDataIndirectType@UnDecorator@@CA?AVDName@@AEAW4IndirectionKind@@AEA_NH@Z 000000018002e008 f   libvcruntime:undname.obj
 0001:0002d210       ?getExternalDataType@UnDecorator@@CA?AVDName@@AEBV2@@Z 000000018002e210 f i libvcruntime:undname.obj
 0001:0002d2d0       ?getFloatingPoint@UnDecorator@@CA?AVDName@@H@Z 000000018002e2d0 f   libvcruntime:undname.obj
 0001:0002d3f8       ?getFunctionIndirectType@UnDecorator@@CA?AVDName@@AEBV2@@Z 000000018002e3f8 f   libvcruntime:undname.obj
 0001:0002d930       ?getLastChar@DNameStatusNode@@UEBADXZ 000000018002e930 f i libvcruntime:undname.obj
 0001:0002d93c       ?getLastChar@charNode@@UEBADXZ 000000018002e93c f i libvcruntime:undname.obj
 0001:0002d940       ?getLastChar@pDNameNode@@UEBADXZ 000000018002e940 f i libvcruntime:undname.obj
 0001:0002d96c       ?getLastChar@pairNode@@UEBADXZ 000000018002e96c f i libvcruntime:undname.obj
 0001:0002d9a4       ?getLastChar@pcharNode@@UEBADXZ 000000018002e9a4 f i libvcruntime:undname.obj
 0001:0002d9b8       ?getLexicalFrame@UnDecorator@@CA?AVDName@@XZ 000000018002e9b8 f i libvcruntime:undname.obj
 0001:0002da1c       ?getMemberAccess@UnDecorator@@CA?AVDName@@XZ 000000018002ea1c f   libvcruntime:undname.obj
 0001:0002dab0       ?getMemoryWithBuffer@_HeapManager@@QEAAPEAX_K@Z 000000018002eab0 f   libvcruntime:undname.obj
 0001:0002db40       ?getNoexcept@UnDecorator@@CA?AVDName@@XZ 000000018002eb40 f   libvcruntime:undname.obj
 0001:0002dba4       ?getNumberOfDimensions@UnDecorator@@CAHXZ 000000018002eba4 f   libvcruntime:undname.obj
 0001:0002dc18       ?getOperatorName@UnDecorator@@CA?AVDName@@_NPEA_N@Z 000000018002ec18 f i libvcruntime:undname.obj
 0001:0002e60c       ?getPointerToMember@UnDecorator@@CA?AVDName@@XZ 000000018002f60c f   libvcruntime:undname.obj
 0001:0002e704       ?getPrimaryDataType@UnDecorator@@CA?AVDName@@AEBV2@@Z 000000018002f704 f   libvcruntime:undname.obj
 0001:0002e9b8       ?getPtrRefDataType@UnDecorator@@CA?AVDName@@AEBV2@H@Z 000000018002f9b8 f   libvcruntime:undname.obj
 0001:0002eb84       ?getPtrRefType@UnDecorator@@CA?AVDName@@AEBV2@0W4IndirectionKind@@@Z 000000018002fb84 f   libvcruntime:undname.obj
 0001:0002ed5c       ?getRestrictionSpec@UnDecorator@@CA?AVDName@@XZ 000000018002fd5c f   libvcruntime:undname.obj
 0001:0002ef28       ?getReturnType@UnDecorator@@CA?AVDName@@PEAV2@@Z 000000018002ff28 f   libvcruntime:undname.obj
 0001:0002ef5c       ?getScope@UnDecorator@@CA?AVDName@@XZ 000000018002ff5c f   libvcruntime:undname.obj
 0001:0002f410       ?getScopedName@UnDecorator@@CA?AVDName@@XZ 0000000180030410 f   libvcruntime:undname.obj
 0001:0002f54c       ?getSignedDimension@UnDecorator@@CA?AVDName@@XZ 000000018003054c f   libvcruntime:undname.obj
 0001:0002f5d4       ?getString@DNameStatusNode@@UEBAPEADPEAD0@Z 00000001800305d4 f i libvcruntime:undname.obj
 0001:0002f61c       ?getString@charNode@@UEBAPEADPEAD0@Z 000000018003061c f i libvcruntime:undname.obj
 0001:0002f630       ?getString@pDNameNode@@UEBAPEADPEAD0@Z 0000000180030630 f i libvcruntime:undname.obj
 0001:0002f660       ?getString@pairNode@@UEBAPEADPEAD0@Z 0000000180030660 f i libvcruntime:undname.obj
 0001:0002f6ac       ?getString@pcharNode@@UEBAPEADPEAD0@Z 00000001800306ac f i libvcruntime:undname.obj
 0001:0002f6e4       ?getStringEncoding@UnDecorator@@CA?AVDName@@W4PrefixKind@@H@Z 00000001800306e4 f   libvcruntime:undname.obj
 0001:0002f7c8       ?getStringObject@UnDecorator@@CA?AVDName@@XZ 00000001800307c8 f   libvcruntime:undname.obj
 0001:0002f830       ?getSymbolName@UnDecorator@@CA?AVDName@@XZ 0000000180030830 f i libvcruntime:undname.obj
 0001:0002f87c       ?getTemplateArgumentList@UnDecorator@@CA?AVDName@@XZ 000000018003087c f   libvcruntime:undname.obj
 0001:0002faf0       ?getTemplateName@UnDecorator@@CA?AVDName@@_N@Z 0000000180030af0 f   libvcruntime:undname.obj
 0001:0002fd84       ?getTemplateNonTypeArgument@UnDecorator@@CA?AVDName@@XZ 0000000180030d84 f   libvcruntime:undname.obj
 0001:000302b8       ?getTemplateTypeArgument@UnDecorator@@CA?AVDName@@XZ 00000001800312b8 f   libvcruntime:undname.obj
 0001:00030420       ?getThrowTypes@UnDecorator@@CA?AVDName@@XZ 0000000180031420 f   libvcruntime:undname.obj
 0001:00030444       ?getTypeEncoding@UnDecorator@@CAHXZ 0000000180031444 f i libvcruntime:undname.obj
 0001:000307d4       ?getUndecoratedName@UnDecorator@@QEAAPEADPEADH@Z 00000001800317d4 f i libvcruntime:undname.obj
 0001:00030928       ?getUnionObject@UnDecorator@@CA?AVDName@@XZ 0000000180031928 f   libvcruntime:undname.obj
 0001:00030a00       ?getVCallThunkType@UnDecorator@@CA?AVDName@@XZ 0000000180031a00 f i libvcruntime:undname.obj
 0001:00030a78       ?getValue@UnDecorator@@CA?AV?$optional@_K@std@@XZ 0000000180031a78 f   libvcruntime:undname.obj
 0001:00030aec       ?getValueObject@UnDecorator@@CA?AVDName@@XZ 0000000180031aec f   libvcruntime:undname.obj
 0001:00030c44       ?getVdispMapType@UnDecorator@@CA?AVDName@@AEBV2@@Z 0000000180031c44 f i libvcruntime:undname.obj
 0001:00030cc0       ?getVfTableType@UnDecorator@@CA?AVDName@@AEBV2@@Z 0000000180031cc0 f i libvcruntime:undname.obj
 0001:00030ec8       ?getZName@UnDecorator@@CA?AVDName@@_N0@Z 0000000180031ec8 f   libvcruntime:undname.obj
 0001:000311b0       ?raw_length@DNameStatusNode@@UEBAHXZ 00000001800321b0 f i libvcruntime:undname.obj
 0001:000311b0       ?length@DNameStatusNode@@UEBAHXZ 00000001800321b0 f i libvcruntime:undname.obj
 0001:000311b4       ?length@pDNameNode@@UEBAHXZ 00000001800321b4 f i libvcruntime:undname.obj
 0001:000311dc       ?length@pairNode@@UEBAHXZ  00000001800321dc f i libvcruntime:undname.obj
 0001:00031224       ?parseDecoratedName@UnDecorator@@CA?AVDName@@XZ 0000000180032224 f   libvcruntime:undname.obj
 0001:00031338       ?raw_length@pDNameNode@@UEBAHXZ 0000000180032338 f i libvcruntime:undname.obj
 0001:0003133c       ?raw_length@pairNode@@UEBAHXZ 000000018003233c f i libvcruntime:undname.obj
 0001:00031340       __unDName                  0000000180032340 f   libvcruntime:undname.obj
 0001:00031368       __unDNameEx                0000000180032368 f   libvcruntime:undname.obj
 0001:0003149c       sprintf_s                  000000018003249c f i libvcruntime:undname.obj
 0001:00031500       _NLG_Notify                0000000180032500 f   libvcruntime:notify.obj
 0001:00031520       __NLG_Dispatch2            0000000180032520 f   libvcruntime:notify.obj
 0001:00031530       __NLG_Return2              0000000180032530 f   libvcruntime:notify.obj
 0001:00031534       __except_validate_context_record 0000000180032534 f   libvcruntime:jbcxrval.obj
 0001:0003156c       __vcrt_freefls             000000018003256c f   libvcruntime:per_thread_data.obj
 0001:0003158c       __vcrt_freeptd             000000018003258c f   libvcruntime:per_thread_data.obj
 0001:000315dc       __vcrt_getptd              00000001800325dc f   libvcruntime:per_thread_data.obj
 0001:000315f8       __vcrt_getptd_noexit       00000001800325f8 f   libvcruntime:per_thread_data.obj
 0001:000316b8       __vcrt_initialize_ptd      00000001800326b8 f   libvcruntime:per_thread_data.obj
 0001:00031700       __vcrt_uninitialize_ptd    0000000180032700 f   libvcruntime:per_thread_data.obj
 0001:00031724       __vcrt_initialize_locks    0000000180032724 f   libvcruntime:locks.obj
 0001:00031758       __vcrt_lock                0000000180032758 f   libvcruntime:locks.obj
 0001:00031774       __vcrt_uninitialize_locks  0000000180032774 f   libvcruntime:locks.obj
 0001:000317ac       __vcrt_unlock              00000001800327ac f   libvcruntime:locks.obj
 0001:000317c8       ??$_CallSETranslator@V__FrameHandler4@@@@YAHPEAUEHExceptionRecord@@PEA_KPEAU_CONTEXT@@PEAU_xDISPATCHER_CONTEXT@@PEAUFuncInfo4@FH4@@K1H@Z 00000001800327c8 f i libvcruntime:risctrnsctrl.obj
 0001:0003181c       ?DecompFuncInfo@FH4@@YA_JPEAEAEAUFuncInfo4@1@_KH_N@Z 000000018003281c f i libvcruntime:risctrnsctrl.obj
 0001:00031940       ?ExecutionInCatch@__FrameHandler4@@SA_NPEAU_xDISPATCHER_CONTEXT@@PEAUFuncInfo4@FH4@@@Z 0000000180032940 f   libvcruntime:risctrnsctrl.obj
 0001:00031948       ?FrameUnwindToEmptyState@__FrameHandler4@@SAXPEA_KPEAU_xDISPATCHER_CONTEXT@@PEAUFuncInfo4@FH4@@@Z 0000000180032948 f   libvcruntime:risctrnsctrl.obj
 0001:0003197c       ?GetEstablisherFrame@__FrameHandler4@@SAPEA_KPEA_KPEAU_xDISPATCHER_CONTEXT@@PEAUFuncInfo4@FH4@@0@Z 000000018003297c f   libvcruntime:risctrnsctrl.obj
 0001:000319a0       ?GetRangeOfTrysToCheck@__FrameHandler4@@SA?AU?$pair@Viterator@TryBlockMap4@FH4@@V123@@std@@AEAVTryBlockMap4@FH4@@HPEAU_xDISPATCHER_CONTEXT@@PEAUFuncInfo4@5@H@Z 00000001800329a0 f   libvcruntime:risctrnsctrl.obj
 0001:00031b08       ?UnwindNestedFrames@__FrameHandler4@@SAXPEA_KPEAUEHExceptionRecord@@PEAU_CONTEXT@@0PEAXPEAUFuncInfo4@FH4@@HHPEAUHandlerType4@5@PEAU_xDISPATCHER_CONTEXT@@E@Z 0000000180032b08 f   libvcruntime:risctrnsctrl.obj
 0001:00031c28       ?setBuffer@TryBlockMap4@FH4@@QEAAXViterator@12@@Z 0000000180032c28 f i libvcruntime:risctrnsctrl.obj
 0001:00031de8       _CreateFrameInfo           0000000180032de8 f   libvcruntime:risctrnsctrl.obj
 0001:00031e24       _FindAndUnlinkFrame        0000000180032e24 f   libvcruntime:risctrnsctrl.obj
 0001:00031e78       _GetImageBase              0000000180032e78 f   libvcruntime:risctrnsctrl.obj
 0001:00031e8c       _GetThrowImageBase         0000000180032e8c f   libvcruntime:risctrnsctrl.obj
 0001:00031ea0       _SetImageBase              0000000180032ea0 f   libvcruntime:risctrnsctrl.obj
 0001:00031eb8       _SetThrowImageBase         0000000180032eb8 f   libvcruntime:risctrnsctrl.obj
 0001:00031ed0       __CxxFrameHandler4         0000000180032ed0 f   libvcruntime:risctrnsctrl.obj
 0001:000320e0       __vcrt_FlsAlloc            00000001800330e0 f   libvcruntime:winapi_downlevel.obj
 0001:00032128       __vcrt_FlsFree             0000000180033128 f   libvcruntime:winapi_downlevel.obj
 0001:00032170       __vcrt_FlsGetValue         0000000180033170 f   libvcruntime:winapi_downlevel.obj
 0001:000321b8       __vcrt_FlsSetValue         00000001800331b8 f   libvcruntime:winapi_downlevel.obj
 0001:0003220c       __vcrt_InitializeCriticalSectionEx 000000018003320c f   libvcruntime:winapi_downlevel.obj
 0001:00032270       ?StateFromControlPc@__FrameHandler4@@SAHPEAUFuncInfo4@FH4@@PEAU_xDISPATCHER_CONTEXT@@@Z 0000000180033270 f   libvcruntime:ehstate.obj
 0001:00032278       ?StateFromIp@__FrameHandler4@@SAHPEAUFuncInfo4@FH4@@PEAU_xDISPATCHER_CONTEXT@@_K@Z 0000000180033278 f   libvcruntime:ehstate.obj
 0001:00032ee8       ??$TypeMatchHelper@V__FrameHandler3@@@@YAHPEBU_s_HandlerType@@PEBU_s_CatchableType@@PEBU_s_ThrowInfo@@@Z 0000000180033ee8 f i libvcruntime:frame.obj
 0001:00033028       ??$TypeMatchHelper@V__FrameHandler4@@@@YAHPEAUHandlerType4@FH4@@PEBU_s_CatchableType@@PEBU_s_ThrowInfo@@@Z 0000000180034028 f i libvcruntime:frame.obj
 0001:0003316c       ??$__InternalCxxFrameHandler@V__FrameHandler4@@@@YA?AW4_EXCEPTION_DISPOSITION@@PEAUEHExceptionRecord@@PEA_KPEAU_CONTEXT@@PEAU_xDISPATCHER_CONTEXT@@PEAUFuncInfo4@FH4@@H1E@Z 000000018003416c f i libvcruntime:frame.obj
 0001:00033400       ??0HandlerMap4@FH4@@QEAA@PEBUTryBlockMapEntry4@1@_KH@Z 0000000180034400 f i libvcruntime:frame.obj
 0001:0003347c       ??0TryBlockMap4@FH4@@QEAA@PEBUFuncInfo4@1@_K@Z 000000018003447c f i libvcruntime:frame.obj
 0001:00033554       ??0bad_exception@std@@QEAA@AEBV01@@Z 0000000180034554 f i libvcruntime:frame.obj
 0001:00033590       ??0bad_exception@std@@QEAA@XZ 0000000180034590 f i libvcruntime:frame.obj
 0001:000335b0       ??0exception@std@@QEAA@AEBV01@@Z 00000001800345b0 f i libvcruntime:frame.obj
 0001:000335e4       ??1bad_exception@std@@UEAA@XZ 00000001800345e4 f i libvcruntime:frame.obj
 0001:000335f8       ??_Ebad_exception@std@@UEAAPEAXI@Z 00000001800345f8 f i libvcruntime:frame.obj
 0001:000335f8       ??_Gbad_exception@std@@UEAAPEAXI@Z 00000001800345f8 f i libvcruntime:frame.obj
 0001:000335f8       ??_Eexception@std@@UEAAPEAXI@Z 00000001800345f8 f i libvcruntime:frame.obj
 0001:000335f8       ??_Gexception@std@@UEAAPEAXI@Z 00000001800345f8 f i libvcruntime:frame.obj
 0001:0003363c       ?CxxCallCatchBlock@__FrameHandler4@@SAPEAXPEAU_EXCEPTION_RECORD@@@Z 000000018003463c f   libvcruntime:frame.obj
 0001:0003388c       ?DecompHandler@HandlerMap4@FH4@@AEAAXXZ 000000018003488c f i libvcruntime:frame.obj
 0001:00033acc       ?FrameUnwindToState@__FrameHandler4@@SAXPEA_KPEAU_xDISPATCHER_CONTEXT@@PEAUFuncInfo4@FH4@@H@Z 0000000180034acc f   libvcruntime:frame.obj
 0001:00033f2c       ?ReadEntry@UWMap4@FH4@@AEAAXPEAPEAE@Z 0000000180034f2c f i libvcruntime:frame.obj
 0001:00033fcc       ?_CallMemberFunction1@@YAXQEAX00@Z 0000000180034fcc f i libvcruntime:frame.obj
 0001:00033fd8       ?_CallMemberFunction2@@YAXQEAX00H@Z 0000000180034fd8 f i libvcruntime:frame.obj
 0001:00033fe8       ?getStartStop@UWMap4@FH4@@QEAAXHHAEAViterator@12@0@Z 0000000180034fe8 f i libvcruntime:frame.obj
 0001:000340b8       ?getStateFromIterators@UWMap4@FH4@@SAHAEBViterator@12@H0H0@Z 00000001800350b8 f i libvcruntime:frame.obj
 0001:00034180       ?what@exception@std@@UEBAPEBDXZ 0000000180035180 f i libvcruntime:frame.obj
 0001:000341b0       _CallSettingFrame          00000001800351b0 f   libvcruntime:handlers.obj
 0001:00034200       _CallSettingFrame_LookupContinuationIndex 0000000180035200 f   libvcruntime:handlers.obj
 0001:00034230       _CallSettingFrame_NotifyContinuationAddr 0000000180035230 f   libvcruntime:handlers.obj
 0001:00034260       _CallSettingFrameEncoded   0000000180035260 f   libvcruntime:handlers.obj
 0001:000342a8       __std_exception_copy       00000001800352a8 f   libvcruntime:std_exception.obj
 0001:00034338       __std_exception_destroy    0000000180035338 f   libvcruntime:std_exception.obj
 0001:00034360       _CxxThrowException         0000000180035360 f   libvcruntime:throw.obj
 0001:00034410       strcmp                     0000000180035410 f   libucrt:strcmp.obj
 0001:00034478       atan2f                     0000000180035478 f   libucrt:atan2f.obj
 0001:00034868       _fpclass                   0000000180035868 f   libucrt:ieeemisc.obj
 0001:000348f0       cosf                       00000001800358f0 f   libucrt:cosf.obj
 0001:00034df0       sinf                       0000000180035df0 f   libucrt:sinf.obj
 0001:000354e8       free                       00000001800364e8 f   libucrt:free.obj
 0001:000354fc       _initterm                  00000001800364fc f   libucrt:initterm.obj
 0001:00035560       _initterm_e                0000000180036560 f   libucrt:initterm.obj
 0001:000355a0       _seh_filter_dll            00000001800365a0 f   libucrt:exception_filter.obj
 0001:000355b4       _seh_filter_exe            00000001800365b4 f   libucrt:exception_filter.obj
 0001:000359a4       __acrt_initialize_thread_local_exit_callback 00000001800369a4 f   libucrt:exit.obj
 0001:000359ac       _cexit                     00000001800369ac f   libucrt:exit.obj
 0001:000359bc       _exit                      00000001800369bc f   libucrt:exit.obj
 0001:000359c8       _is_c_termination_complete 00000001800369c8 f   libucrt:exit.obj
 0001:00035b90       __acrt_allocate_buffer_for_argv 0000000180036b90 f   libucrt:argv_parsing.obj
 0001:00035bf0       _configure_narrow_argv     0000000180036bf0 f   libucrt:argv_parsing.obj
 0001:00035f68       __dcrt_uninitialize_environments_nolock 0000000180036f68 f   libucrt:environment_initialization.obj
 0001:00035fa0       _initialize_narrow_environment 0000000180036fa0 f   libucrt:environment_initialization.obj
 0001:000360fc       _execute_onexit_table      00000001800370fc f   libucrt:onexit.obj
 0001:00036138       _initialize_onexit_table   0000000180037138 f   libucrt:onexit.obj
 0001:00036198       __acrt_uninitialize_command_line 0000000180037198 f   libucrt:argv_data.obj
 0001:00036290       __acrt_initialize          0000000180037290 f   libucrt:initialization.obj
 0001:000362a4       __acrt_thread_attach       00000001800372a4 f   libucrt:initialization.obj
 0001:000362b8       __acrt_thread_detach       00000001800372b8 f   libucrt:initialization.obj
 0001:000362c8       __acrt_uninitialize        00000001800372c8 f   libucrt:initialization.obj
 0001:00036300       __acrt_uninitialize_critical 0000000180037300 f   libucrt:initialization.obj
 0001:00036310       terminate                  0000000180037310 f   libucrt:terminate.obj
 0001:00036330       abort                      0000000180037330 f   libucrt:abort.obj
 0001:00036388       malloc                     0000000180037388 f   libucrt:malloc.obj
 0001:00036390       strcpy_s                   0000000180037390 f   libucrt:strcpy_s.obj
 0001:000365bc       ??$ensure_buffer_is_big_enough@D@formatting_buffer@__crt_stdio_output@@QEAA_N_K@Z 00000001800375bc f i libucrt:output.obj
 0001:00036664       ??$type_case_integer_parse_into_buffer@I@?$output_processor@DV?$string_output_adapter@D@__crt_stdio_output@@V?$format_validation_base@DV?$string_output_adapter@D@__crt_stdio_output@@@2@@__crt_stdio_output@@AEAAXII_N@Z 0000000180037664 f i libucrt:output.obj
 0001:000366ec       ??$type_case_integer_parse_into_buffer@_K@?$output_processor@DV?$string_output_adapter@D@__crt_stdio_output@@V?$format_validation_base@DV?$string_output_adapter@D@__crt_stdio_output@@@2@@__crt_stdio_output@@AEAAX_KI_N@Z 00000001800376ec f i libucrt:output.obj
 0001:0003677c       ??$write_multiple_characters@V?$string_output_adapter@D@__crt_stdio_output@@D@__crt_stdio_output@@YAXAEBV?$string_output_adapter@D@0@DHQEAH@Z 000000018003777c f i libucrt:output.obj
 0001:000367f4       ??0_LocaleUpdate@@QEAA@QEAU__crt_locale_pointers@@@Z 00000001800377f4 f i libucrt:output.obj
 0001:00036890       ?crop_zeroes@__crt_stdio_output@@YAXPEADQEAU__crt_locale_pointers@@@Z 0000000180037890 f i libucrt:output.obj
 0001:00036930       ?force_decimal_point@__crt_stdio_output@@YAXPEADQEAU__crt_locale_pointers@@@Z 0000000180037930 f i libucrt:output.obj
 0001:000369a8       ?parse_int_from_format_string@?$output_processor@DV?$string_output_adapter@D@__crt_stdio_output@@V?$format_validation_base@DV?$string_output_adapter@D@__crt_stdio_output@@@2@@__crt_stdio_output@@AEAA_NQEAH@Z 00000001800379a8 f i libucrt:output.obj
 0001:00036a4c       ?process@?$output_processor@DV?$string_output_adapter@D@__crt_stdio_output@@V?$format_validation_base@DV?$string_output_adapter@D@__crt_stdio_output@@@2@@__crt_stdio_output@@QEAAHXZ 0000000180037a4c f i libucrt:output.obj
 0001:00036c60       ?state_case_normal@?$output_processor@DV?$string_output_adapter@D@__crt_stdio_output@@V?$format_validation_base@DV?$string_output_adapter@D@__crt_stdio_output@@@2@@__crt_stdio_output@@AEAA_NXZ 0000000180037c60 f i libucrt:output.obj
 0001:00036cd4       ?state_case_normal_tchar@?$output_processor@DV?$string_output_adapter@D@__crt_stdio_output@@V?$format_validation_base@DV?$string_output_adapter@D@__crt_stdio_output@@@2@@__crt_stdio_output@@AEAA_ND@Z 0000000180037cd4 f i libucrt:output.obj
 0001:00036d7c       ?state_case_size@?$output_processor@DV?$string_output_adapter@D@__crt_stdio_output@@V?$format_validation_base@DV?$string_output_adapter@D@__crt_stdio_output@@@2@@__crt_stdio_output@@AEAA_NXZ 0000000180037d7c f i libucrt:output.obj
 0001:00036eec       ?state_case_type@?$output_processor@DV?$string_output_adapter@D@__crt_stdio_output@@V?$format_validation_base@DV?$string_output_adapter@D@__crt_stdio_output@@@2@@__crt_stdio_output@@AEAA_NXZ 0000000180037eec f i libucrt:output.obj
 0001:00037160       ?to_integer_size@__crt_stdio_output@@YA_KW4length_modifier@1@@Z 0000000180038160 f i libucrt:output.obj
 0001:000371c8       ?type_case_Z@?$output_processor@DV?$string_output_adapter@D@__crt_stdio_output@@V?$format_validation_base@DV?$string_output_adapter@D@__crt_stdio_output@@@2@@__crt_stdio_output@@AEAA_NXZ 00000001800381c8 f i libucrt:output.obj
 0001:0003723c       ?type_case_a@?$output_processor@DV?$string_output_adapter@D@__crt_stdio_output@@V?$format_validation_base@DV?$string_output_adapter@D@__crt_stdio_output@@@2@@__crt_stdio_output@@AEAA_NXZ 000000018003823c f i libucrt:output.obj
 0001:000373f8       ?type_case_c_tchar@?$output_processor@DV?$string_output_adapter@D@__crt_stdio_output@@V?$format_validation_base@DV?$string_output_adapter@D@__crt_stdio_output@@@2@@__crt_stdio_output@@AEAA_ND@Z 00000001800383f8 f i libucrt:output.obj
 0001:000374c0       ?type_case_integer@?$output_processor@DV?$string_output_adapter@D@__crt_stdio_output@@V?$format_validation_base@DV?$string_output_adapter@D@__crt_stdio_output@@@2@@__crt_stdio_output@@AEAA_NI_N@Z 00000001800384c0 f i libucrt:output.obj
 0001:00037640       ?type_case_n@?$output_processor@DV?$string_output_adapter@D@__crt_stdio_output@@V?$format_validation_base@DV?$string_output_adapter@D@__crt_stdio_output@@@2@@__crt_stdio_output@@AEAA_NXZ 0000000180038640 f i libucrt:output.obj
 0001:000376c8       ?type_case_s@?$output_processor@DV?$string_output_adapter@D@__crt_stdio_output@@V?$format_validation_base@DV?$string_output_adapter@D@__crt_stdio_output@@@2@@__crt_stdio_output@@AEAA_NXZ 00000001800386c8 f i libucrt:output.obj
 0001:00037760       ?write_stored_string_tchar@?$output_processor@DV?$string_output_adapter@D@__crt_stdio_output@@V?$format_validation_base@DV?$string_output_adapter@D@__crt_stdio_output@@@2@@__crt_stdio_output@@AEAA_ND@Z 0000000180038760 f i libucrt:output.obj
 0001:0003783c       ?write_string@?$string_output_adapter@D@__crt_stdio_output@@QEBAXQEBDHQEAHAEAV__crt_deferred_errno_cache@@@Z 000000018003883c f i libucrt:output.obj
 0001:000378e0       __stdio_common_vsprintf_s  00000001800388e0 f   libucrt:output.obj
 0001:00037944       ??$parse_integer@KV?$c_string_character_source@D@__crt_strtox@@@__crt_strtox@@YAKQEAU__crt_locale_pointers@@V?$c_string_character_source@D@0@H_N@Z 0000000180038944 f i libucrt:atox.obj
 0001:00037c48       _ischartype_l              0000000180038c48 f i libucrt:atox.obj
 0001:00037cc0       atol                       0000000180038cc0 f   libucrt:atox.obj
 0001:00037d00       strncmp                    0000000180038d00 f   libucrt:strncmp.obj
 0001:00037d80       calloc                     0000000180038d80 f   libucrt:calloc.obj
 0001:00037d88       wcsncmp                    0000000180038d88 f   libucrt:wcsncmp.obj
 0001:00037db4       _clrfp                     0000000180038db4 f   libucrt:fpctrl.obj
 0001:00037dd4       _ctrlfp                    0000000180038dd4 f   libucrt:fpctrl.obj
 0001:00037e50       _set_statfp                0000000180038e50 f   libucrt:fpctrl.obj
 0001:00037e70       _statfp                    0000000180038e70 f   libucrt:fpctrl.obj
 0001:00037fa8       _handle_error              0000000180038fa8 f   libucrt:libm_error.obj
 0001:000380d0       _handle_errorf             00000001800390d0 f   libucrt:libm_error.obj
 0001:00038204       _handle_nan                0000000180039204 f   libucrt:libm_error.obj
 0001:00038220       _handle_nanf               0000000180039220 f   libucrt:libm_error.obj
 0001:00038230       __remainder_piby2d2f_forAsm 0000000180039230 f   libucrt:remainder_piby2f_forasm.obj
 0001:00038380       __remainder_piby2_fma3     0000000180039380 f   libucrt:remainder_piby2_forfma3.obj
 0001:00038570       __remainder_piby2_fma3_bdl 0000000180039570 f   libucrt:remainder_piby2_forfma3.obj
 0001:000385e8       _cosf_special              00000001800395e8 f   libucrt:sincos_special.obj
 0001:00038688       _sinf_special              0000000180039688 f   libucrt:sincos_special.obj
 0001:000386a0       __acrt_initialize_fma3     00000001800396a0 f   libucrt:fma3_available.obj
 0001:00038710       __remainder_piby2d2f_forC  0000000180039710 f   libucrt:remainder_piby2f_forc.obj
 0001:0003889c       _free_base                 000000018003989c f   libucrt:free_base.obj
 0001:00038c54       __acrt_freeptd             0000000180039c54 f   libucrt:per_thread_data.obj
 0001:00038c98       __acrt_getptd              0000000180039c98 f   libucrt:per_thread_data.obj
 0001:00038d6c       __acrt_getptd_head         0000000180039d6c f   libucrt:per_thread_data.obj
 0001:00038e14       __acrt_getptd_noexit       0000000180039e14 f   libucrt:per_thread_data.obj
 0001:00038ee0       __acrt_initialize_ptd      0000000180039ee0 f   libucrt:per_thread_data.obj
 0001:00038f1c       __acrt_uninitialize_ptd    0000000180039f1c f   libucrt:per_thread_data.obj
 0001:00038f40       __acrt_initialize_locks    0000000180039f40 f   libucrt:locks.obj
 0001:00038f88       __acrt_lock                0000000180039f88 f   libucrt:locks.obj
 0001:00038fa4       __acrt_uninitialize_locks  0000000180039fa4 f   libucrt:locks.obj
 0001:00038fdc       __acrt_unlock              0000000180039fdc f   libucrt:locks.obj
 0001:00038ff8       __acrt_get_process_end_policy 0000000180039ff8 f   libucrt:win_policies.obj
 0001:00039034       __acrt_call_reportfault    000000018003a034 f   libucrt:invalid_parameter.obj
 0001:00039190       __acrt_initialize_invalid_parameter_handler 000000018003a190 f   libucrt:invalid_parameter.obj
 0001:00039198       _invalid_parameter         000000018003a198 f   libucrt:invalid_parameter.obj
 0001:00039248       _invalid_parameter_noinfo  000000018003a248 f   libucrt:invalid_parameter.obj
 0001:00039268       _invoke_watson             000000018003a268 f   libucrt:invalid_parameter.obj
 0001:000392b0       __acrt_errno_from_os_error 000000018003a2b0 f   libucrt:errno.obj
 0001:000392f8       __acrt_errno_map_os_error  000000018003a2f8 f   libucrt:errno.obj
 0001:00039348       __doserrno                 000000018003a348 f   libucrt:errno.obj
 0001:00039368       _errno                     000000018003a368 f   libucrt:errno.obj
 0001:00039388       _calloc_base               000000018003a388 f   libucrt:calloc_base.obj
 0001:00039414       ??$__acrt_mbs_to_wcs_cp@U__crt_win32_buffer_internal_dynamic_resizing@@@@YAHQEBDAEAV?$__crt_win32_buffer@_WU__crt_win32_buffer_internal_dynamic_resizing@@@@I@Z 000000018003a414 f i libucrt:argv_wildcards.obj
 0001:0003958c       ??$__acrt_wcs_to_mbs_cp@U__crt_win32_buffer_internal_dynamic_resizing@@@@YAHQEB_WAEAV?$__crt_win32_buffer@DU__crt_win32_buffer_internal_dynamic_resizing@@@@I@Z 000000018003a58c f i libucrt:argv_wildcards.obj
 0001:00039dbc       __acrt_expand_narrow_argv_wildcards 000000018003adbc f   libucrt:argv_wildcards.obj
 0001:00039dc4       ??$__acrt_wcs_to_mbs_cp@U__crt_win32_buffer_no_resizing@@@@YAHQEB_WAEAV?$__crt_win32_buffer@DU__crt_win32_buffer_no_resizing@@@@I@Z 000000018003adc4 f i libucrt:getmodulefilenamea.obj
 0001:00039ed8       __acrt_GetModuleFileNameA  000000018003aed8 f   libucrt:getmodulefilenamea.obj
 0001:0003a720       __acrt_initialize_multibyte 000000018003b720 f   libucrt:mbctype.obj
 0001:0003a780       __acrt_update_thread_multibyte_data 000000018003b780 f   libucrt:mbctype.obj
 0001:0003a79c       _setmbcp_nolock            000000018003b79c f   libucrt:mbctype.obj
 0001:0003aad0       _ismbblead                 000000018003bad0 f   libucrt:ismbbyte.obj
 0001:0003aae4       __acrt_initialize_command_line 000000018003bae4 f   libucrt:argv_data.obj
 0001:0003ab0c       __acrt_MultiByteToWideChar 000000018003bb0c f   libucrt:multibytetowidechar.obj
 0001:0003ab68       __acrt_WideCharToMultiByte 000000018003bb68 f   libucrt:widechartomultibyte.obj
 0001:0003ac18       __dcrt_get_narrow_environment_from_os 000000018003bc18 f   libucrt:get_environment_from_os.obj
 0001:0003ad1c       _recalloc_base             000000018003bd1c f   libucrt:recalloc.obj
 0001:0003af8c       __acrt_AppPolicyGetProcessTerminationMethodInternal 000000018003bf8c f   libucrt:winapi_thunks.obj
 0001:0003afdc       __acrt_AreFileApisANSI     000000018003bfdc f   libucrt:winapi_thunks.obj
 0001:0003b018       __acrt_FlsAlloc            000000018003c018 f   libucrt:winapi_thunks.obj
 0001:0003b060       __acrt_FlsFree             000000018003c060 f   libucrt:winapi_thunks.obj
 0001:0003b0a8       __acrt_FlsGetValue         000000018003c0a8 f   libucrt:winapi_thunks.obj
 0001:0003b0f0       __acrt_FlsSetValue         000000018003c0f0 f   libucrt:winapi_thunks.obj
 0001:0003b144       __acrt_InitializeCriticalSectionEx 000000018003c144 f   libucrt:winapi_thunks.obj
 0001:0003b1a8       __acrt_LCMapStringEx       000000018003c1a8 f   libucrt:winapi_thunks.obj
 0001:0003b284       __acrt_LocaleNameToLCID    000000018003c284 f   libucrt:winapi_thunks.obj
 0001:0003b2d4       __acrt_initialize_winapi_thunks 000000018003c2d4 f   libucrt:winapi_thunks.obj
 0001:0003b308       __acrt_uninitialize_winapi_thunks 000000018003c308 f   libucrt:winapi_thunks.obj
 0001:0003b34c       __acrt_initialize_heap     000000018003c34c f   libucrt:heap_handle.obj
 0001:0003b368       __acrt_uninitialize_heap   000000018003c368 f   libucrt:heap_handle.obj
 0001:0003b570       __acrt_initialize_lowio    000000018003c570 f   libucrt:ioinit.obj
 0001:0003b5ac       __acrt_uninitialize_lowio  000000018003c5ac f   libucrt:ioinit.obj
 0001:0003b5ec       __acrt_execute_initializers 000000018003c5ec f   libucrt:shared_initialization.obj
 0001:0003b66c       __acrt_execute_uninitializers 000000018003c66c f   libucrt:shared_initialization.obj
 0001:0003b6a8       __acrt_initialize_new_handler 000000018003c6a8 f   libucrt:new_handler.obj
 0001:0003b6b0       _callnewh                  000000018003c6b0 f   libucrt:new_handler.obj
 0001:0003b6e0       _query_new_handler         000000018003c6e0 f   libucrt:new_handler.obj
 0001:0003b75c       __acrt_get_sigabrt_handler 000000018003c75c f   libucrt:signal.obj
 0001:0003b78c       __acrt_initialize_signal_handlers 000000018003c78c f   libucrt:signal.obj
 0001:0003b7ac       raise                      000000018003c7ac f   libucrt:signal.obj
 0001:0003ba18       __acrt_has_user_matherr    000000018003ca18 f   libucrt:matherr.obj
 0001:0003ba38       __acrt_initialize_user_matherr 000000018003ca38 f   libucrt:matherr.obj
 0001:0003ba40       __acrt_invoke_user_matherr 000000018003ca40 f   libucrt:matherr.obj
 0001:0003bc4c       __acrt_stdio_flush_nolock  000000018003cc4c f   libucrt:fflush.obj
 0001:0003bcc8       _fflush_nolock             000000018003ccc8 f   libucrt:fflush.obj
 0001:0003bd14       _flushall                  000000018003cd14 f   libucrt:fflush.obj
 0001:0003bd1c       __acrt_initialize_stdio    000000018003cd1c f   libucrt:_file.obj
 0001:0003be3c       __acrt_uninitialize_stdio  000000018003ce3c f   libucrt:_file.obj
 0001:0003be98       _lock_file                 000000018003ce98 f   libucrt:_file.obj
 0001:0003bea4       _unlock_file               000000018003cea4 f   libucrt:_file.obj
 0001:0003beb0       _malloc_base               000000018003ceb0 f   libucrt:malloc_base.obj
 0001:0003bf10       strtol                     000000018003cf10 f   libucrt:strtox.obj
 0001:0003bf3c       _mbtowc_l                  000000018003cf3c f   libucrt:mbtowc.obj
 0001:0003c0bc       mbtowc                     000000018003d0bc f   libucrt:mbtowc.obj
 0001:0003c0c4       _wctomb_s_l                000000018003d0c4 f   libucrt:wctomb.obj
 0001:0003c260       strnlen                    000000018003d260 f   libucrt:strnlen.obj
 0001:0003c3b0       wcsnlen                    000000018003d3b0 f   libucrt:strnlen.obj
 0001:0003c588       __acrt_update_locale_info  000000018003d588 f   libucrt:locale_update.obj
 0001:0003c5bc       __acrt_update_multibyte_info 000000018003d5bc f   libucrt:locale_update.obj
 0001:0003cffc       __acrt_fp_format           000000018003dffc f   libucrt:cvt.obj
 0001:0003d334       _fileno                    000000018003e334 f   libucrt:fileno.obj
 0001:0003d35c       _get_printf_count_output   000000018003e35c f   libucrt:printf_count_output.obj
 0001:0003d3e4       __acrt_set_locale_changed  000000018003e3e4 f   libucrt:wsetlocale.obj
 0001:0003d3f0       __acrt_uninitialize_locale 000000018003e3f0 f   libucrt:wsetlocale.obj
 0001:0003d420       __pctype_func              000000018003e420 f   libucrt:ctype.obj
 0001:0003d450       _isctype_l                 000000018003e450 f   libucrt:isctype.obj
 0001:0003d570       _get_fpsr                  000000018003e570 f   libucrt:fpsr.obj
 0001:0003d580       _set_fpsr                  000000018003e580 f   libucrt:fpsr.obj
 0001:0003d58a       _fclrf                     000000018003e58a f   libucrt:fpsr.obj
 0001:0003d59e       _frnd                      000000018003e59e f   libucrt:fpsr.obj
 0001:0003d5c0       _raise_exc                 000000018003e5c0 f   libucrt:fpexcept.obj
 0001:0003d5e8       _raise_exc_ex              000000018003e5e8 f   libucrt:fpexcept.obj
 0001:0003d8f8       _raise_excf                000000018003e8f8 f   libucrt:fpexcept.obj
 0001:0003d924       _set_errno_from_matherr    000000018003e924 f   libucrt:fpexcept.obj
 0001:0003d954       __acrt_add_locale_ref      000000018003e954 f   libucrt:locale_refcounting.obj
 0001:0003d9e0       __acrt_free_locale         000000018003e9e0 f   libucrt:locale_refcounting.obj
 0001:0003db58       __acrt_locale_add_lc_time_reference 000000018003eb58 f   libucrt:locale_refcounting.obj
 0001:0003db80       __acrt_locale_free_lc_time_if_unreferenced 000000018003eb80 f   libucrt:locale_refcounting.obj
 0001:0003dbb8       __acrt_locale_release_lc_time_reference 000000018003ebb8 f   libucrt:locale_refcounting.obj
 0001:0003dbe0       __acrt_release_locale_ref  000000018003ebe0 f   libucrt:locale_refcounting.obj
 0001:0003dc88       __acrt_update_thread_locale_data 000000018003ec88 f   libucrt:locale_refcounting.obj
 0001:0003dcf8       _updatetlocinfoEx_nolock   000000018003ecf8 f   libucrt:locale_refcounting.obj
 0001:0003dd60       _query_new_mode            000000018003ed60 f   libucrt:new_mode.obj
 0001:0003dd70       qsort                      000000018003ed70 f   libucrt:qsort.obj
 0001:0003e110       strncpy_s                  000000018003f110 f   libucrt:strncpy_s.obj
 0001:0003e290       strpbrk                    000000018003f290 f   libucrt:strpbrk.obj
 0001:0003e658       _mbsdec                    000000018003f658 f   libucrt:mbsdec.obj
 0001:0003e660       _mbsdec_l                  000000018003f660 f   libucrt:mbsdec.obj
 0001:0003e6f4       __acrt_GetStringTypeA      000000018003f6f4 f   libucrt:getstringtypea.obj
 0001:0003eb9c       __acrt_LCMapStringA        000000018003fb9c f   libucrt:lcmapstringa.obj
 0001:0003ec4c       _msize_base                000000018003fc4c f   libucrt:msize.obj
 0001:0003ec88       _realloc_base              000000018003fc88 f   libucrt:realloc_base.obj
 0001:0003ed04       __acrt_DownlevelLocaleNameToLCID 000000018003fd04 f   libucrt:lcidtoname_downlevel.obj
 0001:0003edb4       __acrt_lowio_create_handle_array 000000018003fdb4 f   libucrt:osfinfo.obj
 0001:0003ee5c       __acrt_lowio_destroy_handle_array 000000018003fe5c f   libucrt:osfinfo.obj
 0001:0003eeac       __acrt_lowio_ensure_fh_exists 000000018003feac f   libucrt:osfinfo.obj
 0001:0003ef54       __acrt_lowio_lock_fh       000000018003ff54 f   libucrt:osfinfo.obj
 0001:0003ef7c       __acrt_lowio_unlock_fh     000000018003ff7c f   libucrt:osfinfo.obj
 0001:0003efa4       _free_osfhnd               000000018003ffa4 f   libucrt:osfinfo.obj
 0001:0003f060       _get_osfhandle             0000000180040060 f   libucrt:osfinfo.obj
 0001:0003f164       _commit                    0000000180040164 f   libucrt:commit.obj
 0001:0003fa74       _write                     0000000180040a74 f   libucrt:write.obj
 0001:0003fb60       _write_nolock              0000000180040b60 f   libucrt:write.obj
 0001:0003fe44       _fcloseall                 0000000180040e44 f   libucrt:closeall.obj
 0001:0003fef8       __acrt_stdio_free_buffer_nolock 0000000180040ef8 f   libucrt:_freebuf.obj
 0001:0003ff38       _isatty                    0000000180040f38 f   libucrt:isatty.obj
 0001:0003ff98       _isleadbyte_l              0000000180040f98 f i libucrt:_wctype.obj
 0001:0003ffe4       ?__mbrtowc_utf8@__crt_mbstring@@YA_KPEA_WPEBD_KPEAU_Mbstatet@@@Z 0000000180040fe4 f   libucrt:mbrtowc.obj
 0001:00040020       ?__mbsrtowcs_utf8@__crt_mbstring@@YA_KPEA_WPEAPEBD_KPEAU_Mbstatet@@@Z 0000000180041020 f   libucrt:mbrtowc.obj
 0001:00040198       ?__c32rtomb_utf8@__crt_mbstring@@YA_KPEAD_UPEAU_Mbstatet@@@Z 0000000180041198 f   libucrt:c32rtomb.obj
 0001:0004024c       __acrt_fp_strflt_to_string 000000018004124c f   libucrt:_fptostr.obj
 0001:000403b0       ?divide@__crt_strtox@@YA_KAEAUbig_integer@1@AEBU21@@Z 00000001800413b0 f i libucrt:cfout.obj
 0001:000407dc       __acrt_fltout              00000001800417dc f   libucrt:cfout.obj
 0001:00041aa8       fegetround                 0000000180042aa8 f   libucrt:fegetround.obj
 0001:00041abc       __acrt_locale_free_monetary 0000000180042abc f   libucrt:initmon.obj
 0001:00041bc8       __acrt_locale_free_numeric 0000000180042bc8 f   libucrt:initnum.obj
 0001:00041c8c       __acrt_locale_free_time    0000000180042c8c f   libucrt:inittime.obj
 0001:00041d94       __strncnt                  0000000180042d94 f   libucrt:strncnt.obj
 0001:00041dac       __ascii_wcsnicmp           0000000180042dac f   libucrt:wcsnicmp.obj
 0001:00041df8       _query_app_type            0000000180042df8 f   libucrt:report_runtime_error.obj
 0001:00041e9c       _lseeki64_nolock           0000000180042e9c f   libucrt:lseek.obj
 0001:00041ea4       _putwch_nolock             0000000180042ea4 f   libucrt:putwch.obj
 0001:00041ee0       _fclose_nolock             0000000180042ee0 f   libucrt:fclose.obj
 0001:00041f64       fclose                     0000000180042f64 f   libucrt:fclose.obj
 0001:00041fc8       ?__mbrtoc32_utf8@__crt_mbstring@@YA_KPEA_UPEBD_KPEAU_Mbstatet@@@Z 0000000180042fc8 f   libucrt:mbrtoc32.obj
 0001:000421a0       _controlfp_s               00000001800431a0 f   libucrt:contrlfp.obj
 0001:00042204       fegetenv                   0000000180043204 f   libucrt:fegetenv.obj
 0001:00042224       fesetenv                   0000000180043224 f   libucrt:fesetenv.obj
 0001:00042270       feholdexcept               0000000180043270 f   libucrt:feholdexcept.obj
 0001:000422c0       ceil                       00000001800432c0 f   libucrt:ceil.obj
 0001:00042390       log10                      0000000180043390 f   libucrt:log10.obj
 0001:0004293c       __acrt_fenv_get_common_round_control 000000018004393c f   libucrt:_fenvutils.obj
 0001:00042948       __acrt_fenv_get_control    0000000180043948 f   libucrt:_fenvutils.obj
 0001:00042a3c       __acrt_fenv_get_status     0000000180043a3c f   libucrt:_fenvutils.obj
 0001:00042a90       __acrt_fenv_set_control    0000000180043a90 f   libucrt:_fenvutils.obj
 0001:00042bd8       __acrt_fenv_set_status     0000000180043bd8 f   libucrt:_fenvutils.obj
 0001:00042c5c       __dcrt_lowio_ensure_console_output_initialized 0000000180043c5c f   libucrt:initcon.obj
 0001:00042cb0       __dcrt_terminate_console_output 0000000180043cb0 f   libucrt:initcon.obj
 0001:00042ccc       __dcrt_write_console       0000000180043ccc f   libucrt:initcon.obj
 0001:00042e00       _close                     0000000180043e00 f   libucrt:close.obj
 0001:00042ea4       _close_nolock              0000000180043ea4 f   libucrt:close.obj
 0001:00042f64       ?__acrt_stdio_free_stream@@YAXV__crt_stdio_stream@@@Z 0000000180043f64 f   libucrt:stream.obj
 0001:00042f80       _clearfp                   0000000180043f80 f   libucrt:ieee.obj
 0001:00042ff0       _control87                 0000000180043ff0 f   libucrt:ieee.obj
 0001:000432c0       _log10_special             00000001800442c0 f   libucrt:log_special.obj
 0001:00043380       _FindPESection             0000000180044380 f   LIBCMT:pesect.obj
 0001:000433d0       _IsNonwritableInCurrentImage 00000001800443d0 f   LIBCMT:pesect.obj
 0001:00043420       _ValidateImageBase         0000000180044420 f   LIBCMT:pesect.obj
 0001:00043450       __GSHandlerCheck           0000000180044450 f   LIBCMT:gshandler.obj
 0001:00043470       __GSHandlerCheckCommon     0000000180044470 f   LIBCMT:gshandler.obj
 0001:000434e0       __security_check_cookie    00000001800444e0 f   LIBCMT:amdsecgs.obj
 0001:00043500       __GSHandlerCheck_SEH       0000000180044500 f   LIBCMT:gshandlerseh.obj
 0001:00043588       __raise_securityfailure    0000000180044588 f   LIBCMT:gs_report.obj
 0001:000435bc       __report_gsfailure         00000001800445bc f   LIBCMT:gs_report.obj
 0001:00043690       __report_rangecheckfailure 0000000180044690 f   LIBCMT:gs_report.obj
 0001:000436a4       __report_securityfailure   00000001800446a4 f   LIBCMT:gs_report.obj
 0001:00043824       strrchr                    0000000180044824 f   libvcruntime:strrchr.obj
 0001:00043960       memcmp                     0000000180044960 f   libvcruntime:memcmp.obj
 0001:00043a40       _guard_dispatch_icall_nop  0000000180044a40 f   LIBCMT:guard_dispatch.obj
 0001:00043a60       _guard_xfg_dispatch_icall_nop 0000000180044a60 f   LIBCMT:guard_xfg_dispatch.obj
 0002:00000000       __imp_LoadLibraryA         0000000180045000     kernel32:KERNEL32.dll
 0002:00000008       __imp_WriteConsoleW        0000000180045008     kernel32:KERNEL32.dll
 0002:00000010       __imp_RaiseException       0000000180045010     kernel32:KERNEL32.dll
 0002:00000018       __imp_GetLastError         0000000180045018     kernel32:KERNEL32.dll
 0002:00000020       __imp_GetSystemInfo        0000000180045020     kernel32:KERNEL32.dll
 0002:00000028       __imp_VirtualProtect       0000000180045028     kernel32:KERNEL32.dll
 0002:00000030       __imp_VirtualQuery         0000000180045030     kernel32:KERNEL32.dll
 0002:00000038       __imp_FreeLibrary          0000000180045038     kernel32:KERNEL32.dll
 0002:00000040       __imp_GetModuleHandleW     0000000180045040     kernel32:KERNEL32.dll
 0002:00000048       __imp_GetProcAddress       0000000180045048     kernel32:KERNEL32.dll
 0002:00000050       __imp_LoadLibraryExA       0000000180045050     kernel32:KERNEL32.dll
 0002:00000058       __imp_InitializeSListHead  0000000180045058     kernel32:KERNEL32.dll
 0002:00000060       __imp_QueryPerformanceCounter 0000000180045060     kernel32:KERNEL32.dll
 0002:00000068       __imp_GetCurrentProcessId  0000000180045068     kernel32:KERNEL32.dll
 0002:00000070       __imp_GetCurrentThreadId   0000000180045070     kernel32:KERNEL32.dll
 0002:00000078       __imp_GetSystemTimeAsFileTime 0000000180045078     kernel32:KERNEL32.dll
 0002:00000080       __imp_RtlCaptureContext    0000000180045080     kernel32:KERNEL32.dll
 0002:00000088       __imp_RtlLookupFunctionEntry 0000000180045088     kernel32:KERNEL32.dll
 0002:00000090       __imp_RtlVirtualUnwind     0000000180045090     kernel32:KERNEL32.dll
 0002:00000098       __imp_IsDebuggerPresent    0000000180045098     kernel32:KERNEL32.dll
 0002:000000a0       __imp_UnhandledExceptionFilter 00000001800450a0     kernel32:KERNEL32.dll
 0002:000000a8       __imp_SetUnhandledExceptionFilter 00000001800450a8     kernel32:KERNEL32.dll
 0002:000000b0       __imp_GetStartupInfoW      00000001800450b0     kernel32:KERNEL32.dll
 0002:000000b8       __imp_IsProcessorFeaturePresent 00000001800450b8     kernel32:KERNEL32.dll
 0002:000000c0       __imp_InterlockedPushEntrySList 00000001800450c0     kernel32:KERNEL32.dll
 0002:000000c8       __imp_InterlockedFlushSList 00000001800450c8     kernel32:KERNEL32.dll
 0002:000000d0       __imp_RtlUnwindEx          00000001800450d0     kernel32:KERNEL32.dll
 0002:000000d8       __imp_SetLastError         00000001800450d8     kernel32:KERNEL32.dll
 0002:000000e0       __imp_EnterCriticalSection 00000001800450e0     kernel32:KERNEL32.dll
 0002:000000e8       __imp_LeaveCriticalSection 00000001800450e8     kernel32:KERNEL32.dll
 0002:000000f0       __imp_DeleteCriticalSection 00000001800450f0     kernel32:KERNEL32.dll
 0002:000000f8       __imp_InitializeCriticalSectionAndSpinCount 00000001800450f8     kernel32:KERNEL32.dll
 0002:00000100       __imp_TlsAlloc             0000000180045100     kernel32:KERNEL32.dll
 0002:00000108       __imp_TlsGetValue          0000000180045108     kernel32:KERNEL32.dll
 0002:00000110       __imp_TlsSetValue          0000000180045110     kernel32:KERNEL32.dll
 0002:00000118       __imp_TlsFree              0000000180045118     kernel32:KERNEL32.dll
 0002:00000120       __imp_LoadLibraryExW       0000000180045120     kernel32:KERNEL32.dll
 0002:00000128       __imp_EncodePointer        0000000180045128     kernel32:KERNEL32.dll
 0002:00000130       __imp_RtlPcToFileHeader    0000000180045130     kernel32:KERNEL32.dll
 0002:00000138       __imp_GetCurrentProcess    0000000180045138     kernel32:KERNEL32.dll
 0002:00000140       __imp_ExitProcess          0000000180045140     kernel32:KERNEL32.dll
 0002:00000148       __imp_TerminateProcess     0000000180045148     kernel32:KERNEL32.dll
 0002:00000150       __imp_GetModuleHandleExW   0000000180045150     kernel32:KERNEL32.dll
 0002:00000158       __imp_GetModuleFileNameW   0000000180045158     kernel32:KERNEL32.dll
 0002:00000160       __imp_HeapFree             0000000180045160     kernel32:KERNEL32.dll
 0002:00000168       __imp_HeapAlloc            0000000180045168     kernel32:KERNEL32.dll
 0002:00000170       __imp_FindClose            0000000180045170     kernel32:KERNEL32.dll
 0002:00000178       __imp_FindFirstFileExW     0000000180045178     kernel32:KERNEL32.dll
 0002:00000180       __imp_FindNextFileW        0000000180045180     kernel32:KERNEL32.dll
 0002:00000188       __imp_IsValidCodePage      0000000180045188     kernel32:KERNEL32.dll
 0002:00000190       __imp_GetACP               0000000180045190     kernel32:KERNEL32.dll
 0002:00000198       __imp_GetOEMCP             0000000180045198     kernel32:KERNEL32.dll
 0002:000001a0       __imp_GetCPInfo            00000001800451a0     kernel32:KERNEL32.dll
 0002:000001a8       __imp_GetCommandLineA      00000001800451a8     kernel32:KERNEL32.dll
 0002:000001b0       __imp_GetCommandLineW      00000001800451b0     kernel32:KERNEL32.dll
 0002:000001b8       __imp_MultiByteToWideChar  00000001800451b8     kernel32:KERNEL32.dll
 0002:000001c0       __imp_WideCharToMultiByte  00000001800451c0     kernel32:KERNEL32.dll
 0002:000001c8       __imp_GetEnvironmentStringsW 00000001800451c8     kernel32:KERNEL32.dll
 0002:000001d0       __imp_FreeEnvironmentStringsW 00000001800451d0     kernel32:KERNEL32.dll
 0002:000001d8       __imp_LCMapStringW         00000001800451d8     kernel32:KERNEL32.dll
 0002:000001e0       __imp_GetProcessHeap       00000001800451e0     kernel32:KERNEL32.dll
 0002:000001e8       __imp_GetStdHandle         00000001800451e8     kernel32:KERNEL32.dll
 0002:000001f0       __imp_GetFileType          00000001800451f0     kernel32:KERNEL32.dll
 0002:000001f8       __imp_GetStringTypeW       00000001800451f8     kernel32:KERNEL32.dll
 0002:00000200       __imp_HeapSize             0000000180045200     kernel32:KERNEL32.dll
 0002:00000208       __imp_HeapReAlloc          0000000180045208     kernel32:KERNEL32.dll
 0002:00000210       __imp_SetStdHandle         0000000180045210     kernel32:KERNEL32.dll
 0002:00000218       __imp_FlushFileBuffers     0000000180045218     kernel32:KERNEL32.dll
 0002:00000220       __imp_WriteFile            0000000180045220     kernel32:KERNEL32.dll
 0002:00000228       __imp_GetConsoleOutputCP   0000000180045228     kernel32:KERNEL32.dll
 0002:00000230       __imp_GetConsoleMode       0000000180045230     kernel32:KERNEL32.dll
 0002:00000238       __imp_SetFilePointerEx     0000000180045238     kernel32:KERNEL32.dll
 0002:00000240       __imp_CreateFileW          0000000180045240     kernel32:KERNEL32.dll
 0002:00000248       __imp_CloseHandle          0000000180045248     kernel32:KERNEL32.dll
 0002:00000250       \177KERNEL32_NULL_THUNK_DATA 0000000180045250     kernel32:KERNEL32.dll
 0002:00000258       __guard_check_icall_fptr   0000000180045258     LIBCMT:guard_support.obj
 0002:00000260       __guard_xfg_check_icall_fptr 0000000180045260     LIBCMT:guard_support.obj
 0002:00000268       __guard_dispatch_icall_fptr 0000000180045268     LIBCMT:guard_support.obj
 0002:00000270       __guard_xfg_dispatch_icall_fptr 0000000180045270     LIBCMT:guard_support.obj
 0002:00000278       __guard_xfg_table_dispatch_icall_fptr 0000000180045278     LIBCMT:guard_support.obj
 0002:00000280       __xc_a                     0000000180045280     LIBCMT:initializers.obj
 0002:00000468       __xc_z                     0000000180045468     LIBCMT:initializers.obj
 0002:00000470       __xi_a                     0000000180045470     LIBCMT:initializers.obj
 0002:00000478       __acrt_tran_fma3_initializer 0000000180045478     libucrt:fma3_initializer.obj
 0002:00000480       __acrt_multibyte_initializer 0000000180045480     libucrt:multibyte_initializer.obj
 0002:00000488       __acrt_stdio_initializer   0000000180045488     libucrt:stdio_initializer.obj
 0002:00000490       __xi_z                     0000000180045490     LIBCMT:initializers.obj
 0002:00000498       __xp_a                     0000000180045498     LIBCMT:initializers.obj
 0002:000004a0       __acrt_locale_terminator   00000001800454a0     libucrt:locale_initializer.obj
 0002:000004a8       __dcrt_console_output_terminator 00000001800454a8     libucrt:console_output_initializer.obj
 0002:000004b0       __acrt_stdio_terminator    00000001800454b0     libucrt:stdio_initializer.obj
 0002:000004b8       __xp_z                     00000001800454b8     LIBCMT:initializers.obj
 0002:000004c0       __xt_a                     00000001800454c0     LIBCMT:initializers.obj
 0002:000004c8       __xt_z                     00000001800454c8     LIBCMT:initializers.obj
 0002:000004d0       ??_7PxFoundation@physx@@6B@ 00000001800454d0     Adjacencies.obj
 0002:00000510       ??_C@_0FK@JBBMKMDI@C?3?2Users?2Timo?2Downloads?2PhysX?94@ 0000000180045510     Adjacencies.obj
 0002:00000570       ??_C@_0DA@FMEHLBKI@Adjacencies?3?3UpdateLink?3?5invali@ 0000000180045570     Adjacencies.obj
 0002:000005a0       ??_C@_0EA@CPHOACLK@Adjacencies?3?3CreateDatabase?3?5ca@ 00000001800455a0     Adjacencies.obj
 0002:000005e0       ??_C@_0BM@OIFKLHDN@?$DMallocation?5names?5disabled?$DO@ 00000001800455e0     Adjacencies.obj
 0002:00000620       ?sBufferSize@DebugText@Cm@physx@@2HB 0000000180045620     Cooking.obj
 0002:00000624       ??_C@_06EJKDJEDO@PxBase@   0000000180045624     Cooking.obj
 0002:00000630       ??_C@_0N@CDGINLLF@PxConvexMesh@ 0000000180045630     Cooking.obj
 0002:00000640       ??_C@_0O@PBAKPCEC@PxHeightField@ 0000000180045640     Cooking.obj
 0002:00000650       ??_7PxBase@physx@@6B@      0000000180045650     Cooking.obj
 0002:00000678       ??_7PxCooking@physx@@6B@   0000000180045678     Cooking.obj
 0002:000006f8       ??_7Cooking@physx@@6B@     00000001800456f8     Cooking.obj
 0002:00000780       ??_C@_0FC@PJIHAFK@Cooking?3?3validateTriangleMesh?3?5@ 0000000180045780     Cooking.obj
 0002:000007e0       ??_C@_0FG@GFHICNKI@C?3?2Users?2Timo?2Downloads?2PhysX?94@ 00000001800457e0     Cooking.obj
 0002:00000840       ??_C@_0EK@EKAIJEBL@Cooking?3?3cookConvexMesh?3?5user?9p@ 0000000180045840     Cooking.obj
 0002:00000890       ??_C@_0FA@GFFGAPML@Cooking?3?3cookConvexMesh?3?5provid@ 0000000180045890     Cooking.obj
 0002:000008e0       ??_C@_0EP@PKDCPNNO@Cooking?3?3cookConvexMesh?3?5provid@ 00000001800458e0     Cooking.obj
 0002:00000930       ??_C@_0EO@LKFMMDE@Cooking?3?3cookConvexMesh?3?5user?9p@ 0000000180045930     Cooking.obj
 0002:00000980       ??_C@_0EN@FCEPCAFC@Cooking?3?3createHeightField?3?5use@ 0000000180045980     Cooking.obj
 0002:000009d0       ??_C@_0FG@GOBAEJMF@C?3?2Users?2Timo?2Downloads?2PhysX?94@ 00000001800459d0     Cooking.obj
 0002:00000a28       __real@3f800000            0000000180045a28     Cooking.obj
 0002:00000a30       __xmm@000000003a83126f3a83126f3a83126f 0000000180045a30     Cooking.obj
 0002:00000a40       __xmm@00000000ba83126fba83126fba83126f 0000000180045a40     Cooking.obj
 0002:00000a50       __xmm@3a83126f3a83126f3a83126f3a83126f 0000000180045a50     Cooking.obj
 0002:00000a60       __xmm@80000000800000008000000080000000 0000000180045a60     Cooking.obj
 0002:00000a70       __xmm@ba83126fba83126fba83126fba83126f 0000000180045a70     Cooking.obj
 0002:00000a80       __xmm@cdcdcdcdcdcdcdcdcdcdcdcdcdcdcdcd 0000000180045a80     Cooking.obj
 0002:00000a90       ??_C@_0FL@PEPPCPJC@C?3?2Users?2Timo?2Downloads?2PhysX?94@ 0000000180045a90     CookingUtils.obj
 0002:00000aec       ??_C@_06KDGGGLIJ@PxVec3@   0000000180045aec     CookingUtils.obj
 0002:00000af8       ??_C@_08MOINBLFP@EdgeData@ 0000000180045af8     EdgeList.obj
 0002:00000b10       ??_C@_0FH@JMMCLJBE@C?3?2Users?2Timo?2Downloads?2PhysX?94@ 0000000180045b10     EdgeList.obj
 0002:00000b68       ??_C@_0N@HMDODPCO@EdgeDescData@ 0000000180045b68     EdgeList.obj
 0002:00000b78       ??_C@_0CO@GBNJFPN@EdgeList?3?3CreateFacesToEdges?3?5N@ 0000000180045b78     EdgeList.obj
 0002:00000ba8       ??_C@_0BN@EPPJDECF@EdgeListBuilder?5FacesByEdges@ 0000000180045ba8     EdgeList.obj
 0002:00000bc8       ??_C@_0CO@EHJBBMNK@EdgeList?3?3ComputeActiveEdges?3?5N@ 0000000180045bc8     EdgeList.obj
 0002:00000bf8       ??_C@_0DI@GBHLFOFP@ActiveEdges?3?3ComputeConvexEdges@ 0000000180045bf8     EdgeList.obj
 0002:00000c30       ??_C@_0DM@JOGBLHDI@ActiveEdges?3?3ComputeConvexEdges@ 0000000180045c30     EdgeList.obj
 0002:00000c70       ??_C@_0ED@FEMJKPEL@ActiveEdges?3?3ComputeConvexEdges@ 0000000180045c70     EdgeList.obj
 0002:00000cc0       ??_C@_0EB@BFDPMFCD@ActiveEdges?3?3ComputeConvexEdges@ 0000000180045cc0     EdgeList.obj
 0002:00000d04       ??_C@_04DDKJGDCM@bool@     0000000180045d04     EdgeList.obj
 0002:00000d0c       __real@bf7fbe77            0000000180045d0c     EdgeList.obj
 0002:00000d10       __xmm@7fffffff7fffffff7fffffff7fffffff 0000000180045d10     EdgeList.obj
 0002:00000d20       ??_C@_0M@GOCDBJNH@MeshCleaner@ 0000000180045d20     MeshCleaner.obj
 0002:00000d30       ??_C@_0FK@LEEHIBGM@C?3?2Users?2Timo?2Downloads?2PhysX?94@ 0000000180045d30     MeshCleaner.obj
 0002:00000d8c       __real@3f000000            0000000180045d8c     MeshCleaner.obj
 0002:00000d90       ??_7Quantizer@physx@@6B@   0000000180045d90     Quantizer.obj
 0002:00000db8       ??_7QuantizerImpl@@6B@     0000000180045db8     Quantizer.obj
 0002:00000de0       ??_C@_0FI@NDKLGDCG@C?3?2Users?2Timo?2Downloads?2PhysX?94@ 0000000180045de0     Quantizer.obj
 0002:00000e38       ??_C@_05LMJPANIN@PxU32@    0000000180045e38     Quantizer.obj
 0002:00000e40       __real@38d1b717            0000000180045e40     Quantizer.obj
 0002:00000e44       __real@3c23d70a            0000000180045e44     Quantizer.obj
 0002:00000e48       __real@3f0020c5            0000000180045e48     Quantizer.obj
 0002:00000e4c       __real@3f8020c5            0000000180045e4c     Quantizer.obj
 0002:00000e50       __real@7f7fffff            0000000180045e50     Quantizer.obj
 0002:00000e54       __real@fe7fffff            0000000180045e54     Quantizer.obj
 0002:00000e60       __xmm@fe7fffff7e7fffff7e7fffff7e7fffff 0000000180045e60     Quantizer.obj
 0002:00000e90       ??_C@_09JDCJAPKD@PxBounds3@ 0000000180045e90     BVHStructureBuilder.obj
 0002:00000ea0       ??_C@_0GC@PFOBEEFK@C?3?2Users?2Timo?2Downloads?2PhysX?94@ 0000000180045ea0     BVHStructureBuilder.obj
 0002:00000f08       ??_C@_0BA@KPLGFFHA@AABB?5tree?5nodes@ 0000000180045f08     BVHStructureBuilder.obj
 0002:00000f20       __xmm@3ba3d70a3ba3d70a3ba3d70a3ba3d70a 0000000180045f20     BVHStructureBuilder.obj
 0002:00000f50       ?reductionFactors@SubSortQuick@physx@@2QBMB 0000000180045f50     RTreeCooking.obj
 0002:00000f60       ?stopAtTrisPerLeaf1@SubSortQuick@physx@@2QBIB 0000000180045f60     RTreeCooking.obj
 0002:00001008       ??_C@_0BA@DLCJDKDM@NonTrackedAlloc@ 0000000180046008     RTreeCooking.obj
 0002:00001018       ??_C@_07ELGPMHDP@metricL@  0000000180046018     RTreeCooking.obj
 0002:00001020       ??_C@_0GA@HHCFDJFC@C?3?2Users?2Timo?2Downloads?2PhysX?94@ 0000000180046020     RTreeCooking.obj
 0002:00001080       ??_C@_07JPCOPIOA@metricR@  0000000180046080     RTreeCooking.obj
 0002:00001088       ??_C@_0M@OKCMHFAG@tempPermute@ 0000000180046088     RTreeCooking.obj
 0002:00001098       ??_C@_09CMNIGKAE@tempRanks@ 0000000180046098     RTreeCooking.obj
 0002:000010b0       ??_C@_0FF@NPDICAEE@C?3?2Users?2Timo?2Downloads?2PhysX?94@ 00000001800460b0     RTreeCooking.obj
 0002:00001110       ??_C@_0FO@BDCOLJIO@C?3?2Users?2Timo?2Downloads?2PhysX?94@ 0000000180046110     RTreeCooking.obj
 0002:00001170       __real@37800080            0000000180046170     RTreeCooking.obj
 0002:00001174       __real@41100000            0000000180046174     RTreeCooking.obj
 0002:00001178       __real@41700000            0000000180046178     RTreeCooking.obj
 0002:0000117c       __real@42200000            000000018004617c     RTreeCooking.obj
 0002:00001180       __real@ff7fffff            0000000180046180     RTreeCooking.obj
 0002:00001190       __xmm@00000004000000030000000200000001 0000000180046190     RTreeCooking.obj
 0002:000011a0       __xmm@3a03126f3a03126f3a03126f3a03126f 00000001800461a0     RTreeCooking.obj
 0002:000011b0       __xmm@7f7fffff7f7fffff7f7fffff7f7fffff 00000001800461b0     RTreeCooking.obj
 0002:000011c0       __xmm@ff7fffffff7fffffff7fffffff7fffff 00000001800461c0     RTreeCooking.obj
 0002:000011f0       __real@34800000            00000001800461f0     MeshBuilder.obj
 0002:00001220       ??_7MeshDataBase@Gu@physx@@6B@ 0000000180046220     TriangleMeshBuilder.obj
 0002:00001230       ??_C@_0FJ@FJODAJDM@C?3?2Users?2Timo?2Downloads?2PhysX?94@ 0000000180046230     TriangleMeshBuilder.obj
 0002:00001290       ??_7TriangleMeshData@Gu@physx@@6B@ 0000000180046290     TriangleMeshBuilder.obj
 0002:00001298       ??_C@_0L@KBOFAKLO@mTriangles@ 0000000180046298     TriangleMeshBuilder.obj
 0002:000012a8       ??_C@_0BA@OCOIGPII@mGRB_triIndices@ 00000001800462a8     TriangleMeshBuilder.obj
 0002:000012b8       ??_7RTreeTriangleData@Gu@physx@@6B@ 00000001800462b8     TriangleMeshBuilder.obj
 0002:000012c0       ??_7BV4TriangleData@Gu@physx@@6B@ 00000001800462c0     TriangleMeshBuilder.obj
 0002:000012c8       ??_7RemapCallback@RTreeCooker@physx@@6B@ 00000001800462c8     TriangleMeshBuilder.obj
 0002:000012d8       ??_7TriangleMeshBuilder@physx@@6B@ 00000001800462d8     TriangleMeshBuilder.obj
 0002:00001300       ??_7RTreeTriangleMeshBuilder@physx@@6B@ 0000000180046300     TriangleMeshBuilder.obj
 0002:00001328       ??_7BV4TriangleMeshBuilder@physx@@6B@ 0000000180046328     TriangleMeshBuilder.obj
 0002:00001350       ??_C@_0M@OJJHBOGG@edgeLookups@ 0000000180046350     TriangleMeshBuilder.obj
 0002:00001360       ??_C@_0GI@IBECELKO@C?3?2Users?2Timo?2Downloads?2PhysX?94@ 0000000180046360     TriangleMeshBuilder.obj
 0002:000013c8       ??_C@_0BF@CCKBOJFO@Gu?3?3TriangleT?$DMPxU32?$DO@ 00000001800463c8     TriangleMeshBuilder.obj
 0002:000013e0       ??_C@_0GH@MDLLDCMJ@C?3?2Users?2Timo?2Downloads?2PhysX?94@ 00000001800463e0     TriangleMeshBuilder.obj
 0002:00001448       ??_C@_0DJ@IGODLHLP@TriangleMesh?3?5Enable?5mesh?5weldi@ 0000000180046448     TriangleMeshBuilder.obj
 0002:00001490       ??_C@_0FJ@HHJLKGDF@TriangleMesh?3?5triangles?5are?5too@ 0000000180046490     TriangleMeshBuilder.obj
 0002:000014f0       ??_C@_0CN@KGPHHHLK@TriangleMesh?3?5mesh?5is?5too?5big?5f@ 00000001800464f0     TriangleMeshBuilder.obj
 0002:00001520       ??_C@_0BL@DLEDFNFP@tempNormalsPerTri_prealloc@ 0000000180046520     TriangleMeshBuilder.obj
 0002:00001540       ??_C@_0BD@NDAFHHFF@GRB_triAdjacencies@ 0000000180046540     TriangleMeshBuilder.obj
 0002:00001558       ??_C@_0DD@CMJGDCNN@TriangleMesh?3?3loadFromDesc?3?5des@ 0000000180046558     TriangleMeshBuilder.obj
 0002:00001590       ??_C@_0ED@ILJJNHIP@TriangleMesh?3?3loadFromDesc?3?5mPa@ 0000000180046590     TriangleMeshBuilder.obj
 0002:000015d8       ??_C@_0CK@BJFFGDPK@input?5mesh?5contains?5corrupted?5v@ 00000001800465d8     TriangleMeshBuilder.obj
 0002:00001608       ??_C@_0BJ@BKHDBBHO@cleaning?5the?5mesh?5failed@ 0000000180046608     TriangleMeshBuilder.obj
 0002:00001628       ??_C@_0BK@JIDHMMCE@BV4?5tree?5failed?5to?5build?4@ 0000000180046628     TriangleMeshBuilder.obj
 0002:00001648       ??_C@_0BL@DHNECNBE@BV32?5tree?5failed?5to?5build?4@ 0000000180046648     TriangleMeshBuilder.obj
 0002:00001668       ??_7RTreeCookerRemap@physx@@6B@ 0000000180046668     TriangleMeshBuilder.obj
 0002:00001678       __real@3951b717            0000000180046678     TriangleMeshBuilder.obj
 0002:0000167c       __real@3dcccccd            000000018004667c     TriangleMeshBuilder.obj
 0002:00001680       __real@48742400            0000000180046680     TriangleMeshBuilder.obj
 0002:00001690       __xmm@00000003000000020000000100000000 0000000180046690     TriangleMeshBuilder.obj
 0002:000016c0       ??_C@_0GK@BCNKMMEJ@C?3?2Users?2Timo?2Downloads?2PhysX?94@ 00000001800466c0     BigConvexDataBuilder.obj
 0002:00001730       ??_C@_0BD@PGLLAGCI@BigConvexData?5data@ 0000000180046730     BigConvexDataBuilder.obj
 0002:00001744       __real@40000000            0000000180046744     BigConvexDataBuilder.obj
 0002:00001770       ??_C@_0GH@FBAFNAKM@C?3?2Users?2Timo?2Downloads?2PhysX?94@ 0000000180046770     ConvexHullBuilder.obj
 0002:000017e0       ??_C@_0EB@DCEIFDGC@ConvexHullBuilder?3?3init?3?5convex@ 00000001800467e0     ConvexHullBuilder.obj
 0002:00001828       ??_C@_0BE@KOOOMNLC@Gu?3?3HullPolygonData@ 0000000180046828     ConvexHullBuilder.obj
 0002:00001840       ??_C@_0FM@KICBLCBH@Gu?3?3ConvexMesh?3?3checkHullPolygo@ 0000000180046840     ConvexHullBuilder.obj
 0002:000018a0       ??_C@_0GO@HBFIOGLL@Gu?3?3ConvexMesh?3?3checkHullPolygo@ 00000001800468a0     ConvexHullBuilder.obj
 0002:00001910       ??_C@_0BE@EJGGFHND@ConvexHullData?5data@ 0000000180046910     ConvexHullBuilder.obj
 0002:00001930       ??_C@_0HF@OLJFBIEL@ConvexHullBuilder?3?5convex?5hull?5@ 0000000180046930     ConvexHullBuilder.obj
 0002:000019b0       ??_C@_0OG@JNHFOIL@ConvexHullBuilder?3?5convex?5hull?5@ 00000001800469b0     ConvexHullBuilder.obj
 0002:00001aa0       ??_C@_0EJ@NIOIBAKH@Cooking?3?3cookConvexMesh?3?5non?9ma@ 0000000180046aa0     ConvexHullBuilder.obj
 0002:00001aec       __real@3ca3d70a            0000000180046aec     ConvexHullBuilder.obj
 0002:00001af0       __real@3eaaaaab            0000000180046af0     ConvexHullBuilder.obj
 0002:00001af8       ??_7ConvexHullLib@physx@@6B@ 0000000180046af8     ConvexHullLib.obj
 0002:00001b20       ??_C@_0GD@EMKNPFAH@C?3?2Users?2Timo?2Downloads?2PhysX?94@ 0000000180046b20     ConvexHullLib.obj
 0002:00001b90       ??_C@_0JE@PABBNGEL@ConvexHullLib?3?3cleanupVertices?3@ 0000000180046b90     ConvexHullLib.obj
 0002:00001c24       __real@358637bd            0000000180046c24     ConvexHullLib.obj
 0002:00001c28       __real@3d4ccccd            0000000180046c28     ConvexHullLib.obj
 0002:00001c50       ??_C@_0GF@DHMLDBBN@C?3?2Users?2Timo?2Downloads?2PhysX?94@ 0000000180046c50     ConvexHullUtils.obj
 0002:00001cb8       ??_C@_04NCKNBPPK@PxU8@     0000000180046cb8     ConvexHullUtils.obj
 0002:00001cc0       ??_C@_05CDCIKCPI@Vec4V@    0000000180046cc0     ConvexHullUtils.obj
 0002:00001cc8       __real@3e20d97c            0000000180046cc8     ConvexHullUtils.obj
 0002:00001cd0       __xmm@00800000008000000080000000800000 0000000180046cd0     ConvexHullUtils.obj
 0002:00001ce0       __xmm@3f0000003f0000003f0000003f000000 0000000180046ce0     ConvexHullUtils.obj
 0002:00001cf0       __xmm@bf000000bf000000bf000000bf000000 0000000180046cf0     ConvexHullUtils.obj
 0002:00001d20       ??_C@_0DF@LLFJIJGM@Gu?3?3ConvexMesh?3?3loadFromDesc?3?5d@ 0000000180046d20     ConvexMeshBuilder.obj
 0002:00001d60       ??_C@_0GH@JPKBHAPJ@C?3?2Users?2Timo?2Downloads?2PhysX?94@ 0000000180046d60     ConvexMeshBuilder.obj
 0002:00001dd0       ??_C@_0HK@JOGKIEAA@Gu?3?3ConvexMesh?3?5Mesh?5has?5a?5nega@ 0000000180046dd0     ConvexMeshBuilder.obj
 0002:00001e50       ??_C@_0DH@NJPPHFFD@Gu?3?3ConvexMesh?3?5Error?5computing@ 0000000180046e50     ConvexMeshBuilder.obj
 0002:00001e88       ??_C@_0DJ@LJDLGLDJ@Gu?3?3ConvexMesh?3?3loadConvexHull?3@ 0000000180046e88     ConvexMeshBuilder.obj
 0002:00001ed0       ??_C@_0HJ@KJANPPOE@ConvexMeshBuilder?3?3computeHullP@ 0000000180046ed0     ConvexMeshBuilder.obj
 0002:00001f50       ??_C@_0O@JMAGMMGG@PxHullPolygon@ 0000000180046f50     ConvexMeshBuilder.obj
 0002:00001f60       __real@33d6bf95            0000000180046f60     ConvexMeshBuilder.obj
 0002:00001f64       __real@3f13cd3a            0000000180046f64     ConvexMeshBuilder.obj
 0002:00001f68       __real@b3d6bf95            0000000180046f68     ConvexMeshBuilder.obj
 0002:00001f6c       __real@bf800000            0000000180046f6c     ConvexMeshBuilder.obj
 0002:00001f70       __xmm@80000000000000008000000000000000 0000000180046f70     ConvexMeshBuilder.obj
 0002:00001f80       ??_C@_0DP@PJBJBEGF@Meshmerizer?3?3extractHullPolygon@ 0000000180046f80     ConvexPolygonsBuilder.obj
 0002:00001fc0       ??_C@_0GL@ILLMJLLH@C?3?2Users?2Timo?2Downloads?2PhysX?94@ 0000000180046fc0     ConvexPolygonsBuilder.obj
 0002:00002030       ??_C@_0BL@MFNKFFFN@Reduced?5vertices?5hull?5data@ 0000000180047030     ConvexPolygonsBuilder.obj
 0002:00002050       ??_C@_0DL@IAFKOCCK@ConvexHullBuilder?3?5convex?5hull?5@ 0000000180047050     ConvexPolygonsBuilder.obj
 0002:00002090       ??_C@_0GF@OJLJHAMH@ConvexHullBuilder?3?3CreateTriang@ 0000000180047090     ConvexPolygonsBuilder.obj
 0002:000020f8       __real@3ba3d70a            00000001800470f8     ConvexPolygonsBuilder.obj
 0002:00002100       ??_7QuickHullConvexHullLib@physx@@6B@ 0000000180047100     QuickHullConvexHullLib.obj
 0002:00002120       ??_C@_0BA@BPKNMKIA@QuickHullVertex@ 0000000180047120     QuickHullConvexHullLib.obj
 0002:00002130       ??_C@_0GM@LOAPLBKA@C?3?2Users?2Timo?2Downloads?2PhysX?94@ 0000000180047130     QuickHullConvexHullLib.obj
 0002:000021a0       ??_C@_0GA@EPPAEJPM@QuickHullConvexHullLib?3?3findSim@ 00000001800471a0     QuickHullConvexHullLib.obj
 0002:00002200       ??_C@_0FB@NEBIJMML@QuickHullConvexHullLib?3?3findSim@ 0000000180047200     QuickHullConvexHullLib.obj
 0002:00002260       ??_C@_0FB@CLLCBEMM@QuickHullConvexHullLib?3?3findSim@ 0000000180047260     QuickHullConvexHullLib.obj
 0002:000022b8       ??_C@_0P@OFIBMBPE@ConvexMeshDesc@ 00000001800472b8     QuickHullConvexHullLib.obj
 0002:000022c8       ??_C@_0BD@NDHBJDBB@Quickhull?5MemBlock@ 00000001800472c8     QuickHullConvexHullLib.obj
 0002:000022dc       __real@34c00000            00000001800472dc     QuickHullConvexHullLib.obj
 0002:000022e0       __real@3e800000            00000001800472e0     QuickHullConvexHullLib.obj
 0002:00002310       __real@00000000            0000000180047310     VolumeIntegration.obj
 0002:00002318       __real@3fe0000000000000    0000000180047318     VolumeIntegration.obj
 0002:00002320       __real@3ff0000000000000    0000000180047320     VolumeIntegration.obj
 0002:00002330       __xmm@3c0888893c0888893c0888893c088889 0000000180047330     VolumeIntegration.obj
 0002:00002340       __xmm@3c8888893c8888893c8888893c888889 0000000180047340     VolumeIntegration.obj
 0002:00002350       __xmm@3d2aaaab3d2aaaab3d2aaaab3d2aaaab 0000000180047350     VolumeIntegration.obj
 0002:00002360       __xmm@3e2aaaab3e2aaaab3e2aaaab3e2aaaab 0000000180047360     VolumeIntegration.obj
 0002:00002370       __xmm@3f811111111111113f81111111111111 0000000180047370     VolumeIntegration.obj
 0002:00002380       __xmm@3f811111111111113f91111111111111 0000000180047380     VolumeIntegration.obj
 0002:00002390       __xmm@3f911111111111113f91111111111111 0000000180047390     VolumeIntegration.obj
 0002:000023a0       __xmm@3fa55555555555553fa5555555555555 00000001800473a0     VolumeIntegration.obj
 0002:000023b0       __xmm@3fa55555555555553fc5555555555555 00000001800473b0     VolumeIntegration.obj
 0002:000023c0       ??_C@_0BA@EGLNOO@PhysXFoundation@ 00000001800473c0     WindowsCookingDelayLoadHook.obj
 0002:000023d0       ??_C@_0M@ILKNCJKN@PhysXCommon@ 00000001800473d0     WindowsCookingDelayLoadHook.obj
 0002:000023e0       __sz_PhysXCommon_64_dll    00000001800473e0     PhysXCommon_64:PhysXCommon_64.dll
 0002:00002400       __sz_PhysXFoundation_64_dll 0000000180047400     PhysXFoundation_64:PhysXFoundation_64.dll
 0002:00002418       ??_C@_1BK@DBDEIDLH@?$AAK?$AAE?$AAR?$AAN?$AAE?$AAL?$AA3?$AA2?$AA?4?$AAD?$AAL?$AAL@ 0000000180047418     Delayimp:delayhlp.obj
 0002:00002438       ??_C@_0BI@OMNLIJDB@AcquireSRWLockExclusive@ 0000000180047438     Delayimp:delayhlp.obj
 0002:00002450       ??_C@_0BI@HMIEPCNJ@ReleaseSRWLockExclusive@ 0000000180047450     Delayimp:delayhlp.obj
 0002:00002468       __pfnDliFailureHook2       0000000180047468     Delayimp:delayhk1.obj
 0002:00002478       ??_7type_info@@6B@         0000000180047478     LIBCMT:std_type_info_static.obj
 0002:000024e0       _pRawDllMain               00000001800474e0     LIBCMT:dll_dllmain.obj
 0002:000024e0       _pDefaultRawDllMain        00000001800474e0     LIBCMT:dll_dllmain.obj
 0002:000024f0       _load_config_used          00000001800474f0     LIBCMT:loadcfg.obj
 0002:00002630       __xmm@ffffffffffffffffffffffffffffffff 0000000180047630     LIBCMT:utility.obj
 0002:00002640       _pDestructExceptionObject  0000000180047640     libvcruntime:ehhelpers.obj
 0002:00002d50       ??_C@_08EHJDFFNH@__based?$CI@ 0000000180047d50     libvcruntime:undname.obj
 0002:00002d60       ??_C@_07KOLFKCDI@__cdecl@  0000000180047d60     libvcruntime:undname.obj
 0002:00002d68       ??_C@_08GHMPAG@__pascal@   0000000180047d68     libvcruntime:undname.obj
 0002:00002d78       ??_C@_09IFJBGAPI@__stdcall@ 0000000180047d78     libvcruntime:undname.obj
 0002:00002d88       ??_C@_0L@NPHFGOKO@__thiscall@ 0000000180047d88     libvcruntime:undname.obj
 0002:00002d98       ??_C@_0L@JMKHOMEK@__fastcall@ 0000000180047d98     libvcruntime:undname.obj
 0002:00002da8       ??_C@_0N@BCKKPABJ@__vectorcall@ 0000000180047da8     libvcruntime:undname.obj
 0002:00002db8       ??_C@_09HIJEGCPM@__clrcall@ 0000000180047db8     libvcruntime:undname.obj
 0002:00002dc4       ??_C@_06GHPCKEAG@__eabi@   0000000180047dc4     libvcruntime:undname.obj
 0002:00002dd0       ??_C@_09IOPIDJLG@__swift_1@ 0000000180047dd0     libvcruntime:undname.obj
 0002:00002de0       ??_C@_09KFNFGKHF@__swift_2@ 0000000180047de0     libvcruntime:undname.obj
 0002:00002df0       ??_C@_07JOMMBBKO@__ptr64@  0000000180047df0     libvcruntime:undname.obj
 0002:00002df8       ??_C@_0L@PILCLIHE@__restrict@ 0000000180047df8     libvcruntime:undname.obj
 0002:00002e08       ??_C@_0M@GFIIJFMG@__unaligned@ 0000000180047e08     libvcruntime:undname.obj
 0002:00002e18       ??_C@_09DHDLOLLB@restrict?$CI@ 0000000180047e18     libvcruntime:undname.obj
 0002:00002e22       ??_C@_00CNPNBAHC@@         0000000180047e22     libvcruntime:undname.obj
 0002:00002e24       ??_C@_04NIHEBCM@?5new@     0000000180047e24     libvcruntime:undname.obj
 0002:00002e30       ??_C@_07FPCDHGMM@?5delete@ 0000000180047e30     libvcruntime:undname.obj
 0002:00002e38       ??_C@_01NEMOKFLO@?$DN@     0000000180047e38     libvcruntime:undname.obj
 0002:00002e3c       ??_C@_02GPIOPFAK@?$DO?$DO@ 0000000180047e3c     libvcruntime:undname.obj
 0002:00002e40       ??_C@_02FODMEDOG@?$DM?$DM@ 0000000180047e40     libvcruntime:undname.obj
 0002:00002e44       ??_C@_01DCLJPIOD@?$CB@     0000000180047e44     libvcruntime:undname.obj
 0002:00002e48       ??_C@_02EGOFBIJA@?$DN?$DN@ 0000000180047e48     libvcruntime:undname.obj
 0002:00002e4c       ??_C@_02FDNJECIE@?$CB?$DN@ 0000000180047e4c     libvcruntime:undname.obj
 0002:00002e50       ??_C@_02GPECMEKF@?$FL?$FN@ 0000000180047e50     libvcruntime:undname.obj
 0002:00002e58       ??_C@_08LHJFAFGD@operator@ 0000000180047e58     libvcruntime:undname.obj
 0002:00002e64       ??_C@_02HBOOOICD@?9?$DO@   0000000180047e64     libvcruntime:undname.obj
 0002:00002e68       ??_C@_01NBENCBCI@?$CK@     0000000180047e68     libvcruntime:undname.obj
 0002:00002e6c       ??_C@_02ECNGHCIF@?$CL?$CL@ 0000000180047e6c     libvcruntime:undname.obj
 0002:00002e70       ??_C@_02BAABKJLB@?9?9@     0000000180047e70     libvcruntime:undname.obj
 0002:00002e74       ??_C@_01JOAMLHOP@?9@       0000000180047e74     libvcruntime:undname.obj
 0002:00002e78       ??_C@_01MIFGBAGJ@?$CL@     0000000180047e78     libvcruntime:undname.obj
 0002:00002e7c       ??_C@_01HNPIGOCE@?$CG@     0000000180047e7c     libvcruntime:undname.obj
 0002:00002e80       ??_C@_03MNHNFDLC@?9?$DO?$CK@ 0000000180047e80     libvcruntime:undname.obj
 0002:00002e84       ??_C@_01KMDKNFGN@?1@       0000000180047e84     libvcruntime:undname.obj
 0002:00002e88       ??_C@_01FGNFDNOH@?$CF@     0000000180047e88     libvcruntime:undname.obj
 0002:00002e8c       ??_C@_01MNNFJEPP@?$DM@     0000000180047e8c     libvcruntime:undname.obj
 0002:00002e90       ??_C@_02EHCHHCKH@?$DM?$DN@ 0000000180047e90     libvcruntime:undname.obj
 0002:00002e94       ??_C@_01PPODPGHN@?$DO@     0000000180047e94     libvcruntime:undname.obj
 0002:00002e98       ??_C@_02EEKDKGMJ@?$DO?$DN@ 0000000180047e98     libvcruntime:undname.obj
 0002:00002e9c       ??_C@_01IHBHIGKO@?0@       0000000180047e9c     libvcruntime:undname.obj
 0002:00002ea0       ??_C@_02HCKGKOFO@?$CI?$CJ@ 0000000180047ea0     libvcruntime:undname.obj
 0002:00002ea4       ??_C@_01PJKLJHI@?$HO@      0000000180047ea4     libvcruntime:undname.obj
 0002:00002ea8       ??_C@_01JKBOJNNK@?$FO@     0000000180047ea8     libvcruntime:undname.obj
 0002:00002eac       ??_C@_01DNKMNLPK@?$HM@     0000000180047eac     libvcruntime:undname.obj
 0002:00002eb0       ??_C@_02PPKAJPJL@?$CG?$CG@ 0000000180047eb0     libvcruntime:undname.obj
 0002:00002eb4       ??_C@_02NONPIBCD@?$HM?$HM@ 0000000180047eb4     libvcruntime:undname.obj
 0002:00002eb8       ??_C@_02FPIMKNGF@?$CK?$DN@ 0000000180047eb8     libvcruntime:undname.obj
 0002:00002ebc       ??_C@_02FOEOMHFC@?$CL?$DN@ 0000000180047ebc     libvcruntime:undname.obj
 0002:00002ec0       ??_C@_02FKMDLLOA@?9?$DN@   0000000180047ec0     libvcruntime:undname.obj
 0002:00002ec4       ??_C@_02FJEHGPIO@?1?$DN@   0000000180047ec4     libvcruntime:undname.obj
 0002:00002ec8       ??_C@_02FENAOKFI@?$CF?$DN@ 0000000180047ec8     libvcruntime:undname.obj
 0002:00002ecc       ??_C@_03IKFCCPFF@?$DO?$DO?$DN@ 0000000180047ecc     libvcruntime:undname.obj
 0002:00002ed0       ??_C@_03CDNPDDLA@?$DM?$DM?$DN@ 0000000180047ed0     libvcruntime:undname.obj
 0002:00002ed4       ??_C@_02FGJGFEAB@?$CG?$DN@ 0000000180047ed4     libvcruntime:undname.obj
 0002:00002ed8       ??_C@_02DHLNPPGH@?$HM?$DN@ 0000000180047ed8     libvcruntime:undname.obj
 0002:00002edc       ??_C@_02MHEGNOJ@?$FO?$DN@  0000000180047edc     libvcruntime:undname.obj
 0002:00002ee0       ??_C@_09IFPLHPGF@?$GAvftable?8@ 0000000180047ee0     libvcruntime:undname.obj
 0002:00002ef0       ??_C@_09BLBHBJP@?$GAvbtable?8@ 0000000180047ef0     libvcruntime:undname.obj
 0002:00002f00       ??_C@_07FEEIOKP@?$GAvcall?8@ 0000000180047f00     libvcruntime:undname.obj
 0002:00002f08       ??_C@_08LLFFHHDJ@?$GAtypeof?8@ 0000000180047f08     libvcruntime:undname.obj
 0002:00002f18       ??_C@_0BF@KDPPACIK@?$GAlocal?5static?5guard?8@ 0000000180047f18     libvcruntime:undname.obj
 0002:00002f30       ??_C@_08OBABFOLI@?$GAstring?8@ 0000000180047f30     libvcruntime:undname.obj
 0002:00002f40       ??_C@_0BD@JDLKDPAB@?$GAvbase?5destructor?8@ 0000000180047f40     libvcruntime:undname.obj
 0002:00002f58       ??_C@_0BN@DEGPLNFK@?$GAvector?5deleting?5destructor?8@ 0000000180047f58     libvcruntime:undname.obj
 0002:00002f78       ??_C@_0BO@OBMKPJIG@?$GAdefault?5constructor?5closure?8@ 0000000180047f78     libvcruntime:undname.obj
 0002:00002f98       ??_C@_0BN@IMDCHIKM@?$GAscalar?5deleting?5destructor?8@ 0000000180047f98     libvcruntime:undname.obj
 0002:00002fb8       ??_C@_0BO@PFGOCPJJ@?$GAvector?5constructor?5iterator?8@ 0000000180047fb8     libvcruntime:undname.obj
 0002:00002fd8       ??_C@_0BN@LFPFMEDL@?$GAvector?5destructor?5iterator?8@ 0000000180047fd8     libvcruntime:undname.obj
 0002:00002ff8       ??_C@_0CE@IKBNEHA@?$GAvector?5vbase?5constructor?5itera@ 0000000180047ff8     libvcruntime:undname.obj
 0002:00003020       ??_C@_0BL@NILFHHPC@?$GAvirtual?5displacement?5map?8@ 0000000180048020     libvcruntime:undname.obj
 0002:00003040       ??_C@_0CB@JONCMFFK@?$GAeh?5vector?5constructor?5iterator@ 0000000180048040     libvcruntime:undname.obj
 0002:00003068       ??_C@_0CA@GCEOPDGL@?$GAeh?5vector?5destructor?5iterator?8@ 0000000180048068     libvcruntime:undname.obj
 0002:00003088       ??_C@_0CH@OOJPLCPH@?$GAeh?5vector?5vbase?5constructor?5it@ 0000000180048088     libvcruntime:undname.obj
 0002:000030b0       ??_C@_0BL@LLKPOHJI@?$GAcopy?5constructor?5closure?8@ 00000001800480b0     libvcruntime:undname.obj
 0002:000030d0       ??_C@_0BA@KBCDOMBN@?$GAudt?5returning?8@ 00000001800480d0     libvcruntime:undname.obj
 0002:000030e0       ??_C@_03KLGMFNMG@?$GAEH@   00000001800480e0     libvcruntime:undname.obj
 0002:000030e4       ??_C@_05KHLCHHI@?$GARTTI@  00000001800480e4     libvcruntime:undname.obj
 0002:000030f0       ??_C@_0BA@KKLDJDLB@?$GAlocal?5vftable?8@ 00000001800480f0     libvcruntime:undname.obj
 0002:00003100       ??_C@_0CE@IIHCMGGL@?$GAlocal?5vftable?5constructor?5clos@ 0000000180048100     libvcruntime:undname.obj
 0002:00003124       ??_C@_06FHBGPFGH@?5new?$FL?$FN@ 0000000180048124     libvcruntime:undname.obj
 0002:00003130       ??_C@_09LBNFPBCA@?5delete?$FL?$FN@ 0000000180048130     libvcruntime:undname.obj
 0002:00003140       ??_C@_0P@HJKNJFNN@?$GAomni?5callsig?8@ 0000000180048140     libvcruntime:undname.obj
 0002:00003150       ??_C@_0BL@CNOONJFP@?$GAplacement?5delete?5closure?8@ 0000000180048150     libvcruntime:undname.obj
 0002:00003170       ??_C@_0BN@CKNJLHMB@?$GAplacement?5delete?$FL?$FN?5closure?8@ 0000000180048170     libvcruntime:undname.obj
 0002:00003190       ??_C@_0CG@CFDHKGGD@?$GAmanaged?5vector?5constructor?5ite@ 0000000180048190     libvcruntime:undname.obj
 0002:000031b8       ??_C@_0CF@IMGKMJNO@?$GAmanaged?5vector?5destructor?5iter@ 00000001800481b8     libvcruntime:undname.obj
 0002:000031e0       ??_C@_0CG@HLDDJMAG@?$GAeh?5vector?5copy?5constructor?5ite@ 00000001800481e0     libvcruntime:undname.obj
 0002:00003208       ??_C@_0CM@FCBBDIGB@?$GAeh?5vector?5vbase?5copy?5construct@ 0000000180048208     libvcruntime:undname.obj
 0002:00003238       ??_C@_0BL@CLIPGLGB@?$GAdynamic?5initializer?5for?5?8@ 0000000180048238     libvcruntime:undname.obj
 0002:00003258       ??_C@_0CB@PDBIFEP@?$GAdynamic?5atexit?5destructor?5for?5@ 0000000180048258     libvcruntime:undname.obj
 0002:00003280       ??_C@_0CD@CGAJBKEJ@?$GAvector?5copy?5constructor?5iterat@ 0000000180048280     libvcruntime:undname.obj
 0002:000032a8       ??_C@_0CJ@GJELGAMM@?$GAvector?5vbase?5copy?5constructor?5@ 00000001800482a8     libvcruntime:undname.obj
 0002:000032d8       ??_C@_0CL@FGIJHLCE@?$GAmanaged?5vector?5copy?5constructo@ 00000001800482d8     libvcruntime:undname.obj
 0002:00003308       ??_C@_0BM@PMGGMLDN@?$GAlocal?5static?5thread?5guard?8@ 0000000180048308     libvcruntime:undname.obj
 0002:00003328       ??_C@_0N@BDNMDMOL@operator?5?$CC?$CC?5@ 0000000180048328     libvcruntime:undname.obj
 0002:00003338       ??_C@_0BC@GGEBGALA@operator?5co_await@ 0000000180048338     libvcruntime:undname.obj
 0002:00003350       ??_C@_0M@GAAIMMOH@operator?$DM?$DN?$DO@ 0000000180048350     libvcruntime:undname.obj
 0002:00003360       ??_C@_0BC@DAFEJGAK@?5Type?5Descriptor?8@ 0000000180048360     libvcruntime:undname.obj
 0002:00003378       ??_C@_0BM@LDKODKLH@?5Base?5Class?5Descriptor?5at?5?$CI@ 0000000180048378     libvcruntime:undname.obj
 0002:00003398       ??_C@_0BD@LGICGFMM@?5Base?5Class?5Array?8@ 0000000180048398     libvcruntime:undname.obj
 0002:000033b0       ??_C@_0BN@MECKDCOJ@?5Class?5Hierarchy?5Descriptor?8@ 00000001800483b0     libvcruntime:undname.obj
 0002:000033d0       ??_C@_0BK@CFCOFLF@?5Complete?5Object?5Locator?8@ 00000001800483d0     libvcruntime:undname.obj
 0002:000033f0       ??_C@_0BG@JNJLAMPM@?$GAanonymous?5namespace?8@ 00000001800483f0     libvcruntime:undname.obj
 0002:00003408       ??_C@_04HEJADOOB@CV?3?5@   0000000180048408     libvcruntime:undname.obj
 0002:00003410       ??_C@_02MOLJINC@?3?3@      0000000180048410     libvcruntime:undname.obj
 0002:00003418       ??_C@_0BE@JAEOCHPE@template?9parameter?9@ 0000000180048418     libvcruntime:undname.obj
 0002:00003430       ??_C@_0BF@LNLGBBNL@?$GAtemplate?9parameter?9@ 0000000180048430     libvcruntime:undname.obj
 0002:00003448       ??_C@_0O@KHGCOMHP@generic?9type?9@ 0000000180048448     libvcruntime:undname.obj
 0002:00003458       ??_C@_0P@ODDENDLM@?$GAgeneric?9type?9@ 0000000180048458     libvcruntime:undname.obj
 0002:00003468       ??_C@_02OHHJMEON@?8?8@     0000000180048468     libvcruntime:undname.obj
 0002:00003470       ??_C@_0BN@IBLMMFAP@?$GAnon?9type?9template?9parameter@ 0000000180048470     libvcruntime:undname.obj
 0002:00003490       ??_C@_03DLDNIBIK@?$CFlf@   0000000180048490     libvcruntime:undname.obj
 0002:00003494       ??_C@_04OFALKAJ@?$DP?$DP_C@ 0000000180048494     libvcruntime:undname.obj
 0002:0000349c       ??_C@_03KHICJKCI@?4?4?4@   000000018004849c     libvcruntime:undname.obj
 0002:000034a0       ??_C@_04HIBGFPH@NULL@      00000001800484a0     libvcruntime:undname.obj
 0002:000034a8       ??_C@_02DPKJAMEF@?$CFd@    00000001800484a8     libvcruntime:undname.obj
 0002:000034b0       ??_C@_0BK@IHCCFNEL@?$GAtemplate?9type?9parameter?9@ 00000001800484b0     libvcruntime:undname.obj
 0002:000034d0       ??_C@_0BK@OFCNNNKO@?$GAgeneric?9class?9parameter?9@ 00000001800484d0     libvcruntime:undname.obj
 0002:000034f0       ??_C@_0BL@NGJBLFIL@?$GAgeneric?9method?9parameter?9@ 00000001800484f0     libvcruntime:undname.obj
 0002:00003510       ??_C@_07OHNGEDJK@nullptr@  0000000180048510     libvcruntime:undname.obj
 0002:00003518       ??_C@_04GKJNKENE@void@     0000000180048518     libvcruntime:undname.obj
 0002:00003520       ??_C@_0BE@EODMJLIF@?$GAtemplate?9parameter@ 0000000180048520     libvcruntime:undname.obj
 0002:00003534       ??_C@_03OPGICMGF@?$HN?8?5@ 0000000180048534     libvcruntime:undname.obj
 0002:00003538       ??_C@_02IGFCGPIL@?$HN?8@   0000000180048538     libvcruntime:undname.obj
 0002:00003540       ??_C@_0N@CBHHHENL@?$GAvtordispex?$HL@ 0000000180048540     libvcruntime:undname.obj
 0002:00003550       ??_C@_0L@GHPFDFH@?$GAvtordisp?$HL@ 0000000180048550     libvcruntime:undname.obj
 0002:00003560       ??_C@_0L@HNGCOGAE@?$GAadjustor?$HL@ 0000000180048560     libvcruntime:undname.obj
 0002:00003570       ??_C@_0CB@KJDOOODE@?$GAlocal?5static?5destructor?5helper@ 0000000180048570     libvcruntime:undname.obj
 0002:00003598       ??_C@_0DB@ILEFOCIJ@?$GAtemplate?5static?5data?5member?5co@ 0000000180048598     libvcruntime:undname.obj
 0002:000035d0       ??_C@_0DA@HGFJFBBE@?$GAtemplate?5static?5data?5member?5de@ 00000001800485d0     libvcruntime:undname.obj
 0002:00003600       ??_C@_07PGOEDBHP@static?5@ 0000000180048600     libvcruntime:undname.obj
 0002:00003608       ??_C@_08NIEOINHE@virtual?5@ 0000000180048608     libvcruntime:undname.obj
 0002:00003618       ??_C@_09LAPHOOG@private?3?5@ 0000000180048618     libvcruntime:undname.obj
 0002:00003628       ??_C@_0M@GAIFPFIP@protected?3?5@ 0000000180048628     libvcruntime:undname.obj
 0002:00003638       ??_C@_08GPDDCMKI@public?3?5@ 0000000180048638     libvcruntime:undname.obj
 0002:00003648       ??_C@_08KJLFOPNE@?$FLthunk?$FN?3@ 0000000180048648     libvcruntime:undname.obj
 0002:00003658       ??_C@_0M@DHNBOJMP@extern?5?$CCC?$CC?5@ 0000000180048658     libvcruntime:undname.obj
 0002:00003664       ??_C@_02KCKGHPCA@?$CJ?5@   0000000180048664     libvcruntime:undname.obj
 0002:00003668       ??_C@_05CIHEBHNO@char?5@   0000000180048668     libvcruntime:undname.obj
 0002:00003670       ??_C@_06EHJMALKF@short?5@  0000000180048670     libvcruntime:undname.obj
 0002:00003678       ??_C@_04LAHKHJMA@int?5@    0000000180048678     libvcruntime:undname.obj
 0002:00003680       ??_C@_05CJIMAING@long?5@   0000000180048680     libvcruntime:undname.obj
 0002:00003688       ??_C@_09EBBEKKIH@unsigned?5@ 0000000180048688     libvcruntime:undname.obj
 0002:00003694       ??_C@_05BEFAKPML@void?5@   0000000180048694     libvcruntime:undname.obj
 0002:000036a0       ??_C@_09GAIEOBLP@volatile?5@ 00000001800486a0     libvcruntime:undname.obj
 0002:000036b0       ??_C@_08PABEKFH@volatile@  00000001800486b0     libvcruntime:undname.obj
 0002:000036c0       ??_C@_0BA@LKIJLKPP@std?3?3nullptr_t?5@ 00000001800486c0     libvcruntime:undname.obj
 0002:000036d0       ??_C@_0P@GCOCNKDM@std?3?3nullptr_t@ 00000001800486d0     libvcruntime:undname.obj
 0002:000036e0       ??_C@_0L@EGPHHEKN@?$DMellipsis?$DO@ 00000001800486e0     libvcruntime:undname.obj
 0002:000036ec       ??_C@_04EENFHACM@?0?4?4?4@ 00000001800486ec     libvcruntime:undname.obj
 0002:000036f8       ??_C@_0M@ELJOJFFH@?0?$DMellipsis?$DO@ 00000001800486f8     libvcruntime:undname.obj
 0002:00003708       ??_C@_09DNHFEOJI@?5noexcept@ 0000000180048708     libvcruntime:undname.obj
 0002:00003714       ??_C@_03PBJBJNON@cpu@      0000000180048714     libvcruntime:undname.obj
 0002:00003718       ??_C@_03DCBBJBAA@amp@      0000000180048718     libvcruntime:undname.obj
 0002:0000371c       ??_C@_02KEGNLNML@?0?5@     000000018004871c     libvcruntime:undname.obj
 0002:00003720       ??_C@_04ENMBGAPA@char@     0000000180048720     libvcruntime:undname.obj
 0002:00003728       ??_C@_05BFKKPKCG@short@    0000000180048728     libvcruntime:undname.obj
 0002:00003730       ??_C@_03JBIPMCLC@int@      0000000180048730     libvcruntime:undname.obj
 0002:00003734       ??_C@_04GOKPGOLB@long@     0000000180048734     libvcruntime:undname.obj
 0002:0000373c       ??_C@_05KNFBNCOH@float@    000000018004873c     libvcruntime:undname.obj
 0002:00003744       ??_C@_06BNJCAIGJ@double@   0000000180048744     libvcruntime:undname.obj
 0002:0000374c       ??_C@_06EBGKOKIG@__int8@   000000018004874c     libvcruntime:undname.obj
 0002:00003758       ??_C@_07ICFHOGAF@__int16@  0000000180048758     libvcruntime:undname.obj
 0002:00003760       ??_C@_07OFLPPHGP@__int32@  0000000180048760     libvcruntime:undname.obj
 0002:00003768       ??_C@_07LFCOJCAC@__int64@  0000000180048768     libvcruntime:undname.obj
 0002:00003770       ??_C@_08GAHOLHEO@__int128@ 0000000180048770     libvcruntime:undname.obj
 0002:00003780       ??_C@_09EEKGDCPH@?$DMunknown?$DO@ 0000000180048780     libvcruntime:undname.obj
 0002:00003790       ??_C@_07CFHGOPCN@char8_t@  0000000180048790     libvcruntime:undname.obj
 0002:00003798       ??_C@_08HBIPOFJB@char16_t@ 0000000180048798     libvcruntime:undname.obj
 0002:000037a8       ??_C@_08IECNCBKG@char32_t@ 00000001800487a8     libvcruntime:undname.obj
 0002:000037b8       ??_C@_07CLGGIAMF@wchar_t@  00000001800487b8     libvcruntime:undname.obj
 0002:000037c0       ??_C@_04HAPDLBFF@auto@     00000001800487c0     libvcruntime:undname.obj
 0002:000037c8       ??_C@_0P@LHCGKIGK@decltype?$CIauto?$CJ@ 00000001800487c8     libvcruntime:undname.obj
 0002:000037d8       ??_C@_06GCICPBLB@__w64?5@  00000001800487d8     libvcruntime:undname.obj
 0002:000037e0       ??_C@_07NFANNNEC@UNKNOWN@  00000001800487e0     libvcruntime:undname.obj
 0002:000037e8       ??_C@_07EDHNAJHC@signed?5@ 00000001800487e8     libvcruntime:undname.obj
 0002:000037f0       ??_C@_05BNCCCJPP@const@    00000001800487f0     libvcruntime:undname.obj
 0002:000037f8       ??_C@_09EFNPDFFP@?5volatile@ 00000001800487f8     libvcruntime:undname.obj
 0002:00003808       ??_C@_0P@GCIFDJCJ@?$GAunknown?5ecsu?8@ 0000000180048808     libvcruntime:undname.obj
 0002:00003818       ??_C@_06MOJHIBMG@union?5@  0000000180048818     libvcruntime:undname.obj
 0002:00003820       ??_C@_07DIBCDNGL@struct?5@ 0000000180048820     libvcruntime:undname.obj
 0002:00003828       ??_C@_06LJBABKPM@class?5@  0000000180048828     libvcruntime:undname.obj
 0002:00003830       ??_C@_08KOFANOFK@coclass?5@ 0000000180048830     libvcruntime:undname.obj
 0002:00003840       ??_C@_0N@DLIEFKNA@cointerface?5@ 0000000180048840     libvcruntime:undname.obj
 0002:00003850       ??_C@_05LJGMCFOG@enum?5@   0000000180048850     libvcruntime:undname.obj
 0002:00003858       ??_C@_06LIJLOJAG@const?5@  0000000180048858     libvcruntime:undname.obj
 0002:00003860       ??_C@_02KJPKDIBN@?$CG?5@   0000000180048860     libvcruntime:undname.obj
 0002:00003864       ??_C@_03PCKGMOPB@?$CG?$CG?5@ 0000000180048864     libvcruntime:undname.obj
 0002:00003868       ??_C@_0M@EALIELKG@cli?3?3array?$DM@ 0000000180048868     libvcruntime:undname.obj
 0002:00003878       ??_C@_0O@GKABPPIF@cli?3?3pin_ptr?$DM@ 0000000180048878     libvcruntime:undname.obj
 0002:00003888       ??_C@_02GOGNNPBN@?$CJ?$FL@ 0000000180048888     libvcruntime:undname.obj
 0002:0000388c       ??_C@_06EEGAIFAK@?$HLflat?$HN@ 000000018004888c     libvcruntime:undname.obj
 0002:00003894       ??_C@_05JIBOFOHK@?$HLfor?5@ 0000000180048894     libvcruntime:undname.obj
 0002:0000389c       ??_C@_02MDINNEEG@s?5@      000000018004889c     libvcruntime:undname.obj
 0002:000038a8       ??_7charNode@@6B@          00000001800488a8     libvcruntime:undname.obj
 0002:000038d0       ??_7pcharNode@@6B@         00000001800488d0     libvcruntime:undname.obj
 0002:000038f8       ??_7pDNameNode@@6B@        00000001800488f8     libvcruntime:undname.obj
 0002:00003920       ??_7DNameStatusNode@@6B@   0000000180048920     libvcruntime:undname.obj
 0002:00003948       ??_7pairNode@@6B@          0000000180048948     libvcruntime:undname.obj
 0002:00003a70       ??_C@_04OKOHEJBO@?5?$DP?$DP?5@ 0000000180048a70     libvcruntime:undname.obj
 0002:00003a80       ?nodes@?1??make@DNameStatusNode@@SAPEBV2@W4DNameStatus@@@Z@4QBV2@B 0000000180048a80     libvcruntime:undname.obj
 0002:00003ac0       ?s_negLengthTab@FH4@@3QBCB 0000000180048ac0     libvcruntime:risctrnsctrl.obj
 0002:00003ad0       ?s_shiftTab@FH4@@3QBEB     0000000180048ad0     libvcruntime:risctrnsctrl.obj
 0002:00003b90       ??_C@_1DM@KHCHBNEB@?$AAa?$AAp?$AAi?$AA?9?$AAm?$AAs?$AA?9?$AAw?$AAi?$AAn?$AA?9?$AAc?$AAo?$AAr?$AAe@ 0000000180048b90     libvcruntime:winapi_downlevel.obj
 0002:00003bd0       ??_C@_1DK@LPPGFMPP@?$AAa?$AAp?$AAi?$AA?9?$AAm?$AAs?$AA?9?$AAw?$AAi?$AAn?$AA?9?$AAc?$AAo?$AAr?$AAe@ 0000000180048bd0     libvcruntime:winapi_downlevel.obj
 0002:00003c10       ??_C@_1BC@GDMECMAK@?$AAk?$AAe?$AAr?$AAn?$AAe?$AAl?$AA3?$AA2@ 0000000180048c10     libvcruntime:winapi_downlevel.obj
 0002:00003c28       ??_C@_1BA@PFFKHIOG@?$AAa?$AAp?$AAi?$AA?9?$AAm?$AAs?$AA?9@ 0000000180048c28     libvcruntime:winapi_downlevel.obj
 0002:00003c40       ??_C@_08KNHFBNJ@FlsAlloc@  0000000180048c40     libvcruntime:winapi_downlevel.obj
 0002:00003c58       ??_C@_07PEJMOBNF@FlsFree@  0000000180048c58     libvcruntime:winapi_downlevel.obj
 0002:00003c68       ??_C@_0M@GDNOONDI@FlsGetValue@ 0000000180048c68     libvcruntime:winapi_downlevel.obj
 0002:00003c80       ??_C@_0M@JCPCPOEF@FlsSetValue@ 0000000180048c80     libvcruntime:winapi_downlevel.obj
 0002:00003c98       ??_C@_0BM@HCFOFFN@InitializeCriticalSectionEx@ 0000000180048c98     libvcruntime:winapi_downlevel.obj
 0002:00003cc0       ??_7exception@std@@6B@     0000000180048cc0     libvcruntime:frame.obj
 0002:00003cd0       ??_C@_0BC@EOODALEL@Unknown?5exception@ 0000000180048cd0     libvcruntime:frame.obj
 0002:00003cf0       ??_7bad_exception@std@@6B@ 0000000180048cf0     libvcruntime:frame.obj
 0002:00003d00       ??_C@_0O@DPKOEFFH@bad?5exception@ 0000000180048d00     libvcruntime:frame.obj
 0002:00004498       __real@3f1a36e2eb1c432d    0000000180049498     libucrt:atan2f.obj
 0002:000044a0       __real@3f490fdb            00000001800494a0     libucrt:atan2f.obj
 0002:000044a8       __real@3fb0000000000000    00000001800494a8     libucrt:atan2f.obj
 0002:000044b0       __real@3fc2492482bd6be1    00000001800494b0     libucrt:atan2f.obj
 0002:000044b8       __real@3fc90fdb            00000001800494b8     libucrt:atan2f.obj
 0002:000044c0       __real@3fc99999999643a3    00000001800494c0     libucrt:atan2f.obj
 0002:000044c8       __real@3fd5555555550877    00000001800494c8     libucrt:atan2f.obj
 0002:000044d0       __real@3fd5555555555538    00000001800494d0     libucrt:atan2f.obj
 0002:000044d8       __real@3ff921fb54442d18    00000001800494d8     libucrt:atan2f.obj
 0002:000044e0       __real@400921fb54442d18    00000001800494e0     libucrt:atan2f.obj
 0002:000044e8       __real@4016cbe4            00000001800494e8     libucrt:atan2f.obj
 0002:000044ec       __real@40490fdb            00000001800494ec     libucrt:atan2f.obj
 0002:000044f0       __real@4070000000000000    00000001800494f0     libucrt:atan2f.obj
 0002:000044f8       __real@80000000            00000001800494f8     libucrt:atan2f.obj
 0002:000044fc       __real@bf490fdb            00000001800494fc     libucrt:atan2f.obj
 0002:00004500       __real@bfc90fdb            0000000180049500     libucrt:atan2f.obj
 0002:00004504       __real@c016cbe4            0000000180049504     libucrt:atan2f.obj
 0002:00004508       __real@c0490fdb            0000000180049508     libucrt:atan2f.obj
 0002:00004760       __acrt_exception_action_table 0000000180049760     libucrt:exception_filter.obj
 0002:00004820       __acrt_signal_action_table_count 0000000180049820     libucrt:exception_filter.obj
 0002:00004828       __acrt_signal_action_first_fpe_index 0000000180049828     libucrt:exception_filter.obj
 0002:00004830       __acrt_signal_action_fpe_count 0000000180049830     libucrt:exception_filter.obj
 0002:00004838       ??_C@_1BI@BGOHAHKC@?$AAm?$AAs?$AAc?$AAo?$AAr?$AAe?$AAe?$AA?4?$AAd?$AAl?$AAl@ 0000000180049838     libucrt:exit.obj
 0002:00004850       ??_C@_0P@MIGLKIOC@CorExitProcess@ 0000000180049850     libucrt:exit.obj
 0002:00004960       ?format_validation_lookup_table_spectre@__crt_stdio_output@@3V?$spectre_mitigated_lookup_table@Ustate_transition_pair@__crt_stdio_output@@$0IA@@1@B 0000000180049960     libucrt:output.obj
 0002:00004d60       ??_C@_1O@CEDCILHN@?$AA?$CI?$AAn?$AAu?$AAl?$AAl?$AA?$CJ@ 0000000180049d60     libucrt:output.obj
 0002:00004d70       ??_C@_06OJHGLDPL@?$CInull?$CJ@ 0000000180049d70     libucrt:output.obj
 0002:00004ef0       ??_C@_04LAGPAAHP@sinf@     0000000180049ef0     libucrt:sincos_special.obj
 0002:00004ef8       ??_C@_04OBBKPIAC@cosf@     0000000180049ef8     libucrt:sincos_special.obj
 0002:00004f00       __Lcosfarray               0000000180049f00     libucrt:lsincosf_array.obj
 0002:00004f30       __Lsinfarray               0000000180049f30     libucrt:lsincosf_array.obj
 0002:00004f50       __L_2_by_pi_bits           0000000180049f50     libucrt:l2_by_pi_bits.obj
 0002:00005228       ??_C@_1M@HPNHIDJI@?$AAj?$AAa?$AA?9?$AAJ?$AAP@ 000000018004a228     libucrt:mbctype.obj
 0002:00005238       ??_C@_1M@BIBDDEMK@?$AAz?$AAh?$AA?9?$AAC?$AAN@ 000000018004a238     libucrt:mbctype.obj
 0002:00005248       ??_C@_1M@JLOOOEGK@?$AAk?$AAo?$AA?9?$AAK?$AAR@ 000000018004a248     libucrt:mbctype.obj
 0002:00005258       ??_C@_1M@CLNBBOPM@?$AAz?$AAh?$AA?9?$AAT?$AAW@ 000000018004a258     libucrt:mbctype.obj
 0002:00005310       ??_C@_1EA@JGEFHKEI@?$AAa?$AAp?$AAi?$AA?9?$AAm?$AAs?$AA?9?$AAw?$AAi?$AAn?$AA?9?$AAc?$AAo?$AAr?$AAe@ 000000018004a310     libucrt:winapi_thunks.obj
 0002:00005350       ??_C@_1DI@IJCEHOCB@?$AAa?$AAp?$AAi?$AA?9?$AAm?$AAs?$AA?9?$AAw?$AAi?$AAn?$AA?9?$AAc?$AAo?$AAr?$AAe@ 000000018004a350     libucrt:winapi_thunks.obj
 0002:00005390       ??_C@_1EI@MPIAOHOC@?$AAa?$AAp?$AAi?$AA?9?$AAm?$AAs?$AA?9?$AAw?$AAi?$AAn?$AA?9?$AAc?$AAo?$AAr?$AAe@ 000000018004a390     libucrt:winapi_thunks.obj
 0002:000053e0       ??_C@_1FK@FPHCKFIE@?$AAa?$AAp?$AAi?$AA?9?$AAm?$AAs?$AA?9?$AAw?$AAi?$AAn?$AA?9?$AAc?$AAo?$AAr?$AAe@ 000000018004a3e0     libucrt:winapi_thunks.obj
 0002:00005440       ??_C@_1EM@DILCGIIO@?$AAa?$AAp?$AAi?$AA?9?$AAm?$AAs?$AA?9?$AAw?$AAi?$AAn?$AA?9?$AAc?$AAo?$AAr?$AAe@ 000000018004a440     libucrt:winapi_thunks.obj
 0002:00005490       ??_C@_1DM@LNCGDDPN@?$AAa?$AAp?$AAi?$AA?9?$AAm?$AAs?$AA?9?$AAw?$AAi?$AAn?$AA?9?$AAc?$AAo?$AAr?$AAe@ 000000018004a490     libucrt:winapi_thunks.obj
 0002:000054d0       ??_C@_1DO@FPAPJEMD@?$AAa?$AAp?$AAi?$AA?9?$AAm?$AAs?$AA?9?$AAw?$AAi?$AAn?$AA?9?$AAc?$AAo?$AAr?$AAe@ 000000018004a4d0     libucrt:winapi_thunks.obj
 0002:00005510       ??_C@_1DK@NDHNAHIO@?$AAa?$AAp?$AAi?$AA?9?$AAm?$AAs?$AA?9?$AAw?$AAi?$AAn?$AA?9?$AAc?$AAo?$AAr?$AAe@ 000000018004a510     libucrt:winapi_thunks.obj
 0002:00005550       ??_C@_1DM@KGHDGBCM@?$AAa?$AAp?$AAi?$AA?9?$AAm?$AAs?$AA?9?$AAw?$AAi?$AAn?$AA?9?$AAc?$AAo?$AAr?$AAe@ 000000018004a550     libucrt:winapi_thunks.obj
 0002:00005590       ??_C@_1EO@IJIOEFOH@?$AAa?$AAp?$AAi?$AA?9?$AAm?$AAs?$AA?9?$AAw?$AAi?$AAn?$AA?9?$AAr?$AAt?$AAc?$AAo@ 000000018004a590     libucrt:winapi_thunks.obj
 0002:000055e0       ??_C@_1FG@HHGEKANL@?$AAa?$AAp?$AAi?$AA?9?$AAm?$AAs?$AA?9?$AAw?$AAi?$AAn?$AA?9?$AAs?$AAe?$AAc?$AAu@ 000000018004a5e0     libucrt:winapi_thunks.obj
 0002:00005640       ??_C@_1EG@DBIOJECG@?$AAe?$AAx?$AAt?$AA?9?$AAm?$AAs?$AA?9?$AAw?$AAi?$AAn?$AA?9?$AAn?$AAt?$AAu?$AAs@ 000000018004a640     libucrt:winapi_thunks.obj
 0002:00005690       ??_C@_1EO@FIHMJCLF@?$AAe?$AAx?$AAt?$AA?9?$AAm?$AAs?$AA?9?$AAw?$AAi?$AAn?$AA?9?$AAn?$AAt?$AAu?$AAs@ 000000018004a690     libucrt:winapi_thunks.obj
 0002:000056e0       ??_C@_1BC@DNHGCMLG@?$AAa?$AAd?$AAv?$AAa?$AAp?$AAi?$AA3?$AA2@ 000000018004a6e0     libucrt:winapi_thunks.obj
 0002:000056f8       ??_C@_1M@OAIMIKLP@?$AAn?$AAt?$AAd?$AAl?$AAl@ 000000018004a6f8     libucrt:winapi_thunks.obj
 0002:00005710       ??_C@_1EG@DPGNFKGC@?$AAa?$AAp?$AAi?$AA?9?$AAm?$AAs?$AA?9?$AAw?$AAi?$AAn?$AA?9?$AAa?$AAp?$AAp?$AAm@ 000000018004a710     libucrt:winapi_thunks.obj
 0002:00005758       ??_C@_1O@BCCLBEOE@?$AAu?$AAs?$AAe?$AAr?$AA3?$AA2@ 000000018004a758     libucrt:winapi_thunks.obj
 0002:00005768       ??_C@_1BA@IAIFMGEF@?$AAe?$AAx?$AAt?$AA?9?$AAm?$AAs?$AA?9@ 000000018004a768     libucrt:winapi_thunks.obj
 0002:00005780       ??_C@_0BA@FHFNEAED@AreFileApisANSI@ 000000018004a780     libucrt:winapi_thunks.obj
 0002:000057c0       ??_C@_0O@KKBNKAPF@LCMapStringEx@ 000000018004a7c0     libucrt:winapi_thunks.obj
 0002:000057d8       ??_C@_0BB@HBDEELFH@LocaleNameToLCID@ 000000018004a7d8     libucrt:winapi_thunks.obj
 0002:000057f0       ??_C@_0CF@OJOFEIGO@AppPolicyGetProcessTerminationM@ 000000018004a7f0     libucrt:winapi_thunks.obj
 0002:00005820       __lc_time_c                000000018004a820     libucrt:nlsdata.obj
 0002:00005ae0       ??_C@_03KOEHGMDN@Sun@      000000018004aae0     libucrt:nlsdata.obj
 0002:00005ae4       ??_C@_03PDAGKDH@Mon@       000000018004aae4     libucrt:nlsdata.obj
 0002:00005ae8       ??_C@_03NAGEINEP@Tue@      000000018004aae8     libucrt:nlsdata.obj
 0002:00005aec       ??_C@_03MHOMLAJA@Wed@      000000018004aaec     libucrt:nlsdata.obj
 0002:00005af0       ??_C@_03IOFIKPDN@Thu@      000000018004aaf0     libucrt:nlsdata.obj
 0002:00005af4       ??_C@_03IDIOELNC@Fri@      000000018004aaf4     libucrt:nlsdata.obj
 0002:00005af8       ??_C@_03FEFJNEK@Sat@       000000018004aaf8     libucrt:nlsdata.obj
 0002:00005afc       ??_C@_06OOPIFAJ@Sunday@    000000018004aafc     libucrt:nlsdata.obj
 0002:00005b04       ??_C@_06JLEDEDGH@Monday@   000000018004ab04     libucrt:nlsdata.obj
 0002:00005b10       ??_C@_07BAAGCFCM@Tuesday@  000000018004ab10     libucrt:nlsdata.obj
 0002:00005b18       ??_C@_09DLIGFAKA@Wednesday@ 000000018004ab18     libucrt:nlsdata.obj
 0002:00005b28       ??_C@_08HACCIKIA@Thursday@ 000000018004ab28     libucrt:nlsdata.obj
 0002:00005b34       ??_C@_06JECMNKMI@Friday@   000000018004ab34     libucrt:nlsdata.obj
 0002:00005b40       ??_C@_08INBOOONO@Saturday@ 000000018004ab40     libucrt:nlsdata.obj
 0002:00005b4c       ??_C@_03JIHJHPIE@Jan@      000000018004ab4c     libucrt:nlsdata.obj
 0002:00005b50       ??_C@_03HJBDCHOM@Feb@      000000018004ab50     libucrt:nlsdata.obj
 0002:00005b54       ??_C@_03ODNJBKGA@Mar@      000000018004ab54     libucrt:nlsdata.obj
 0002:00005b58       ??_C@_03LEOLGMJP@Apr@      000000018004ab58     libucrt:nlsdata.obj
 0002:00005b5c       ??_C@_03CNMDKL@May@        000000018004ab5c     libucrt:nlsdata.obj
 0002:00005b60       ??_C@_03IDFGHECI@Jun@      000000018004ab60     libucrt:nlsdata.obj
 0002:00005b64       ??_C@_03LBGABGKK@Jul@      000000018004ab64     libucrt:nlsdata.obj
 0002:00005b68       ??_C@_03IFJFEIGA@Aug@      000000018004ab68     libucrt:nlsdata.obj
 0002:00005b6c       ??_C@_03GGCAPAJC@Sep@      000000018004ab6c     libucrt:nlsdata.obj
 0002:00005b70       ??_C@_03BMAOKBAD@Oct@      000000018004ab70     libucrt:nlsdata.obj
 0002:00005b74       ??_C@_03JPJOFNIA@Nov@      000000018004ab74     libucrt:nlsdata.obj
 0002:00005b78       ??_C@_03MKABNOCG@Dec@      000000018004ab78     libucrt:nlsdata.obj
 0002:00005b80       ??_C@_07CGJPFGJA@January@  000000018004ab80     libucrt:nlsdata.obj
 0002:00005b88       ??_C@_08GNJGEPFN@February@ 000000018004ab88     libucrt:nlsdata.obj
 0002:00005b94       ??_C@_05HPCKOFNC@March@    000000018004ab94     libucrt:nlsdata.obj
 0002:00005b9c       ??_C@_05DMJDNLEJ@April@    000000018004ab9c     libucrt:nlsdata.obj
 0002:00005ba4       ??_C@_04CNLMGBGM@June@     000000018004aba4     libucrt:nlsdata.obj
 0002:00005bac       ??_C@_04MIEPOIFP@July@     000000018004abac     libucrt:nlsdata.obj
 0002:00005bb4       ??_C@_06LBBHFDDG@August@   000000018004abb4     libucrt:nlsdata.obj
 0002:00005bc0       ??_C@_09BHHEALKD@September@ 000000018004abc0     libucrt:nlsdata.obj
 0002:00005bd0       ??_C@_07JJNFCEND@October@  000000018004abd0     libucrt:nlsdata.obj
 0002:00005bd8       ??_C@_08HCHEGEOA@November@ 000000018004abd8     libucrt:nlsdata.obj
 0002:00005be8       ??_C@_08EDHMEBNP@December@ 000000018004abe8     libucrt:nlsdata.obj
 0002:00005bf4       ??_C@_02DEDBPAFC@AM@       000000018004abf4     libucrt:nlsdata.obj
 0002:00005bf8       ??_C@_02CJNFDJBF@PM@       000000018004abf8     libucrt:nlsdata.obj
 0002:00005c00       ??_C@_08BPBNCDIB@MM?1dd?1yy@ 000000018004ac00     libucrt:nlsdata.obj
 0002:00005c10       ??_C@_0BE@CKGJFCPC@dddd?0?5MMMM?5dd?0?5yyyy@ 000000018004ac10     libucrt:nlsdata.obj
 0002:00005c28       ??_C@_08JCCMCCIL@HH?3mm?3ss@ 000000018004ac28     libucrt:nlsdata.obj
 0002:00005c38       ??_C@_17MBGCMIPB@?$AAS?$AAu?$AAn@ 000000018004ac38     libucrt:nlsdata.obj
 0002:00005c40       ??_C@_17KBOMKBF@?$AAM?$AAo?$AAn@ 000000018004ac40     libucrt:nlsdata.obj
 0002:00005c48       ??_C@_17BMKGEGOJ@?$AAT?$AAu?$AAe@ 000000018004ac48     libucrt:nlsdata.obj
 0002:00005c50       ??_C@_17CJEDCEPE@?$AAW?$AAe?$AAd@ 000000018004ac50     libucrt:nlsdata.obj
 0002:00005c58       ??_C@_17PDPHAADD@?$AAT?$AAh?$AAu@ 000000018004ac58     libucrt:nlsdata.obj
 0002:00005c60       ??_C@_17HFOLPPLP@?$AAF?$AAr?$AAi@ 000000018004ac60     libucrt:nlsdata.obj
 0002:00005c68       ??_C@_17GGIBDPIH@?$AAS?$AAa?$AAt@ 000000018004ac68     libucrt:nlsdata.obj
 0002:00005c70       ??_C@_1O@IHNHDHPB@?$AAS?$AAu?$AAn?$AAd?$AAa?$AAy@ 000000018004ac70     libucrt:nlsdata.obj
 0002:00005c80       ??_C@_1O@MMNBFLIA@?$AAM?$AAo?$AAn?$AAd?$AAa?$AAy@ 000000018004ac80     libucrt:nlsdata.obj
 0002:00005c90       ??_C@_1BA@ENFBFFEK@?$AAT?$AAu?$AAe?$AAs?$AAd?$AAa?$AAy@ 000000018004ac90     libucrt:nlsdata.obj
 0002:00005ca0       ??_C@_1BE@EBOGMDOH@?$AAW?$AAe?$AAd?$AAn?$AAe?$AAs?$AAd?$AAa?$AAy@ 000000018004aca0     libucrt:nlsdata.obj
 0002:00005cb8       ??_C@_1BC@HHMNLIHE@?$AAT?$AAh?$AAu?$AAr?$AAs?$AAd?$AAa?$AAy@ 000000018004acb8     libucrt:nlsdata.obj
 0002:00005cd0       ??_C@_1O@PDICJHAG@?$AAF?$AAr?$AAi?$AAd?$AAa?$AAy@ 000000018004acd0     libucrt:nlsdata.obj
 0002:00005ce0       ??_C@_1BC@ENMNNPAJ@?$AAS?$AAa?$AAt?$AAu?$AAr?$AAd?$AAa?$AAy@ 000000018004ace0     libucrt:nlsdata.obj
 0002:00005cf8       ??_C@_17DKNBKCHM@?$AAJ?$AAa?$AAn@ 000000018004acf8     libucrt:nlsdata.obj
 0002:00005d00       ??_C@_17LMDJEKJN@?$AAF?$AAe?$AAb@ 000000018004ad00     libucrt:nlsdata.obj
 0002:00005d08       ??_C@_17CKNLEDEC@?$AAM?$AAa?$AAr@ 000000018004ad08     libucrt:nlsdata.obj
 0002:00005d10       ??_C@_17LFPOIHDD@?$AAA?$AAp?$AAr@ 000000018004ad10     libucrt:nlsdata.obj
 0002:00005d18       ??_C@_17PNNKMEED@?$AAM?$AAa?$AAy@ 000000018004ad18     libucrt:nlsdata.obj
 0002:00005d20       ??_C@_17KCJGOCPB@?$AAJ?$AAu?$AAn@ 000000018004ad20     libucrt:nlsdata.obj
 0002:00005d28       ??_C@_17IJPCKHK@?$AAJ?$AAu?$AAl@ 000000018004ad28     libucrt:nlsdata.obj
 0002:00005d30       ??_C@_17ICPELBCN@?$AAA?$AAu?$AAg@ 000000018004ad30     libucrt:nlsdata.obj
 0002:00005d38       ??_C@_17HCHCOKMG@?$AAS?$AAe?$AAp@ 000000018004ad38     libucrt:nlsdata.obj
 0002:00005d40       ??_C@_17FNLKOI@?$AAO?$AAc?$AAt@ 000000018004ad40     libucrt:nlsdata.obj
 0002:00005d48       ??_C@_17BBDMLCIG@?$AAN?$AAo?$AAv@ 000000018004ad48     libucrt:nlsdata.obj
 0002:00005d50       ??_C@_17EGKACKIF@?$AAD?$AAe?$AAc@ 000000018004ad50     libucrt:nlsdata.obj
 0002:00005d58       ??_C@_1BA@EFMEIEBA@?$AAJ?$AAa?$AAn?$AAu?$AAa?$AAr?$AAy@ 000000018004ad58     libucrt:nlsdata.obj
 0002:00005d68       ??_C@_1BC@JGDDFFAM@?$AAF?$AAe?$AAb?$AAr?$AAu?$AAa?$AAr?$AAy@ 000000018004ad68     libucrt:nlsdata.obj
 0002:00005d80       ??_C@_1M@IKEENEDF@?$AAM?$AAa?$AAr?$AAc?$AAh@ 000000018004ad80     libucrt:nlsdata.obj
 0002:00005d90       ??_C@_1M@GJNLMHFD@?$AAA?$AAp?$AAr?$AAi?$AAl@ 000000018004ad90     libucrt:nlsdata.obj
 0002:00005da0       ??_C@_19EPFLPGAP@?$AAJ?$AAu?$AAn?$AAe@ 000000018004ada0     libucrt:nlsdata.obj
 0002:00005db0       ??_C@_19BIFMLPCD@?$AAJ?$AAu?$AAl?$AAy@ 000000018004adb0     libucrt:nlsdata.obj
 0002:00005dc0       ??_C@_1O@PAHLKOAC@?$AAA?$AAu?$AAg?$AAu?$AAs?$AAt@ 000000018004adc0     libucrt:nlsdata.obj
 0002:00005dd0       ??_C@_1BE@DKAAMBJL@?$AAS?$AAe?$AAp?$AAt?$AAe?$AAm?$AAb?$AAe?$AAr@ 000000018004add0     libucrt:nlsdata.obj
 0002:00005de8       ??_C@_1BA@EPANDLNG@?$AAO?$AAc?$AAt?$AAo?$AAb?$AAe?$AAr@ 000000018004ade8     libucrt:nlsdata.obj
 0002:00005df8       ??_C@_1BC@BGLIFPF@?$AAN?$AAo?$AAv?$AAe?$AAm?$AAb?$AAe?$AAr@ 000000018004adf8     libucrt:nlsdata.obj
 0002:00005e10       ??_C@_1BC@FEMKIFH@?$AAD?$AAe?$AAc?$AAe?$AAm?$AAb?$AAe?$AAr@ 000000018004ae10     libucrt:nlsdata.obj
 0002:00005e24       ??_C@_15ODEHAHHF@?$AAA?$AAM@ 000000018004ae24     libucrt:nlsdata.obj
 0002:00005e2c       ??_C@_15CLMNNGEL@?$AAP?$AAM@ 000000018004ae2c     libucrt:nlsdata.obj
 0002:00005e38       ??_C@_1BC@IEBCMHCM@?$AAM?$AAM?$AA?1?$AAd?$AAd?$AA?1?$AAy?$AAy@ 000000018004ae38     libucrt:nlsdata.obj
 0002:00005e50       ??_C@_1CI@KNAKOEBC@?$AAd?$AAd?$AAd?$AAd?$AA?0?$AA?5?$AAM?$AAM?$AAM?$AAM?$AA?5?$AAd?$AAd?$AA?0?$AA?5@ 000000018004ae50     libucrt:nlsdata.obj
 0002:00005e78       ??_C@_1BC@GDGBMEMK@?$AAH?$AAH?$AA?3?$AAm?$AAm?$AA?3?$AAs?$AAs@ 000000018004ae78     libucrt:nlsdata.obj
 0002:00005e90       ??_C@_1M@BMHNFIME@?$AAe?$AAn?$AA?9?$AAU?$AAS@ 000000018004ae90     libucrt:nlsdata.obj
 0002:00005f20       ??_C@_03OEIAHPBN@INF@      000000018004af20     libucrt:cvt.obj
 0002:00005f24       ??_C@_03OJHLLCGB@inf@      000000018004af24     libucrt:cvt.obj
 0002:00005f28       ??_C@_03LKNCIKJB@NAN@      000000018004af28     libucrt:cvt.obj
 0002:00005f2c       ??_C@_03LHCJEHON@nan@      000000018004af2c     libucrt:cvt.obj
 0002:00005f30       ??_C@_09OFJJIMPC@NAN?$CISNAN?$CJ@ 000000018004af30     libucrt:cvt.obj
 0002:00005f40       ??_C@_09IPFBKMDL@nan?$CIsnan?$CJ@ 000000018004af40     libucrt:cvt.obj
 0002:00005f50       ??_C@_08IKHNHAJ@NAN?$CIIND?$CJ@ 000000018004af50     libucrt:cvt.obj
 0002:00005f60       ??_C@_08OFCDMILK@nan?$CIind?$CJ@ 000000018004af60     libucrt:cvt.obj
 0002:00005f6c       ??_C@_05KLBDPFGC@e?$CL000@ 000000018004af6c     libucrt:cvt.obj
 0002:00005f80       __newctype                 000000018004af80     libucrt:ctype.obj
 0002:00006280       __newclmap                 000000018004b280     libucrt:ctype.obj
 0002:00006400       __newcumap                 000000018004b400     libucrt:ctype.obj
 0002:00006590       ??_C@_05HGHHAHAP@log10@    000000018004b590     libucrt:fpexcept.obj
 0002:000073e0       ??_C@_15EMKDOKLE@?$AAa?$AAr@ 000000018004c3e0     libucrt:lcidtoname_downlevel.obj
 0002:000073e8       ??_C@_15KNPADPLH@?$AAb?$AAg@ 000000018004c3e8     libucrt:lcidtoname_downlevel.obj
 0002:000073f0       ??_C@_15EDMHLDMO@?$AAc?$AAa@ 000000018004c3f0     libucrt:lcidtoname_downlevel.obj
 0002:000073f8       ??_C@_1O@BPEAJADD@?$AAz?$AAh?$AA?9?$AAC?$AAH?$AAS@ 000000018004c3f8     libucrt:lcidtoname_downlevel.obj
 0002:00007408       ??_C@_15LJNHCMNK@?$AAc?$AAs@ 000000018004c408     libucrt:lcidtoname_downlevel.obj
 0002:00007410       ??_C@_15FOMCIDHG@?$AAd?$AAa@ 000000018004c410     libucrt:lcidtoname_downlevel.obj
 0002:00007418       ??_C@_15NBKABECB@?$AAd?$AAe@ 000000018004c418     libucrt:lcidtoname_downlevel.obj
 0002:00007420       ??_C@_15GHPEIIAO@?$AAe?$AAl@ 000000018004c420     libucrt:lcidtoname_downlevel.obj
 0002:00007428       ??_C@_15MNPNEAIF@?$AAe?$AAn@ 000000018004c428     libucrt:lcidtoname_downlevel.obj
 0002:00007430       ??_C@_15GPIOMPMH@?$AAe?$AAs@ 000000018004c430     libucrt:lcidtoname_downlevel.obj
 0002:00007438       ??_C@_15NGLOAKJC@?$AAf?$AAi@ 000000018004c438     libucrt:lcidtoname_downlevel.obj
 0002:00007440       ??_C@_15FBKGNKAM@?$AAf?$AAr@ 000000018004c440     libucrt:lcidtoname_downlevel.obj
 0002:00007448       ??_C@_15KGGCNEFK@?$AAh?$AAe@ 000000018004c448     libucrt:lcidtoname_downlevel.obj
 0002:00007450       ??_C@_15PGHLIDMF@?$AAh?$AAu@ 000000018004c450     libucrt:lcidtoname_downlevel.obj
 0002:00007458       ??_C@_15BIEMAPLM@?$AAi?$AAs@ 000000018004c458     libucrt:lcidtoname_downlevel.obj
 0002:00007460       ??_C@_15IFJLDHAF@?$AAi?$AAt@ 000000018004c460     libucrt:lcidtoname_downlevel.obj
 0002:00007468       ??_C@_15GEMIOCAG@?$AAj?$AAa@ 000000018004c468     libucrt:lcidtoname_downlevel.obj
 0002:00007470       ??_C@_15EPELEGJA@?$AAk?$AAo@ 000000018004c470     libucrt:lcidtoname_downlevel.obj
 0002:00007478       ??_C@_15NDDHIMN@?$AAn?$AAl@ 000000018004c478     libucrt:lcidtoname_downlevel.obj
 0002:00007480       ??_C@_15BPIGNHCD@?$AAn?$AAo@ 000000018004c480     libucrt:lcidtoname_downlevel.obj
 0002:00007488       ??_C@_15DEOPBLCG@?$AAp?$AAl@ 000000018004c488     libucrt:lcidtoname_downlevel.obj
 0002:00007490       ??_C@_15KBECGEFG@?$AAp?$AAt@ 000000018004c490     libucrt:lcidtoname_downlevel.obj
 0002:00007498       ??_C@_15GLJCBFMD@?$AAr?$AAo@ 000000018004c498     libucrt:lcidtoname_downlevel.obj
 0002:000074a0       ??_C@_15FEDGKCDI@?$AAr?$AAu@ 000000018004c4a0     libucrt:lcidtoname_downlevel.obj
 0002:000074a8       ??_C@_15GLKMLLHM@?$AAh?$AAr@ 000000018004c4a8     libucrt:lcidtoname_downlevel.obj
 0002:000074b0       ??_C@_15CPKMFBDB@?$AAs?$AAk@ 000000018004c4b0     libucrt:lcidtoname_downlevel.obj
 0002:000074b8       ??_C@_15BAAIOGMK@?$AAs?$AAq@ 000000018004c4b8     libucrt:lcidtoname_downlevel.obj
 0002:000074c0       ??_C@_15INNPNOHD@?$AAs?$AAv@ 000000018004c4c0     libucrt:lcidtoname_downlevel.obj
 0002:000074c8       ??_C@_15CABMMOGH@?$AAt?$AAh@ 000000018004c4c8     libucrt:lcidtoname_downlevel.obj
 0002:000074d0       ??_C@_15BPLIHJJM@?$AAt?$AAr@ 000000018004c4d0     libucrt:lcidtoname_downlevel.obj
 0002:000074d8       ??_C@_15NEOEKKDJ@?$AAu?$AAr@ 000000018004c4d8     libucrt:lcidtoname_downlevel.obj
 0002:000074e0       ??_C@_15NFICGAJK@?$AAi?$AAd@ 000000018004c4e0     libucrt:lcidtoname_downlevel.obj
 0002:000074e8       ??_C@_15PJPFLCCM@?$AAu?$AAk@ 000000018004c4e8     libucrt:lcidtoname_downlevel.obj
 0002:000074f0       ??_C@_15HPJPHDM@?$AAb?$AAe@ 000000018004c4f0     libucrt:lcidtoname_downlevel.obj
 0002:000074f8       ??_C@_15LCHLGJII@?$AAs?$AAl@ 000000018004c4f8     libucrt:lcidtoname_downlevel.obj
 0002:00007500       ??_C@_15PCFJPHHO@?$AAe?$AAt@ 000000018004c500     libucrt:lcidtoname_downlevel.obj
 0002:00007508       ??_C@_15HPFPGODN@?$AAl?$AAv@ 000000018004c508     libucrt:lcidtoname_downlevel.obj
 0002:00007510       ??_C@_15NFFGKGLG@?$AAl?$AAt@ 000000018004c510     libucrt:lcidtoname_downlevel.obj
 0002:00007518       ??_C@_15BDAKCCHN@?$AAf?$AAa@ 000000018004c518     libucrt:lcidtoname_downlevel.obj
 0002:00007520       ??_C@_15NFGIAIAJ@?$AAv?$AAi@ 000000018004c520     libucrt:lcidtoname_downlevel.obj
 0002:00007528       ??_C@_15LMKNDMHN@?$AAh?$AAy@ 000000018004c528     libucrt:lcidtoname_downlevel.obj
 0002:00007530       ??_C@_15IJBHMCFL@?$AAa?$AAz@ 000000018004c530     libucrt:lcidtoname_downlevel.obj
 0002:00007538       ??_C@_15EKOFJABL@?$AAe?$AAu@ 000000018004c538     libucrt:lcidtoname_downlevel.obj
 0002:00007540       ??_C@_15BGHADCNK@?$AAm?$AAk@ 000000018004c540     libucrt:lcidtoname_downlevel.obj
 0002:00007548       ??_C@_15JDNICKHM@?$AAa?$AAf@ 000000018004c548     libucrt:lcidtoname_downlevel.obj
 0002:00007550       ??_C@_15KPJEDBKD@?$AAk?$AAa@ 000000018004c550     libucrt:lcidtoname_downlevel.obj
 0002:00007558       ??_C@_15PDNFFFEO@?$AAf?$AAo@ 000000018004c558     libucrt:lcidtoname_downlevel.obj
 0002:00007560       ??_C@_15OMLEGLOC@?$AAh?$AAi@ 000000018004c560     libucrt:lcidtoname_downlevel.obj
 0002:00007568       ??_C@_15IDNNENKK@?$AAm?$AAs@ 000000018004c568     libucrt:lcidtoname_downlevel.obj
 0002:00007570       ??_C@_15MACJNBMH@?$AAk?$AAk@ 000000018004c570     libucrt:lcidtoname_downlevel.obj
 0002:00007578       ??_C@_15DKDJEOND@?$AAk?$AAy@ 000000018004c578     libucrt:lcidtoname_downlevel.obj
 0002:00007580       ??_C@_15DFGDLJBG@?$AAs?$AAw@ 000000018004c580     libucrt:lcidtoname_downlevel.obj
 0002:00007588       ??_C@_15BBFAICNG@?$AAu?$AAz@ 000000018004c588     libucrt:lcidtoname_downlevel.obj
 0002:00007590       ??_C@_15DKNDCGEA@?$AAt?$AAt@ 000000018004c590     libucrt:lcidtoname_downlevel.obj
 0002:00007598       ??_C@_15MGIFMDPL@?$AAp?$AAa@ 000000018004c598     libucrt:lcidtoname_downlevel.obj
 0002:000075a0       ??_C@_15HCNDBBA@?$AAg?$AAu@ 000000018004c5a0     libucrt:lcidtoname_downlevel.obj
 0002:000075a8       ??_C@_15FNBEIBON@?$AAt?$AAa@ 000000018004c5a8     libucrt:lcidtoname_downlevel.obj
 0002:000075b0       ??_C@_15NCHGBGLK@?$AAt?$AAe@ 000000018004c5b0     libucrt:lcidtoname_downlevel.obj
 0002:000075b8       ??_C@_15PHPHCBPF@?$AAk?$AAn@ 000000018004c5b8     libucrt:lcidtoname_downlevel.obj
 0002:000075c0       ??_C@_15DLGBCKMP@?$AAm?$AAr@ 000000018004c5c0     libucrt:lcidtoname_downlevel.obj
 0002:000075c8       ??_C@_15EABBLBFF@?$AAs?$AAa@ 000000018004c5c8     libucrt:lcidtoname_downlevel.obj
 0002:000075d0       ??_C@_15CBKOMCOI@?$AAm?$AAn@ 000000018004c5d0     libucrt:lcidtoname_downlevel.obj
 0002:000075d8       ??_C@_15CKDMCJAF@?$AAg?$AAl@ 000000018004c5d8     libucrt:lcidtoname_downlevel.obj
 0002:000075e0       ??_C@_17CNJFBPG@?$AAk?$AAo?$AAk@ 000000018004c5e0     libucrt:lcidtoname_downlevel.obj
 0002:000075e8       ??_C@_17FFBJICPL@?$AAs?$AAy?$AAr@ 000000018004c5e8     libucrt:lcidtoname_downlevel.obj
 0002:000075f0       ??_C@_17KPNDCPAF@?$AAd?$AAi?$AAv@ 000000018004c5f0     libucrt:lcidtoname_downlevel.obj
 0002:000075f8       ??_C@_11LOCGONAA@@         000000018004c5f8     libucrt:lcidtoname_downlevel.obj
 0002:00007600       ??_C@_1M@OKAHONE@?$AAa?$AAr?$AA?9?$AAS?$AAA@ 000000018004c600     libucrt:lcidtoname_downlevel.obj
 0002:00007610       ??_C@_1M@FFFIGIGK@?$AAb?$AAg?$AA?9?$AAB?$AAG@ 000000018004c610     libucrt:lcidtoname_downlevel.obj
 0002:00007620       ??_C@_1M@BJNKEDC@?$AAc?$AAa?$AA?9?$AAE?$AAS@ 000000018004c620     libucrt:lcidtoname_downlevel.obj
 0002:00007630       ??_C@_1M@IJJHFJHA@?$AAc?$AAs?$AA?9?$AAC?$AAZ@ 000000018004c630     libucrt:lcidtoname_downlevel.obj
 0002:00007640       ??_C@_1M@CLPEOBGI@?$AAd?$AAa?$AA?9?$AAD?$AAK@ 000000018004c640     libucrt:lcidtoname_downlevel.obj
 0002:00007650       ??_C@_1M@MCMADGCB@?$AAd?$AAe?$AA?9?$AAD?$AAE@ 000000018004c650     libucrt:lcidtoname_downlevel.obj
 0002:00007660       ??_C@_1M@OOCKEMAM@?$AAe?$AAl?$AA?9?$AAG?$AAR@ 000000018004c660     libucrt:lcidtoname_downlevel.obj
 0002:00007670       ??_C@_1M@DDNJFGID@?$AAf?$AAi?$AA?9?$AAF?$AAI@ 000000018004c670     libucrt:lcidtoname_downlevel.obj
 0002:00007680       ??_C@_1M@GLIPPMAC@?$AAf?$AAr?$AA?9?$AAF?$AAR@ 000000018004c680     libucrt:lcidtoname_downlevel.obj
 0002:00007690       ??_C@_1M@GFMCHPE@?$AAh?$AAe?$AA?9?$AAI?$AAL@ 000000018004c690     libucrt:lcidtoname_downlevel.obj
 0002:000076a0       ??_C@_1M@MHLPGNKM@?$AAh?$AAu?$AA?9?$AAH?$AAU@ 000000018004c6a0     libucrt:lcidtoname_downlevel.obj
 0002:000076b0       ??_C@_1M@LPDDNNPN@?$AAi?$AAs?$AA?9?$AAI?$AAS@ 000000018004c6b0     libucrt:lcidtoname_downlevel.obj
 0002:000076c0       ??_C@_1M@MADIPODN@?$AAi?$AAt?$AA?9?$AAI?$AAT@ 000000018004c6c0     libucrt:lcidtoname_downlevel.obj
 0002:000076d0       ??_C@_1M@IHBJJGG@?$AAn?$AAl?$AA?9?$AAN?$AAL@ 000000018004c6d0     libucrt:lcidtoname_downlevel.obj
 0002:000076e0       ??_C@_1M@EANAGDL@?$AAn?$AAb?$AA?9?$AAN?$AAO@ 000000018004c6e0     libucrt:lcidtoname_downlevel.obj
 0002:000076f0       ??_C@_1M@NEIEMEGP@?$AAp?$AAl?$AA?9?$AAP?$AAL@ 000000018004c6f0     libucrt:lcidtoname_downlevel.obj
 0002:00007700       ??_C@_1M@BOCFIGEP@?$AAp?$AAt?$AA?9?$AAB?$AAR@ 000000018004c700     libucrt:lcidtoname_downlevel.obj
 0002:00007710       ??_C@_1M@IMPFOPBG@?$AAr?$AAo?$AA?9?$AAR?$AAO@ 000000018004c710     libucrt:lcidtoname_downlevel.obj
 0002:00007720       ??_C@_1M@IDNNEJMM@?$AAr?$AAu?$AA?9?$AAR?$AAU@ 000000018004c720     libucrt:lcidtoname_downlevel.obj
 0002:00007730       ??_C@_1M@LILEEOGM@?$AAh?$AAr?$AA?9?$AAH?$AAR@ 000000018004c730     libucrt:lcidtoname_downlevel.obj
 0002:00007740       ??_C@_1M@FKIFEHPB@?$AAs?$AAk?$AA?9?$AAS?$AAK@ 000000018004c740     libucrt:lcidtoname_downlevel.obj
 0002:00007750       ??_C@_1M@LJMAMNPJ@?$AAs?$AAq?$AA?9?$AAA?$AAL@ 000000018004c750     libucrt:lcidtoname_downlevel.obj
 0002:00007760       ??_C@_1M@GIAKDKJK@?$AAs?$AAv?$AA?9?$AAS?$AAE@ 000000018004c760     libucrt:lcidtoname_downlevel.obj
 0002:00007770       ??_C@_1M@MKJKIKCL@?$AAt?$AAh?$AA?9?$AAT?$AAH@ 000000018004c770     libucrt:lcidtoname_downlevel.obj
 0002:00007780       ??_C@_1M@MFLCCMPB@?$AAt?$AAr?$AA?9?$AAT?$AAR@ 000000018004c780     libucrt:lcidtoname_downlevel.obj
 0002:00007790       ??_C@_1M@OIJHDKJN@?$AAu?$AAr?$AA?9?$AAP?$AAK@ 000000018004c790     libucrt:lcidtoname_downlevel.obj
 0002:000077a0       ??_C@_1M@LHIPCIEK@?$AAi?$AAd?$AA?9?$AAI?$AAD@ 000000018004c7a0     libucrt:lcidtoname_downlevel.obj
 0002:000077b0       ??_C@_1M@MFMOBGI@?$AAu?$AAk?$AA?9?$AAU?$AAA@ 000000018004c7b0     libucrt:lcidtoname_downlevel.obj
 0002:000077c0       ??_C@_1M@OBGLJIPL@?$AAb?$AAe?$AA?9?$AAB?$AAY@ 000000018004c7c0     libucrt:lcidtoname_downlevel.obj
 0002:000077d0       ??_C@_1M@BCFAJEAD@?$AAs?$AAl?$AA?9?$AAS?$AAI@ 000000018004c7d0     libucrt:lcidtoname_downlevel.obj
 0002:000077e0       ??_C@_1M@FKFFEDDN@?$AAe?$AAt?$AA?9?$AAE?$AAE@ 000000018004c7e0     libucrt:lcidtoname_downlevel.obj
 0002:000077f0       ??_C@_1M@KGKKAACI@?$AAl?$AAv?$AA?9?$AAL?$AAV@ 000000018004c7f0     libucrt:lcidtoname_downlevel.obj
 0002:00007800       ??_C@_1M@IFGBIJO@?$AAl?$AAt?$AA?9?$AAL?$AAT@ 000000018004c800     libucrt:lcidtoname_downlevel.obj
 0002:00007810       ??_C@_1M@FGEAHEDM@?$AAf?$AAa?$AA?9?$AAI?$AAR@ 000000018004c810     libucrt:lcidtoname_downlevel.obj
 0002:00007820       ??_C@_1M@KBMAIBFN@?$AAv?$AAi?$AA?9?$AAV?$AAN@ 000000018004c820     libucrt:lcidtoname_downlevel.obj
 0002:00007830       ??_C@_1M@GPCBKDJK@?$AAh?$AAy?$AA?9?$AAA?$AAM@ 000000018004c830     libucrt:lcidtoname_downlevel.obj
 0002:00007840       ??_C@_1BG@BECMDDJB@?$AAa?$AAz?$AA?9?$AAA?$AAZ?$AA?9?$AAL?$AAa?$AAt?$AAn@ 000000018004c840     libucrt:lcidtoname_downlevel.obj
 0002:00007858       ??_C@_1M@MAOFCAEA@?$AAe?$AAu?$AA?9?$AAE?$AAS@ 000000018004c858     libucrt:lcidtoname_downlevel.obj
 0002:00007868       ??_C@_1M@IGHABKPI@?$AAm?$AAk?$AA?9?$AAM?$AAK@ 000000018004c868     libucrt:lcidtoname_downlevel.obj
 0002:00007878       ??_C@_1M@IAIGNEJG@?$AAt?$AAn?$AA?9?$AAZ?$AAA@ 000000018004c878     libucrt:lcidtoname_downlevel.obj
 0002:00007888       ??_C@_1M@IIJCOJFA@?$AAx?$AAh?$AA?9?$AAZ?$AAA@ 000000018004c888     libucrt:lcidtoname_downlevel.obj
 0002:00007898       ??_C@_1M@LGPJHNJH@?$AAz?$AAu?$AA?9?$AAZ?$AAA@ 000000018004c898     libucrt:lcidtoname_downlevel.obj
 0002:000078a8       ??_C@_1M@HOKAOIO@?$AAa?$AAf?$AA?9?$AAZ?$AAA@ 000000018004c8a8     libucrt:lcidtoname_downlevel.obj
 0002:000078b8       ??_C@_1M@DPCLHLIE@?$AAk?$AAa?$AA?9?$AAG?$AAE@ 000000018004c8b8     libucrt:lcidtoname_downlevel.obj
 0002:000078c8       ??_C@_1M@BLKMHJBI@?$AAf?$AAo?$AA?9?$AAF?$AAO@ 000000018004c8c8     libucrt:lcidtoname_downlevel.obj
 0002:000078d8       ??_C@_1M@LGGJAPPB@?$AAh?$AAi?$AA?9?$AAI?$AAN@ 000000018004c8d8     libucrt:lcidtoname_downlevel.obj
 0002:000078e8       ??_C@_1M@FIKPIHFE@?$AAm?$AAt?$AA?9?$AAM?$AAT@ 000000018004c8e8     libucrt:lcidtoname_downlevel.obj
 0002:000078f8       ??_C@_1M@HEGGPBFA@?$AAs?$AAe?$AA?9?$AAN?$AAO@ 000000018004c8f8     libucrt:lcidtoname_downlevel.obj
 0002:00007908       ??_C@_1M@EIBJEEPA@?$AAm?$AAs?$AA?9?$AAM?$AAY@ 000000018004c908     libucrt:lcidtoname_downlevel.obj
 0002:00007918       ??_C@_1M@FHLBGMPP@?$AAk?$AAk?$AA?9?$AAK?$AAZ@ 000000018004c918     libucrt:lcidtoname_downlevel.obj
 0002:00007928       ??_C@_1M@NGJJLCGI@?$AAk?$AAy?$AA?9?$AAK?$AAG@ 000000018004c928     libucrt:lcidtoname_downlevel.obj
 0002:00007938       ??_C@_1M@GIENNBFC@?$AAs?$AAw?$AA?9?$AAK?$AAE@ 000000018004c938     libucrt:lcidtoname_downlevel.obj
 0002:00007948       ??_C@_1BG@NDGMJIMJ@?$AAu?$AAz?$AA?9?$AAU?$AAZ?$AA?9?$AAL?$AAa?$AAt?$AAn@ 000000018004c948     libucrt:lcidtoname_downlevel.obj
 0002:00007960       ??_C@_1M@IDCCIHBC@?$AAt?$AAt?$AA?9?$AAR?$AAU@ 000000018004c960     libucrt:lcidtoname_downlevel.obj
 0002:00007970       ??_C@_1M@LOICPMOJ@?$AAb?$AAn?$AA?9?$AAI?$AAN@ 000000018004c970     libucrt:lcidtoname_downlevel.obj
 0002:00007980       ??_C@_1M@KPKKNEAH@?$AAp?$AAa?$AA?9?$AAI?$AAN@ 000000018004c980     libucrt:lcidtoname_downlevel.obj
 0002:00007990       ??_C@_1M@PJGPPBOG@?$AAg?$AAu?$AA?9?$AAI?$AAN@ 000000018004c990     libucrt:lcidtoname_downlevel.obj
 0002:000079a0       ??_C@_1M@KMKMOPHI@?$AAt?$AAa?$AA?9?$AAI?$AAN@ 000000018004c9a0     libucrt:lcidtoname_downlevel.obj
 0002:000079b0       ??_C@_1M@KFEHEPAC@?$AAt?$AAe?$AA?9?$AAI?$AAN@ 000000018004c9b0     libucrt:lcidtoname_downlevel.obj
 0002:000079c0       ??_C@_1M@CDCLMGHI@?$AAk?$AAn?$AA?9?$AAI?$AAN@ 000000018004c9c0     libucrt:lcidtoname_downlevel.obj
 0002:000079d0       ??_C@_1M@MIODLDKF@?$AAm?$AAl?$AA?9?$AAI?$AAN@ 000000018004c9d0     libucrt:lcidtoname_downlevel.obj
 0002:000079e0       ??_C@_1M@PBIEACPO@?$AAm?$AAr?$AA?9?$AAI?$AAN@ 000000018004c9e0     libucrt:lcidtoname_downlevel.obj
 0002:000079f0       ??_C@_1M@NIDEAGPH@?$AAs?$AAa?$AA?9?$AAI?$AAN@ 000000018004c9f0     libucrt:lcidtoname_downlevel.obj
 0002:00007a00       ??_C@_1M@FHIHCBIO@?$AAm?$AAn?$AA?9?$AAM?$AAN@ 000000018004ca00     libucrt:lcidtoname_downlevel.obj
 0002:00007a10       ??_C@_1M@JAIJPENP@?$AAc?$AAy?$AA?9?$AAG?$AAB@ 000000018004ca10     libucrt:lcidtoname_downlevel.obj
 0002:00007a20       ??_C@_1M@PHGFBEPN@?$AAg?$AAl?$AA?9?$AAE?$AAS@ 000000018004ca20     libucrt:lcidtoname_downlevel.obj
 0002:00007a30       ??_C@_1O@KPIPDNCP@?$AAk?$AAo?$AAk?$AA?9?$AAI?$AAN@ 000000018004ca30     libucrt:lcidtoname_downlevel.obj
 0002:00007a40       ??_C@_1O@KNHJLDJA@?$AAs?$AAy?$AAr?$AA?9?$AAS?$AAY@ 000000018004ca40     libucrt:lcidtoname_downlevel.obj
 0002:00007a50       ??_C@_1O@MKEKBLAH@?$AAd?$AAi?$AAv?$AA?9?$AAM?$AAV@ 000000018004ca50     libucrt:lcidtoname_downlevel.obj
 0002:00007a60       ??_C@_1O@OHDCKDDF@?$AAq?$AAu?$AAz?$AA?9?$AAB?$AAO@ 000000018004ca60     libucrt:lcidtoname_downlevel.obj
 0002:00007a70       ??_C@_1M@LEPJNLFD@?$AAn?$AAs?$AA?9?$AAZ?$AAA@ 000000018004ca70     libucrt:lcidtoname_downlevel.obj
 0002:00007a80       ??_C@_1M@OMLEIIJB@?$AAm?$AAi?$AA?9?$AAN?$AAZ@ 000000018004ca80     libucrt:lcidtoname_downlevel.obj
 0002:00007a90       ??_C@_1M@PMPEAILG@?$AAa?$AAr?$AA?9?$AAI?$AAQ@ 000000018004ca90     libucrt:lcidtoname_downlevel.obj
 0002:00007aa0       ??_C@_1M@CNKPNOEE@?$AAd?$AAe?$AA?9?$AAC?$AAH@ 000000018004caa0     libucrt:lcidtoname_downlevel.obj
 0002:00007ab0       ??_C@_1M@LKMGMLKO@?$AAe?$AAn?$AA?9?$AAG?$AAB@ 000000018004cab0     libucrt:lcidtoname_downlevel.obj
 0002:00007ac0       ??_C@_1M@PGKJFFGL@?$AAe?$AAs?$AA?9?$AAM?$AAX@ 000000018004cac0     libucrt:lcidtoname_downlevel.obj
 0002:00007ad0       ??_C@_1M@DNNANBDC@?$AAf?$AAr?$AA?9?$AAB?$AAE@ 000000018004cad0     libucrt:lcidtoname_downlevel.obj
 0002:00007ae0       ??_C@_1M@HLGMDFHM@?$AAi?$AAt?$AA?9?$AAC?$AAH@ 000000018004cae0     libucrt:lcidtoname_downlevel.obj
 0002:00007af0       ??_C@_1M@CLLBGJH@?$AAn?$AAl?$AA?9?$AAB?$AAE@ 000000018004caf0     libucrt:lcidtoname_downlevel.obj
 0002:00007b00       ??_C@_1M@BODBOGLF@?$AAn?$AAn?$AA?9?$AAN?$AAO@ 000000018004cb00     libucrt:lcidtoname_downlevel.obj
 0002:00007b10       ??_C@_1M@HFFAHKAD@?$AAp?$AAt?$AA?9?$AAP?$AAT@ 000000018004cb10     libucrt:lcidtoname_downlevel.obj
 0002:00007b20       ??_C@_1BG@LNOAKHIE@?$AAs?$AAr?$AA?9?$AAS?$AAP?$AA?9?$AAL?$AAa?$AAt?$AAn@ 000000018004cb20     libucrt:lcidtoname_downlevel.obj
 0002:00007b38       ??_C@_1M@HBMHBGAK@?$AAs?$AAv?$AA?9?$AAF?$AAI@ 000000018004cb38     libucrt:lcidtoname_downlevel.obj
 0002:00007b48       ??_C@_1BG@DGCJGJBE@?$AAa?$AAz?$AA?9?$AAA?$AAZ?$AA?9?$AAC?$AAy?$AAr?$AAl@ 000000018004cb48     libucrt:lcidtoname_downlevel.obj
 0002:00007b60       ??_C@_1M@KEJDAAHB@?$AAs?$AAe?$AA?9?$AAS?$AAE@ 000000018004cb60     libucrt:lcidtoname_downlevel.obj
 0002:00007b70       ??_C@_1M@HEIBJJAD@?$AAm?$AAs?$AA?9?$AAB?$AAN@ 000000018004cb70     libucrt:lcidtoname_downlevel.obj
 0002:00007b80       ??_C@_1BG@PBGJMCEM@?$AAu?$AAz?$AA?9?$AAU?$AAZ?$AA?9?$AAC?$AAy?$AAr?$AAl@ 000000018004cb80     libucrt:lcidtoname_downlevel.obj
 0002:00007b98       ??_C@_1O@LAOBCMDF@?$AAq?$AAu?$AAz?$AA?9?$AAE?$AAC@ 000000018004cb98     libucrt:lcidtoname_downlevel.obj
 0002:00007ba8       ??_C@_1M@POEEMAIO@?$AAa?$AAr?$AA?9?$AAE?$AAG@ 000000018004cba8     libucrt:lcidtoname_downlevel.obj
 0002:00007bb8       ??_C@_1M@EFAKDEDL@?$AAz?$AAh?$AA?9?$AAH?$AAK@ 000000018004cbb8     libucrt:lcidtoname_downlevel.obj
 0002:00007bc8       ??_C@_1M@HKKIJHGI@?$AAd?$AAe?$AA?9?$AAA?$AAT@ 000000018004cbc8     libucrt:lcidtoname_downlevel.obj
 0002:00007bd8       ??_C@_1M@KBFBEHJF@?$AAe?$AAn?$AA?9?$AAA?$AAU@ 000000018004cbd8     libucrt:lcidtoname_downlevel.obj
 0002:00007be8       ??_C@_1M@MNPLFAAH@?$AAe?$AAs?$AA?9?$AAE?$AAS@ 000000018004cbe8     libucrt:lcidtoname_downlevel.obj
 0002:00007bf8       ??_C@_1M@HJOOJFMA@?$AAf?$AAr?$AA?9?$AAC?$AAA@ 000000018004cbf8     libucrt:lcidtoname_downlevel.obj
 0002:00007c08       ??_C@_1BG@JPOFPNAB@?$AAs?$AAr?$AA?9?$AAS?$AAP?$AA?9?$AAC?$AAy?$AAr?$AAl@ 000000018004cc08     libucrt:lcidtoname_downlevel.obj
 0002:00007c20       ??_C@_1M@LNFOCMOB@?$AAs?$AAe?$AA?9?$AAF?$AAI@ 000000018004cc20     libucrt:lcidtoname_downlevel.obj
 0002:00007c30       ??_C@_1O@MGJBOAMB@?$AAq?$AAu?$AAz?$AA?9?$AAP?$AAE@ 000000018004cc30     libucrt:lcidtoname_downlevel.obj
 0002:00007c40       ??_C@_1M@GJINLBOK@?$AAa?$AAr?$AA?9?$AAL?$AAY@ 000000018004cc40     libucrt:lcidtoname_downlevel.obj
 0002:00007c50       ??_C@_1M@GGMNHJNL@?$AAz?$AAh?$AA?9?$AAS?$AAG@ 000000018004cc50     libucrt:lcidtoname_downlevel.obj
 0002:00007c60       ??_C@_1M@HOIKODND@?$AAd?$AAe?$AA?9?$AAL?$AAU@ 000000018004cc60     libucrt:lcidtoname_downlevel.obj
 0002:00007c70       ??_C@_1M@DDOCCGFG@?$AAe?$AAn?$AA?9?$AAC?$AAA@ 000000018004cc70     libucrt:lcidtoname_downlevel.obj
 0002:00007c80       ??_C@_1M@BNOEMJLF@?$AAe?$AAs?$AA?9?$AAG?$AAT@ 000000018004cc80     libucrt:lcidtoname_downlevel.obj
 0002:00007c90       ??_C@_1M@EOGNKEK@?$AAf?$AAr?$AA?9?$AAC?$AAH@ 000000018004cc90     libucrt:lcidtoname_downlevel.obj
 0002:00007ca0       ??_C@_1M@FLIDJFHL@?$AAh?$AAr?$AA?9?$AAB?$AAA@ 000000018004cca0     libucrt:lcidtoname_downlevel.obj
 0002:00007cb0       ??_C@_1O@FMCELNAJ@?$AAs?$AAm?$AAj?$AA?9?$AAN?$AAO@ 000000018004ccb0     libucrt:lcidtoname_downlevel.obj
 0002:00007cc0       ??_C@_1M@JHGLJMGJ@?$AAa?$AAr?$AA?9?$AAD?$AAZ@ 000000018004ccc0     libucrt:lcidtoname_downlevel.obj
 0002:00007cd0       ??_C@_1M@JKKFDCNP@?$AAz?$AAh?$AA?9?$AAM?$AAO@ 000000018004ccd0     libucrt:lcidtoname_downlevel.obj
 0002:00007ce0       ??_C@_1M@GEEFALPE@?$AAd?$AAe?$AA?9?$AAL?$AAI@ 000000018004cce0     libucrt:lcidtoname_downlevel.obj
 0002:00007cf0       ??_C@_1M@IGEOFBG@?$AAe?$AAn?$AA?9?$AAN?$AAZ@ 000000018004ccf0     libucrt:lcidtoname_downlevel.obj
 0002:00007d00       ??_C@_1M@KDBONEHP@?$AAe?$AAs?$AA?9?$AAC?$AAR@ 000000018004cd00     libucrt:lcidtoname_downlevel.obj
 0002:00007d10       ??_C@_1M@FHMDOHNN@?$AAf?$AAr?$AA?9?$AAL?$AAU@ 000000018004cd10     libucrt:lcidtoname_downlevel.obj
 0002:00007d20       ??_C@_1BG@NFKKMAFG@?$AAb?$AAs?$AA?9?$AAB?$AAA?$AA?9?$AAL?$AAa?$AAt?$AAn@ 000000018004cd20     libucrt:lcidtoname_downlevel.obj
 0002:00007d38       ??_C@_1O@IMNBEMCI@?$AAs?$AAm?$AAj?$AA?9?$AAS?$AAE@ 000000018004cd38     libucrt:lcidtoname_downlevel.obj
 0002:00007d48       ??_C@_1M@DHHMBNDP@?$AAa?$AAr?$AA?9?$AAM?$AAA@ 000000018004cd48     libucrt:lcidtoname_downlevel.obj
 0002:00007d58       ??_C@_1M@BNBLJCGH@?$AAe?$AAn?$AA?9?$AAI?$AAE@ 000000018004cd58     libucrt:lcidtoname_downlevel.obj
 0002:00007d68       ??_C@_1M@GEPAFMDL@?$AAe?$AAs?$AA?9?$AAP?$AAA@ 000000018004cd68     libucrt:lcidtoname_downlevel.obj
 0002:00007d78       ??_C@_1M@OJONDMDL@?$AAf?$AAr?$AA?9?$AAM?$AAC@ 000000018004cd78     libucrt:lcidtoname_downlevel.obj
 0002:00007d88       ??_C@_1BG@OBCNFJB@?$AAs?$AAr?$AA?9?$AAB?$AAA?$AA?9?$AAL?$AAa?$AAt?$AAn@ 000000018004cd88     libucrt:lcidtoname_downlevel.obj
 0002:00007da0       ??_C@_1O@KEMEEGPO@?$AAs?$AAm?$AAa?$AA?9?$AAN?$AAO@ 000000018004cda0     libucrt:lcidtoname_downlevel.obj
 0002:00007db0       ??_C@_1M@ELMGFODK@?$AAa?$AAr?$AA?9?$AAT?$AAN@ 000000018004cdb0     libucrt:lcidtoname_downlevel.obj
 0002:00007dc0       ??_C@_1M@BHDLHFAF@?$AAe?$AAn?$AA?9?$AAZ?$AAA@ 000000018004cdc0     libucrt:lcidtoname_downlevel.obj
 0002:00007dd0       ??_C@_1M@BMGIGLIF@?$AAe?$AAs?$AA?9?$AAD?$AAO@ 000000018004cdd0     libucrt:lcidtoname_downlevel.obj
 0002:00007de0       ??_C@_1BG@CMBHIPBE@?$AAs?$AAr?$AA?9?$AAB?$AAA?$AA?9?$AAC?$AAy?$AAr?$AAl@ 000000018004cde0     libucrt:lcidtoname_downlevel.obj
 0002:00007df8       ??_C@_1O@HEDBLHNP@?$AAs?$AAm?$AAa?$AA?9?$AAS?$AAE@ 000000018004cdf8     libucrt:lcidtoname_downlevel.obj
 0002:00007e08       ??_C@_1M@DAGCADIM@?$AAa?$AAr?$AA?9?$AAO?$AAM@ 000000018004ce08     libucrt:lcidtoname_downlevel.obj
 0002:00007e18       ??_C@_1M@FODLMICG@?$AAe?$AAn?$AA?9?$AAJ?$AAM@ 000000018004ce18     libucrt:lcidtoname_downlevel.obj
 0002:00007e28       ??_C@_1M@DNMLCIHB@?$AAe?$AAs?$AA?9?$AAV?$AAE@ 000000018004ce28     libucrt:lcidtoname_downlevel.obj
 0002:00007e38       ??_C@_1O@EOKHMKJK@?$AAs?$AAm?$AAs?$AA?9?$AAF?$AAI@ 000000018004ce38     libucrt:lcidtoname_downlevel.obj
 0002:00007e48       ??_C@_1M@CAFJMKOF@?$AAa?$AAr?$AA?9?$AAY?$AAE@ 000000018004ce48     libucrt:lcidtoname_downlevel.obj
 0002:00007e58       ??_C@_1M@CBFHIJLI@?$AAe?$AAn?$AA?9?$AAC?$AAB@ 000000018004ce58     libucrt:lcidtoname_downlevel.obj
 0002:00007e68       ??_C@_1M@BGNFLDN@?$AAe?$AAs?$AA?9?$AAC?$AAO@ 000000018004ce68     libucrt:lcidtoname_downlevel.obj
 0002:00007e78       ??_C@_1O@JMPHMAMC@?$AAs?$AAm?$AAn?$AA?9?$AAF?$AAI@ 000000018004ce78     libucrt:lcidtoname_downlevel.obj
 0002:00007e88       ??_C@_1M@JLANABKE@?$AAa?$AAr?$AA?9?$AAS?$AAY@ 000000018004ce88     libucrt:lcidtoname_downlevel.obj
 0002:00007e98       ??_C@_1M@HPKGCFGN@?$AAe?$AAn?$AA?9?$AAB?$AAZ@ 000000018004ce98     libucrt:lcidtoname_downlevel.obj
 0002:00007ea8       ??_C@_1M@OLJCMLGM@?$AAe?$AAs?$AA?9?$AAP?$AAE@ 000000018004cea8     libucrt:lcidtoname_downlevel.obj
 0002:00007eb8       ??_C@_1M@MKKGFKLE@?$AAa?$AAr?$AA?9?$AAJ?$AAO@ 000000018004ceb8     libucrt:lcidtoname_downlevel.obj
 0002:00007ec8       ??_C@_1M@EKPGLDNI@?$AAe?$AAn?$AA?9?$AAT?$AAT@ 000000018004cec8     libucrt:lcidtoname_downlevel.obj
 0002:00007ed8       ??_C@_1M@OONGHFHE@?$AAe?$AAs?$AA?9?$AAA?$AAR@ 000000018004ced8     libucrt:lcidtoname_downlevel.obj
 0002:00007ee8       ??_C@_1M@OOJFGBHE@?$AAa?$AAr?$AA?9?$AAL?$AAB@ 000000018004cee8     libucrt:lcidtoname_downlevel.obj
 0002:00007ef8       ??_C@_1M@GCEJHNEG@?$AAe?$AAn?$AA?9?$AAZ?$AAW@ 000000018004cef8     libucrt:lcidtoname_downlevel.obj
 0002:00007f08       ??_C@_1M@JNOCAHJI@?$AAe?$AAs?$AA?9?$AAE?$AAC@ 000000018004cf08     libucrt:lcidtoname_downlevel.obj
 0002:00007f18       ??_C@_1M@JEFHPGGB@?$AAa?$AAr?$AA?9?$AAK?$AAW@ 000000018004cf18     libucrt:lcidtoname_downlevel.obj
 0002:00007f28       ??_C@_1M@MLKIBJOJ@?$AAe?$AAn?$AA?9?$AAP?$AAH@ 000000018004cf28     libucrt:lcidtoname_downlevel.obj
 0002:00007f38       ??_C@_1M@BDNIPEND@?$AAe?$AAs?$AA?9?$AAC?$AAL@ 000000018004cf38     libucrt:lcidtoname_downlevel.obj
 0002:00007f48       ??_C@_1M@MPNMEKBD@?$AAa?$AAr?$AA?9?$AAA?$AAE@ 000000018004cf48     libucrt:lcidtoname_downlevel.obj
 0002:00007f58       ??_C@_1M@KBJALCPI@?$AAe?$AAs?$AA?9?$AAU?$AAY@ 000000018004cf58     libucrt:lcidtoname_downlevel.obj
 0002:00007f68       ??_C@_1M@LLCCOAGA@?$AAa?$AAr?$AA?9?$AAB?$AAH@ 000000018004cf68     libucrt:lcidtoname_downlevel.obj
 0002:00007f78       ??_C@_1M@PBFNCDEL@?$AAe?$AAs?$AA?9?$AAP?$AAY@ 000000018004cf78     libucrt:lcidtoname_downlevel.obj
 0002:00007f88       ??_C@_1M@EDGINPNP@?$AAa?$AAr?$AA?9?$AAQ?$AAA@ 000000018004cf88     libucrt:lcidtoname_downlevel.obj
 0002:00007f98       ??_C@_1M@MKDBIIJI@?$AAe?$AAs?$AA?9?$AAB?$AAO@ 000000018004cf98     libucrt:lcidtoname_downlevel.obj
 0002:00007fa8       ??_C@_1M@CPKKEBLD@?$AAe?$AAs?$AA?9?$AAS?$AAV@ 000000018004cfa8     libucrt:lcidtoname_downlevel.obj
 0002:00007fb8       ??_C@_1M@NDBGMMJL@?$AAe?$AAs?$AA?9?$AAH?$AAN@ 000000018004cfb8     libucrt:lcidtoname_downlevel.obj
 0002:00007fc8       ??_C@_1M@JIJIBHDP@?$AAe?$AAs?$AA?9?$AAN?$AAI@ 000000018004cfc8     libucrt:lcidtoname_downlevel.obj
 0002:00007fd8       ??_C@_1M@CGFMKEEK@?$AAe?$AAs?$AA?9?$AAP?$AAR@ 000000018004cfd8     libucrt:lcidtoname_downlevel.obj
 0002:00007fe8       ??_C@_1O@ICJHKIIK@?$AAz?$AAh?$AA?9?$AAC?$AAH?$AAT@ 000000018004cfe8     libucrt:lcidtoname_downlevel.obj
 0002:00007ff8       ??_C@_15CLNEJCE@?$AAs?$AAr@ 000000018004cff8     libucrt:lcidtoname_downlevel.obj
 0002:00008e40       ??_C@_1M@KAHEKEIG@?$AAa?$AAf?$AA?9?$AAz?$AAa@ 000000018004de40     libucrt:lcidtoname_downlevel.obj
 0002:00008e50       ??_C@_1M@GIECOABL@?$AAa?$AAr?$AA?9?$AAa?$AAe@ 000000018004de50     libucrt:lcidtoname_downlevel.obj
 0002:00008e60       ??_C@_1M@BMLMEKGI@?$AAa?$AAr?$AA?9?$AAb?$AAh@ 000000018004de60     libucrt:lcidtoname_downlevel.obj
 0002:00008e70       ??_C@_1M@DAPFDGGB@?$AAa?$AAr?$AA?9?$AAd?$AAz@ 000000018004de70     libucrt:lcidtoname_downlevel.obj
 0002:00008e80       ??_C@_1M@FJNKGKIG@?$AAa?$AAr?$AA?9?$AAe?$AAg@ 000000018004de80     libucrt:lcidtoname_downlevel.obj
 0002:00008e90       ??_C@_1M@FLGKKCLO@?$AAa?$AAr?$AA?9?$AAi?$AAq@ 000000018004de90     libucrt:lcidtoname_downlevel.obj
 0002:00008ea0       ??_C@_1M@GNDIPALM@?$AAa?$AAr?$AA?9?$AAj?$AAo@ 000000018004dea0     libucrt:lcidtoname_downlevel.obj
 0002:00008eb0       ??_C@_1M@DDMJFMGJ@?$AAa?$AAr?$AA?9?$AAk?$AAw@ 000000018004deb0     libucrt:lcidtoname_downlevel.obj
 0002:00008ec0       ??_C@_1M@EJALMLHM@?$AAa?$AAr?$AA?9?$AAl?$AAb@ 000000018004dec0     libucrt:lcidtoname_downlevel.obj
 0002:00008ed0       ??_C@_1M@MOBDBLOC@?$AAa?$AAr?$AA?9?$AAl?$AAy@ 000000018004ded0     libucrt:lcidtoname_downlevel.obj
 0002:00008ee0       ??_C@_1M@JAOCLHDH@?$AAa?$AAr?$AA?9?$AAm?$AAa@ 000000018004dee0     libucrt:lcidtoname_downlevel.obj
 0002:00008ef0       ??_C@_1M@JHPMKJIE@?$AAa?$AAr?$AA?9?$AAo?$AAm@ 000000018004def0     libucrt:lcidtoname_downlevel.obj
 0002:00008f00       ??_C@_1M@OEPGHFNH@?$AAa?$AAr?$AA?9?$AAq?$AAa@ 000000018004df00     libucrt:lcidtoname_downlevel.obj
 0002:00008f10       ??_C@_1M@KJDONENM@?$AAa?$AAr?$AA?9?$AAs?$AAa@ 000000018004df10     libucrt:lcidtoname_downlevel.obj
 0002:00008f20       ??_C@_1M@DMJDKLKM@?$AAa?$AAr?$AA?9?$AAs?$AAy@ 000000018004df20     libucrt:lcidtoname_downlevel.obj
 0002:00008f30       ??_C@_1M@OMFIPEDC@?$AAa?$AAr?$AA?9?$AAt?$AAn@ 000000018004df30     libucrt:lcidtoname_downlevel.obj
 0002:00008f40       ??_C@_1M@IHMHGAON@?$AAa?$AAr?$AA?9?$AAy?$AAe@ 000000018004df40     libucrt:lcidtoname_downlevel.obj
 0002:00008f50       ??_C@_1BG@KDCPGJGB@?$AAa?$AAz?$AA?9?$AAa?$AAz?$AA?9?$AAc?$AAy?$AAr?$AAl@ 000000018004df50     libucrt:lcidtoname_downlevel.obj
 0002:00008f68       ??_C@_1BG@IBCKDDOE@?$AAa?$AAz?$AA?9?$AAa?$AAz?$AA?9?$AAl?$AAa?$AAt?$AAn@ 000000018004df68     libucrt:lcidtoname_downlevel.obj
 0002:00008f80       ??_C@_1M@EGPFDCPD@?$AAb?$AAe?$AA?9?$AAb?$AAy@ 000000018004df80     libucrt:lcidtoname_downlevel.obj
 0002:00008f90       ??_C@_1M@PCMGMCGC@?$AAb?$AAg?$AA?9?$AAb?$AAg@ 000000018004df90     libucrt:lcidtoname_downlevel.obj
 0002:00008fa0       ??_C@_1M@BJBMFGOB@?$AAb?$AAn?$AA?9?$AAi?$AAn@ 000000018004dfa0     libucrt:lcidtoname_downlevel.obj
 0002:00008fb0       ??_C@_1BG@EAKMMACD@?$AAb?$AAs?$AA?9?$AAb?$AAa?$AA?9?$AAl?$AAa?$AAt?$AAn@ 000000018004dfb0     libucrt:lcidtoname_downlevel.obj
 0002:00008fc8       ??_C@_1M@KGADAODK@?$AAc?$AAa?$AA?9?$AAe?$AAs@ 000000018004dfc8     libucrt:lcidtoname_downlevel.obj
 0002:00008fd8       ??_C@_1M@COAJPDHI@?$AAc?$AAs?$AA?9?$AAc?$AAz@ 000000018004dfd8     libucrt:lcidtoname_downlevel.obj
 0002:00008fe8       ??_C@_1M@DHBHFONH@?$AAc?$AAy?$AA?9?$AAg?$AAb@ 000000018004dfe8     libucrt:lcidtoname_downlevel.obj
 0002:00008ff8       ??_C@_1M@IMGKELGA@?$AAd?$AAa?$AA?9?$AAd?$AAk@ 000000018004dff8     libucrt:lcidtoname_downlevel.obj
 0002:00009008       ??_C@_1M@NNDGDNGA@?$AAd?$AAe?$AA?9?$AAa?$AAt@ 000000018004e008     libucrt:lcidtoname_downlevel.obj
 0002:00009018       ??_C@_1M@IKDBHEEM@?$AAd?$AAe?$AA?9?$AAc?$AAh@ 000000018004e018     libucrt:lcidtoname_downlevel.obj
 0002:00009028       ??_C@_1M@GFFOJMCJ@?$AAd?$AAe?$AA?9?$AAd?$AAe@ 000000018004e028     libucrt:lcidtoname_downlevel.obj
 0002:00009038       ??_C@_1M@MDNLKBPM@?$AAd?$AAe?$AA?9?$AAl?$AAi@ 000000018004e038     libucrt:lcidtoname_downlevel.obj
 0002:00009048       ??_C@_1M@NJBEEJNL@?$AAd?$AAe?$AA?9?$AAl?$AAu@ 000000018004e048     libucrt:lcidtoname_downlevel.obj
 0002:00009058       ??_C@_1O@GNNELBAP@?$AAd?$AAi?$AAv?$AA?9?$AAm?$AAv@ 000000018004e058     libucrt:lcidtoname_downlevel.obj
 0002:00009068       ??_C@_1M@EJLEOGAE@?$AAe?$AAl?$AA?9?$AAg?$AAr@ 000000018004e068     libucrt:lcidtoname_downlevel.obj
 0002:00009078       ??_C@_1M@GMPONJN@?$AAe?$AAn?$AA?9?$AAa?$AAu@ 000000018004e078     libucrt:lcidtoname_downlevel.obj
 0002:00009088       ??_C@_1M@NIDIIPGF@?$AAe?$AAn?$AA?9?$AAb?$AAz@ 000000018004e088     libucrt:lcidtoname_downlevel.obj
 0002:00009098       ??_C@_1M@JEHMIMFO@?$AAe?$AAn?$AA?9?$AAc?$AAa@ 000000018004e098     libucrt:lcidtoname_downlevel.obj
 0002:000090a8       ??_C@_1M@IGMJCDLA@?$AAe?$AAn?$AA?9?$AAc?$AAb@ 000000018004e0a8     libucrt:lcidtoname_downlevel.obj
 0002:000090b8       ??_C@_1M@BNFIGBKG@?$AAe?$AAn?$AA?9?$AAg?$AAb@ 000000018004e0b8     libucrt:lcidtoname_downlevel.obj
 0002:000090c8       ??_C@_1M@LKIFDIGP@?$AAe?$AAn?$AA?9?$AAi?$AAe@ 000000018004e0c8     libucrt:lcidtoname_downlevel.obj
 0002:000090d8       ??_C@_1M@PJKFGCCO@?$AAe?$AAn?$AA?9?$AAj?$AAm@ 000000018004e0d8     libucrt:lcidtoname_downlevel.obj
 0002:000090e8       ??_C@_1M@KPPKEPBO@?$AAe?$AAn?$AA?9?$AAn?$AAz@ 000000018004e0e8     libucrt:lcidtoname_downlevel.obj
 0002:000090f8       ??_C@_1M@GMDGLDOB@?$AAe?$AAn?$AA?9?$AAp?$AAh@ 000000018004e0f8     libucrt:lcidtoname_downlevel.obj
 0002:00009108       ??_C@_1M@ONGIBJNA@?$AAe?$AAn?$AA?9?$AAt?$AAt@ 000000018004e108     libucrt:lcidtoname_downlevel.obj
 0002:00009118       ??_C@_1M@LLODPCMM@?$AAe?$AAn?$AA?9?$AAu?$AAs@ 000000018004e118     libucrt:lcidtoname_downlevel.obj
 0002:00009128       ??_C@_1M@LAKFNPAN@?$AAe?$AAn?$AA?9?$AAz?$AAa@ 000000018004e128     libucrt:lcidtoname_downlevel.obj
 0002:00009138       ??_C@_1M@MFNHNHEO@?$AAe?$AAn?$AA?9?$AAz?$AAw@ 000000018004e138     libucrt:lcidtoname_downlevel.obj
 0002:00009148       ??_C@_1M@EJEINPHM@?$AAe?$AAs?$AA?9?$AAa?$AAr@ 000000018004e148     libucrt:lcidtoname_downlevel.obj
 0002:00009158       ??_C@_1M@GNKPCCJA@?$AAe?$AAs?$AA?9?$AAb?$AAo@ 000000018004e158     libucrt:lcidtoname_downlevel.obj
 0002:00009168       ??_C@_1M@LEEGFONL@?$AAe?$AAs?$AA?9?$AAc?$AAl@ 000000018004e168     libucrt:lcidtoname_downlevel.obj
 0002:00009178       ??_C@_1M@KGPDPBDF@?$AAe?$AAs?$AA?9?$AAc?$AAo@ 000000018004e178     libucrt:lcidtoname_downlevel.obj
 0002:00009188       ??_C@_1M@EIAHOHH@?$AAe?$AAs?$AA?9?$AAc?$AAr@ 000000018004e188     libucrt:lcidtoname_downlevel.obj
 0002:00009198       ??_C@_1M@LLPGMBIN@?$AAe?$AAs?$AA?9?$AAd?$AAo@ 000000018004e198     libucrt:lcidtoname_downlevel.obj
 0002:000091a8       ??_C@_1M@DKHMKNJA@?$AAe?$AAs?$AA?9?$AAe?$AAc@ 000000018004e1a8     libucrt:lcidtoname_downlevel.obj
 0002:000091b8       ??_C@_1M@GKGFPKAP@?$AAe?$AAs?$AA?9?$AAe?$AAs@ 000000018004e1b8     libucrt:lcidtoname_downlevel.obj
 0002:000091c8       ??_C@_1M@LKHKGDLN@?$AAe?$AAs?$AA?9?$AAg?$AAt@ 000000018004e1c8     libucrt:lcidtoname_downlevel.obj
 0002:000091d8       ??_C@_1M@HEIIGGJD@?$AAe?$AAs?$AA?9?$AAh?$AAn@ 000000018004e1d8     libucrt:lcidtoname_downlevel.obj
 0002:000091e8       ??_C@_1M@FBDHPPGD@?$AAe?$AAs?$AA?9?$AAm?$AAx@ 000000018004e1e8     libucrt:lcidtoname_downlevel.obj
 0002:000091f8       ??_C@_1M@DPAGLNDH@?$AAe?$AAs?$AA?9?$AAn?$AAi@ 000000018004e1f8     libucrt:lcidtoname_downlevel.obj
 0002:00009208       ??_C@_1M@MDGOPGDD@?$AAe?$AAs?$AA?9?$AAp?$AAa@ 000000018004e208     libucrt:lcidtoname_downlevel.obj
 0002:00009218       ??_C@_1M@EMAMGBGE@?$AAe?$AAs?$AA?9?$AAp?$AAe@ 000000018004e218     libucrt:lcidtoname_downlevel.obj
 0002:00009228       ??_C@_1M@IBMCAOEC@?$AAe?$AAs?$AA?9?$AAp?$AAr@ 000000018004e228     libucrt:lcidtoname_downlevel.obj
 0002:00009238       ??_C@_1M@FGMDIJED@?$AAe?$AAs?$AA?9?$AAp?$AAy@ 000000018004e238     libucrt:lcidtoname_downlevel.obj
 0002:00009248       ??_C@_1M@IIDEOLLL@?$AAe?$AAs?$AA?9?$AAs?$AAv@ 000000018004e248     libucrt:lcidtoname_downlevel.obj
 0002:00009258       ??_C@_1M@GAOBIPA@?$AAe?$AAs?$AA?9?$AAu?$AAy@ 000000018004e258     libucrt:lcidtoname_downlevel.obj
 0002:00009268       ??_C@_1M@JKFFICHJ@?$AAe?$AAs?$AA?9?$AAv?$AAe@ 000000018004e268     libucrt:lcidtoname_downlevel.obj
 0002:00009278       ??_C@_1M@PNMLOJDF@?$AAe?$AAt?$AA?9?$AAe?$AAe@ 000000018004e278     libucrt:lcidtoname_downlevel.obj
 0002:00009288       ??_C@_1M@GHHLIKEI@?$AAe?$AAu?$AA?9?$AAe?$AAs@ 000000018004e288     libucrt:lcidtoname_downlevel.obj
 0002:00009298       ??_C@_1M@PBNONODE@?$AAf?$AAa?$AA?9?$AAi?$AAr@ 000000018004e298     libucrt:lcidtoname_downlevel.obj
 0002:000092a8       ??_C@_1M@JEEHPMIL@?$AAf?$AAi?$AA?9?$AAf?$AAi@ 000000018004e2a8     libucrt:lcidtoname_downlevel.obj
 0002:000092b8       ??_C@_1M@LMDCNDBA@?$AAf?$AAo?$AA?9?$AAf?$AAo@ 000000018004e2b8     libucrt:lcidtoname_downlevel.obj
 0002:000092c8       ??_C@_1M@JKEOHLDK@?$AAf?$AAr?$AA?9?$AAb?$AAe@ 000000018004e2c8     libucrt:lcidtoname_downlevel.obj
 0002:000092d8       ??_C@_1M@NOHADPMI@?$AAf?$AAr?$AA?9?$AAc?$AAa@ 000000018004e2d8     libucrt:lcidtoname_downlevel.obj
 0002:000092e8       ??_C@_1M@KDHIHAEC@?$AAf?$AAr?$AA?9?$AAc?$AAh@ 000000018004e2e8     libucrt:lcidtoname_downlevel.obj
 0002:000092f8       ??_C@_1M@MMBBFGAK@?$AAf?$AAr?$AA?9?$AAf?$AAr@ 000000018004e2f8     libucrt:lcidtoname_downlevel.obj
 0002:00009308       ??_C@_1M@PAFNENNF@?$AAf?$AAr?$AA?9?$AAl?$AAu@ 000000018004e308     libucrt:lcidtoname_downlevel.obj
 0002:00009318       ??_C@_1M@EOHDJGDD@?$AAf?$AAr?$AA?9?$AAm?$AAc@ 000000018004e318     libucrt:lcidtoname_downlevel.obj
 0002:00009328       ??_C@_1M@FAPLLOPF@?$AAg?$AAl?$AA?9?$AAe?$AAs@ 000000018004e328     libucrt:lcidtoname_downlevel.obj
 0002:00009338       ??_C@_1M@FOPBFLOO@?$AAg?$AAu?$AA?9?$AAi?$AAn@ 000000018004e338     libucrt:lcidtoname_downlevel.obj
 0002:00009348       ??_C@_1M@KBMCINPM@?$AAh?$AAe?$AA?9?$AAi?$AAl@ 000000018004e348     libucrt:lcidtoname_downlevel.obj
 0002:00009358       ??_C@_1M@BBPHKFPJ@?$AAh?$AAi?$AA?9?$AAi?$AAn@ 000000018004e358     libucrt:lcidtoname_downlevel.obj
 0002:00009368       ??_C@_1M@PMBNDPHD@?$AAh?$AAr?$AA?9?$AAb?$AAa@ 000000018004e368     libucrt:lcidtoname_downlevel.obj
 0002:00009378       ??_C@_1M@BPCKOEGE@?$AAh?$AAr?$AA?9?$AAh?$AAr@ 000000018004e378     libucrt:lcidtoname_downlevel.obj
 0002:00009388       ??_C@_1M@GACBMHKE@?$AAh?$AAu?$AA?9?$AAh?$AAu@ 000000018004e388     libucrt:lcidtoname_downlevel.obj
 0002:00009398       ??_C@_1M@MILPAJJC@?$AAh?$AAy?$AA?9?$AAa?$AAm@ 000000018004e398     libucrt:lcidtoname_downlevel.obj
 0002:000093a8       ??_C@_1M@BABBICEC@?$AAi?$AAd?$AA?9?$AAi?$AAd@ 000000018004e3a8     libucrt:lcidtoname_downlevel.obj
 0002:000093b8       ??_C@_1M@BIKNHHPF@?$AAi?$AAs?$AA?9?$AAi?$AAs@ 000000018004e3b8     libucrt:lcidtoname_downlevel.obj
 0002:000093c8       ??_C@_1M@NMPCJPHE@?$AAi?$AAt?$AA?9?$AAc?$AAh@ 000000018004e3c8     libucrt:lcidtoname_downlevel.obj
 0002:000093d8       ??_C@_1M@GHKGFEDF@?$AAi?$AAt?$AA?9?$AAi?$AAt@ 000000018004e3d8     libucrt:lcidtoname_downlevel.obj
 0002:000093e8       ??_C@_1M@NIEJCJJA@?$AAj?$AAa?$AA?9?$AAj?$AAp@ 000000018004e3e8     libucrt:lcidtoname_downlevel.obj
 0002:000093f8       ??_C@_1M@JILFNBIM@?$AAk?$AAa?$AA?9?$AAg?$AAe@ 000000018004e3f8     libucrt:lcidtoname_downlevel.obj
 0002:00009408       ??_C@_1M@PACPMGPH@?$AAk?$AAk?$AA?9?$AAk?$AAz@ 000000018004e408     libucrt:lcidtoname_downlevel.obj
 0002:00009418       ??_C@_1M@IELFGMHA@?$AAk?$AAn?$AA?9?$AAi?$AAn@ 000000018004e418     libucrt:lcidtoname_downlevel.obj
 0002:00009428       ??_C@_1O@IBBJHCH@?$AAk?$AAo?$AAk?$AA?9?$AAi?$AAn@ 000000018004e428     libucrt:lcidtoname_downlevel.obj
 0002:00009438       ??_C@_1M@DMHAEOGC@?$AAk?$AAo?$AA?9?$AAk?$AAr@ 000000018004e438     libucrt:lcidtoname_downlevel.obj
 0002:00009448       ??_C@_1M@HBAHBIGA@?$AAk?$AAy?$AA?9?$AAk?$AAg@ 000000018004e448     libucrt:lcidtoname_downlevel.obj
 0002:00009458       ??_C@_1M@KPMILCJG@?$AAl?$AAt?$AA?9?$AAl?$AAt@ 000000018004e458     libucrt:lcidtoname_downlevel.obj
 0002:00009468       ??_C@_1M@BDEKKCA@?$AAl?$AAv?$AA?9?$AAl?$AAv@ 000000018004e468     libucrt:lcidtoname_downlevel.obj
 0002:00009478       ??_C@_1M@ELCKCCJJ@?$AAm?$AAi?$AA?9?$AAn?$AAz@ 000000018004e478     libucrt:lcidtoname_downlevel.obj
 0002:00009488       ??_C@_1M@CBOOLAPA@?$AAm?$AAk?$AA?9?$AAm?$AAk@ 000000018004e488     libucrt:lcidtoname_downlevel.obj
 0002:00009498       ??_C@_1M@GPHNBJKN@?$AAm?$AAl?$AA?9?$AAi?$AAn@ 000000018004e498     libucrt:lcidtoname_downlevel.obj
 0002:000094a8       ??_C@_1M@PABJILIG@?$AAm?$AAn?$AA?9?$AAm?$AAn@ 000000018004e4a8     libucrt:lcidtoname_downlevel.obj
 0002:000094b8       ??_C@_1M@FGBKKIPG@?$AAm?$AAr?$AA?9?$AAi?$AAn@ 000000018004e4b8     libucrt:lcidtoname_downlevel.obj
 0002:000094c8       ??_C@_1M@NDBPDDAL@?$AAm?$AAs?$AA?9?$AAb?$AAn@ 000000018004e4c8     libucrt:lcidtoname_downlevel.obj
 0002:000094d8       ??_C@_1M@OPIHOOPI@?$AAm?$AAs?$AA?9?$AAm?$AAy@ 000000018004e4d8     libucrt:lcidtoname_downlevel.obj
 0002:000094e8       ??_C@_1M@PPDBCNFM@?$AAm?$AAt?$AA?9?$AAm?$AAt@ 000000018004e4e8     libucrt:lcidtoname_downlevel.obj
 0002:000094f8       ??_C@_1M@KDJDKMDD@?$AAn?$AAb?$AA?9?$AAn?$AAo@ 000000018004e4f8     libucrt:lcidtoname_downlevel.obj
 0002:00009508       ??_C@_1M@KFCFLMJP@?$AAn?$AAl?$AA?9?$AAb?$AAe@ 000000018004e508     libucrt:lcidtoname_downlevel.obj
 0002:00009518       ??_C@_1M@KPOPDDGO@?$AAn?$AAl?$AA?9?$AAn?$AAl@ 000000018004e518     libucrt:lcidtoname_downlevel.obj
 0002:00009528       ??_C@_1M@LJKPEMLN@?$AAn?$AAn?$AA?9?$AAn?$AAo@ 000000018004e528     libucrt:lcidtoname_downlevel.obj
 0002:00009538       ??_C@_1M@BDGHHBFL@?$AAn?$AAs?$AA?9?$AAz?$AAa@ 000000018004e538     libucrt:lcidtoname_downlevel.obj
 0002:00009548       ??_C@_1M@IDEHOAP@?$AAp?$AAa?$AA?9?$AAi?$AAn@ 000000018004e548     libucrt:lcidtoname_downlevel.obj
 0002:00009558       ??_C@_1M@HDBKGOGH@?$AAp?$AAl?$AA?9?$AAp?$AAl@ 000000018004e558     libucrt:lcidtoname_downlevel.obj
 0002:00009568       ??_C@_1M@LJLLCMEH@?$AAp?$AAt?$AA?9?$AAb?$AAr@ 000000018004e568     libucrt:lcidtoname_downlevel.obj
 0002:00009578       ??_C@_1M@NCMONAAL@?$AAp?$AAt?$AA?9?$AAp?$AAt@ 000000018004e578     libucrt:lcidtoname_downlevel.obj
 0002:00009588       ??_C@_1O@EAKMAJDN@?$AAq?$AAu?$AAz?$AA?9?$AAb?$AAo@ 000000018004e588     libucrt:lcidtoname_downlevel.obj
 0002:00009598       ??_C@_1O@BHHPIGDN@?$AAq?$AAu?$AAz?$AA?9?$AAe?$AAc@ 000000018004e598     libucrt:lcidtoname_downlevel.obj
 0002:000095a8       ??_C@_1O@GBAPEKMJ@?$AAq?$AAu?$AAz?$AA?9?$AAp?$AAe@ 000000018004e5a8     libucrt:lcidtoname_downlevel.obj
 0002:000095b8       ??_C@_1M@CLGLEFBO@?$AAr?$AAo?$AA?9?$AAr?$AAo@ 000000018004e5b8     libucrt:lcidtoname_downlevel.obj
 0002:000095c8       ??_C@_1M@CEEDODME@?$AAr?$AAu?$AA?9?$AAr?$AAu@ 000000018004e5c8     libucrt:lcidtoname_downlevel.obj
 0002:000095d8       ??_C@_1M@HPKKKMPP@?$AAs?$AAa?$AA?9?$AAi?$AAn@ 000000018004e5d8     libucrt:lcidtoname_downlevel.obj
 0002:000095e8       ??_C@_1M@BKMAIGOJ@?$AAs?$AAe?$AA?9?$AAf?$AAi@ 000000018004e5e8     libucrt:lcidtoname_downlevel.obj
 0002:000095f8       ??_C@_1M@NDPIFLFI@?$AAs?$AAe?$AA?9?$AAn?$AAo@ 000000018004e5f8     libucrt:lcidtoname_downlevel.obj
 0002:00009608       ??_C@_1M@DANKKHJ@?$AAs?$AAe?$AA?9?$AAs?$AAe@ 000000018004e608     libucrt:lcidtoname_downlevel.obj
 0002:00009618       ??_C@_1M@PNBLONPJ@?$AAs?$AAk?$AA?9?$AAs?$AAk@ 000000018004e618     libucrt:lcidtoname_downlevel.obj
 0002:00009628       ??_C@_1M@LFMODOAL@?$AAs?$AAl?$AA?9?$AAs?$AAi@ 000000018004e628     libucrt:lcidtoname_downlevel.obj
 0002:00009638       ??_C@_1O@DFKOMPG@?$AAs?$AAm?$AAa?$AA?9?$AAn?$AAo@ 000000018004e638     libucrt:lcidtoname_downlevel.obj
 0002:00009648       ??_C@_1O@NDKPBNNH@?$AAs?$AAm?$AAa?$AA?9?$AAs?$AAe@ 000000018004e648     libucrt:lcidtoname_downlevel.obj
 0002:00009658       ??_C@_1O@PLLKBHAB@?$AAs?$AAm?$AAj?$AA?9?$AAn?$AAo@ 000000018004e658     libucrt:lcidtoname_downlevel.obj
 0002:00009668       ??_C@_1O@CLEPOGCA@?$AAs?$AAm?$AAj?$AA?9?$AAs?$AAe@ 000000018004e668     libucrt:lcidtoname_downlevel.obj
 0002:00009678       ??_C@_1O@DLGJGKMK@?$AAs?$AAm?$AAn?$AA?9?$AAf?$AAi@ 000000018004e678     libucrt:lcidtoname_downlevel.obj
 0002:00009688       ??_C@_1O@OJDJGAJC@?$AAs?$AAm?$AAs?$AA?9?$AAf?$AAi@ 000000018004e688     libucrt:lcidtoname_downlevel.obj
 0002:00009698       ??_C@_1M@BOFOGHPB@?$AAs?$AAq?$AA?9?$AAa?$AAl@ 000000018004e698     libucrt:lcidtoname_downlevel.obj
 0002:000096a8       ??_C@_1BG@LJBBIPGB@?$AAs?$AAr?$AA?9?$AAb?$AAa?$AA?9?$AAc?$AAy?$AAr?$AAl@ 000000018004e6a8     libucrt:lcidtoname_downlevel.obj
 0002:000096c0       ??_C@_1BG@JLBENFOE@?$AAs?$AAr?$AA?9?$AAb?$AAa?$AA?9?$AAl?$AAa?$AAt?$AAn@ 000000018004e6c0     libucrt:lcidtoname_downlevel.obj
 0002:000096d8       ??_C@_1BG@KODPNHE@?$AAs?$AAr?$AA?9?$AAs?$AAp?$AA?9?$AAc?$AAy?$AAr?$AAl@ 000000018004e6d8     libucrt:lcidtoname_downlevel.obj
 0002:000096f0       ??_C@_1BG@CIOGKHPB@?$AAs?$AAr?$AA?9?$AAs?$AAp?$AA?9?$AAl?$AAa?$AAt?$AAn@ 000000018004e6f0     libucrt:lcidtoname_downlevel.obj
 0002:00009708       ??_C@_1M@NGFJLMAC@?$AAs?$AAv?$AA?9?$AAf?$AAi@ 000000018004e708     libucrt:lcidtoname_downlevel.obj
 0002:00009718       ??_C@_1M@MPJEJAJC@?$AAs?$AAv?$AA?9?$AAs?$AAe@ 000000018004e718     libucrt:lcidtoname_downlevel.obj
 0002:00009728       ??_C@_1M@MPNDHLFK@?$AAs?$AAw?$AA?9?$AAk?$AAe@ 000000018004e728     libucrt:lcidtoname_downlevel.obj
 0002:00009738       ??_C@_1O@KOHBJJI@?$AAs?$AAy?$AAr?$AA?9?$AAs?$AAy@ 000000018004e738     libucrt:lcidtoname_downlevel.obj
 0002:00009748       ??_C@_1M@LDCEFHA@?$AAt?$AAa?$AA?9?$AAi?$AAn@ 000000018004e748     libucrt:lcidtoname_downlevel.obj
 0002:00009758       ??_C@_1M@CNJOFAK@?$AAt?$AAe?$AA?9?$AAi?$AAn@ 000000018004e758     libucrt:lcidtoname_downlevel.obj
 0002:00009768       ??_C@_1M@GNAECACD@?$AAt?$AAh?$AA?9?$AAt?$AAh@ 000000018004e768     libucrt:lcidtoname_downlevel.obj
 0002:00009778       ??_C@_1M@CHBIHOJO@?$AAt?$AAn?$AA?9?$AAz?$AAa@ 000000018004e778     libucrt:lcidtoname_downlevel.obj
 0002:00009788       ??_C@_1M@GCCMIGPJ@?$AAt?$AAr?$AA?9?$AAt?$AAr@ 000000018004e788     libucrt:lcidtoname_downlevel.obj
 0002:00009798       ??_C@_1M@CELMCNBK@?$AAt?$AAt?$AA?9?$AAr?$AAu@ 000000018004e798     libucrt:lcidtoname_downlevel.obj
 0002:000097a8       ??_C@_1M@KLMCELGA@?$AAu?$AAk?$AA?9?$AAu?$AAa@ 000000018004e7a8     libucrt:lcidtoname_downlevel.obj
 0002:000097b8       ??_C@_1M@EPAJJAJF@?$AAu?$AAr?$AA?9?$AAp?$AAk@ 000000018004e7b8     libucrt:lcidtoname_downlevel.obj
 0002:000097c8       ??_C@_1BG@GEGPMCDJ@?$AAu?$AAz?$AA?9?$AAu?$AAz?$AA?9?$AAc?$AAy?$AAr?$AAl@ 000000018004e7c8     libucrt:lcidtoname_downlevel.obj
 0002:000097e0       ??_C@_1BG@EGGKJILM@?$AAu?$AAz?$AA?9?$AAu?$AAz?$AA?9?$AAl?$AAa?$AAt?$AAn@ 000000018004e7e0     libucrt:lcidtoname_downlevel.obj
 0002:000097f8       ??_C@_1M@GFOCLFF@?$AAv?$AAi?$AA?9?$AAv?$AAn@ 000000018004e7f8     libucrt:lcidtoname_downlevel.obj
 0002:00009808       ??_C@_1M@CPAMEDFI@?$AAx?$AAh?$AA?9?$AAz?$AAa@ 000000018004e808     libucrt:lcidtoname_downlevel.obj
 0002:00009818       ??_C@_1O@EBKIFIGN@?$AAz?$AAh?$AA?9?$AAc?$AAh?$AAs@ 000000018004e818     libucrt:lcidtoname_downlevel.obj
 0002:00009828       ??_C@_1O@NMHPGANE@?$AAz?$AAh?$AA?9?$AAc?$AAh?$AAt@ 000000018004e828     libucrt:lcidtoname_downlevel.obj
 0002:00009838       ??_C@_1M@LPINJOMC@?$AAz?$AAh?$AA?9?$AAc?$AAn@ 000000018004e838     libucrt:lcidtoname_downlevel.obj
 0002:00009848       ??_C@_1M@OCJEJODD@?$AAz?$AAh?$AA?9?$AAh?$AAk@ 000000018004e848     libucrt:lcidtoname_downlevel.obj
 0002:00009858       ??_C@_1M@DNDLJINH@?$AAz?$AAh?$AA?9?$AAm?$AAo@ 000000018004e858     libucrt:lcidtoname_downlevel.obj
 0002:00009868       ??_C@_1M@MBFDNDND@?$AAz?$AAh?$AA?9?$AAs?$AAg@ 000000018004e868     libucrt:lcidtoname_downlevel.obj
 0002:00009878       ??_C@_1M@IMEPLEPE@?$AAz?$AAh?$AA?9?$AAt?$AAw@ 000000018004e878     libucrt:lcidtoname_downlevel.obj
 0002:00009888       ??_C@_1M@BBGHNHJP@?$AAz?$AAu?$AA?9?$AAz?$AAa@ 000000018004e888     libucrt:lcidtoname_downlevel.obj
 0002:000098a0       ?large_power_data@?1??multiply_by_power_of_ten@__crt_strtox@@YA_NAEAUbig_integer@2@I@Z@4QBIB 000000018004e8a0     libucrt:cfout.obj
 0002:0000a1b0       ?large_power_indices@?1??multiply_by_power_of_ten@__crt_strtox@@YA_NAEAUbig_integer@2@I@Z@4QBUunpack_index@?1??12@YA_N0I@Z@B 000000018004f1b0     libucrt:cfout.obj
 0002:0000a248       ?small_powers_of_ten@?1??multiply_by_power_of_ten@__crt_strtox@@YA_NAEAUbig_integer@2@I@Z@4QBIB 000000018004f248     libucrt:cfout.obj
 0002:0000a26c       ??_C@_01GBGANLPD@0@        000000018004f26c     libucrt:cfout.obj
 0002:0000a270       ??_C@_05DNEBIAHO@1?$CDINF@ 000000018004f270     libucrt:cfout.obj
 0002:0000a278       ??_C@_06IMKFLFPG@1?$CDQNAN@ 000000018004f278     libucrt:cfout.obj
 0002:0000a280       ??_C@_06PGGFOGJG@1?$CDSNAN@ 000000018004f280     libucrt:cfout.obj
 0002:0000a288       ??_C@_05PHHOCPM@1?$CDIND@  000000018004f288     libucrt:cfout.obj
 0002:0000a4e0       ??_C@_1BA@BALFACEM@?$AAC?$AAO?$AAN?$AAO?$AAU?$AAT?$AA$@ 000000018004f4e0     libucrt:initcon.obj
 0002:0000a4f0       __log10_256_lead           000000018004f4f0     libucrt:log10_256_lead_tail_table.obj
 0002:0000ad00       __log10_256_tail           000000018004fd00     libucrt:log10_256_lead_tail_table.obj
 0002:0000b510       __log_F_inv_qword          0000000180050510     libucrt:log_f_inv_qword_table.obj
 0002:0000be00       ??_R4type_info@@6B@        0000000180050e00     LIBCMT:std_type_info_static.obj
 0002:0000be28       ??_R3type_info@@8          0000000180050e28     LIBCMT:std_type_info_static.obj
 0002:0000be40       ??_R2type_info@@8          0000000180050e40     LIBCMT:std_type_info_static.obj
 0002:0000be50       ??_R1A@?0A@EA@type_info@@8 0000000180050e50     LIBCMT:std_type_info_static.obj
 0002:0000be78       ??_R3DNameNode@@8          0000000180050e78     libvcruntime:undname.obj
 0002:0000be90       ??_R2DNameNode@@8          0000000180050e90     libvcruntime:undname.obj
 0002:0000bea0       ??_R1A@?0A@EA@DNameNode@@8 0000000180050ea0     libvcruntime:undname.obj
 0002:0000bec8       ??_R4charNode@@6B@         0000000180050ec8     libvcruntime:undname.obj
 0002:0000bef0       ??_R3charNode@@8           0000000180050ef0     libvcruntime:undname.obj
 0002:0000bf08       ??_R2charNode@@8           0000000180050f08     libvcruntime:undname.obj
 0002:0000bf20       ??_R1A@?0A@EA@charNode@@8  0000000180050f20     libvcruntime:undname.obj
 0002:0000bf48       ??_R4pcharNode@@6B@        0000000180050f48     libvcruntime:undname.obj
 0002:0000bf70       ??_R3pcharNode@@8          0000000180050f70     libvcruntime:undname.obj
 0002:0000bf88       ??_R2pcharNode@@8          0000000180050f88     libvcruntime:undname.obj
 0002:0000bfa0       ??_R1A@?0A@EA@pcharNode@@8 0000000180050fa0     libvcruntime:undname.obj
 0002:0000bfc8       ??_R4pDNameNode@@6B@       0000000180050fc8     libvcruntime:undname.obj
 0002:0000bff0       ??_R3pDNameNode@@8         0000000180050ff0     libvcruntime:undname.obj
 0002:0000c008       ??_R2pDNameNode@@8         0000000180051008     libvcruntime:undname.obj
 0002:0000c020       ??_R1A@?0A@EA@pDNameNode@@8 0000000180051020     libvcruntime:undname.obj
 0002:0000c048       ??_R4DNameStatusNode@@6B@  0000000180051048     libvcruntime:undname.obj
 0002:0000c070       ??_R3DNameStatusNode@@8    0000000180051070     libvcruntime:undname.obj
 0002:0000c088       ??_R2DNameStatusNode@@8    0000000180051088     libvcruntime:undname.obj
 0002:0000c0a0       ??_R1A@?0A@EA@DNameStatusNode@@8 00000001800510a0     libvcruntime:undname.obj
 0002:0000c0c8       ??_R4pairNode@@6B@         00000001800510c8     libvcruntime:undname.obj
 0002:0000c0f0       ??_R3pairNode@@8           00000001800510f0     libvcruntime:undname.obj
 0002:0000c108       ??_R2pairNode@@8           0000000180051108     libvcruntime:undname.obj
 0002:0000c120       ??_R1A@?0A@EA@pairNode@@8  0000000180051120     libvcruntime:undname.obj
 0002:0000c148       ??_R4exception@std@@6B@    0000000180051148     libvcruntime:frame.obj
 0002:0000c170       ??_R3exception@std@@8      0000000180051170     libvcruntime:frame.obj
 0002:0000c188       ??_R2exception@std@@8      0000000180051188     libvcruntime:frame.obj
 0002:0000c198       ??_R1A@?0A@EA@exception@std@@8 0000000180051198     libvcruntime:frame.obj
 0002:0000c1c0       ??_R4bad_exception@std@@6B@ 00000001800511c0     libvcruntime:frame.obj
 0002:0000c1e8       ??_R3bad_exception@std@@8  00000001800511e8     libvcruntime:frame.obj
 0002:0000c200       ??_R2bad_exception@std@@8  0000000180051200     libvcruntime:frame.obj
 0002:0000c218       ??_R1A@?0A@EA@bad_exception@std@@8 0000000180051218     libvcruntime:frame.obj
 0002:0000c23c       __volatile_metadata        000000018005123c     <linker-defined>
 0002:0000c7b0       __rtc_iaa                  00000001800517b0     LIBCMT:initsect.obj
 0002:0000c7b8       __rtc_izz                  00000001800517b8     LIBCMT:initsect.obj
 0002:0000c7c0       __rtc_taa                  00000001800517c0     LIBCMT:initsect.obj
 0002:0000c7c8       __rtc_tzz                  00000001800517c8     LIBCMT:initsect.obj
 0002:000103e8       _TI2?AVbad_exception@std@@ 00000001800553e8     libvcruntime:frame.obj
 0002:00010408       _CTA2?AVbad_exception@std@@ 0000000180055408     libvcruntime:frame.obj
 0002:00010420       _CT??_R0?AVbad_exception@std@@@8??0bad_exception@std@@QEAA@AEBV01@@Z24 0000000180055420     libvcruntime:frame.obj
 0002:00010448       _CT??_R0?AVexception@std@@@8??0exception@std@@QEAA@AEBV01@@Z24 0000000180055448     libvcruntime:frame.obj
 0002:0001046c       __DELAY_IMPORT_DESCRIPTOR_physxcommon_64_dll 000000018005546c     PhysXCommon_64:PhysXCommon_64.dll
 0002:0001048c       __DELAY_IMPORT_DESCRIPTOR_physxfoundation_64_dll 000000018005548c     PhysXFoundation_64:PhysXFoundation_64.dll
 0002:000104ac       __NULL_DELAY_IMPORT_DESCRIPTOR 00000001800554ac     PhysXCommon_64:PhysXCommon_64.dll
 0002:000105f0       \177PhysXCommon_64_NULL_THUNK_DATA_DLN 00000001800555f0     PhysXCommon_64:PhysXCommon_64.dll
 0002:00010678       \177PhysXFoundation_64_NULL_THUNK_DATA_DLN 0000000180055678     PhysXFoundation_64:PhysXFoundation_64.dll
 0002:000110d8       \177PhysXCommon_64_NULL_THUNK_DATA_DLB 00000001800560d8     PhysXCommon_64:PhysXCommon_64.dll
 0002:00011200       \177PhysXFoundation_64_NULL_THUNK_DATA_DLB 0000000180056200     PhysXFoundation_64:PhysXFoundation_64.dll
 0002:00012fb4       __IMPORT_DESCRIPTOR_KERNEL32 0000000180057fb4     kernel32:KERNEL32.dll
 0002:00012fc8       __NULL_IMPORT_DESCRIPTOR   0000000180057fc8     kernel32:KERNEL32.dll
 0003:00000008       __pfnDliNotifyHook2        0000000180059008     WindowsCookingDelayLoadHook.obj
 0003:00000010       _fltused                   0000000180059010     LIBCMT:fltused.obj
 0003:00000020       __isa_available            0000000180059020     LIBCMT:cpu_disp.obj
 0003:00000024       __isa_enabled              0000000180059024     LIBCMT:cpu_disp.obj
 0003:00000028       __memcpy_nt_iters          0000000180059028     LIBCMT:cpu_disp.obj
 0003:00000030       __memset_nt_iters          0000000180059030     LIBCMT:cpu_disp.obj
 0003:00000040       __scrt_native_dllmain_reason 0000000180059040     LIBCMT:utility.obj
 0003:00000048       __security_cookie_complement 0000000180059048     LIBCMT:gs_cookie.obj
 0003:00000050       __security_cookie          0000000180059050     LIBCMT:gs_cookie.obj
 0003:00000080       __abort_behavior           0000000180059080     libucrt:abort.obj
 0003:000000b0       __acrt_initial_multibyte_data 00000001800590b0     libucrt:mbctype.obj
 0003:000005f0       __acrt_initial_locale_data 00000001800595f0     libucrt:nlsdata.obj
 0003:00000748       __acrt_initial_locale_pointers 0000000180059748     libucrt:nlsdata.obj
 0003:00000758       __acrt_wide_c_locale_string 0000000180059758     libucrt:nlsdata.obj
 0003:00000760       _iob                       0000000180059760     libucrt:_file.obj
 0003:00000870       __globallocalestatus       0000000180059870     libucrt:glstatus.obj
 0003:00000880       __acrt_lconv_c             0000000180059880     libucrt:localeconv.obj
 0003:00000918       __acrt_lconv_static_decimal 0000000180059918     libucrt:localeconv.obj
 0003:0000091c       __acrt_lconv_static_W_decimal 000000018005991c     libucrt:localeconv.obj
 0003:00000920       _lookuptrailbytes          0000000180059920     libucrt:read.obj
 0003:00000a30       ??_R0?AVAdjEdge@@@8        0000000180059a30     Adjacencies.obj
 0003:00000a50       ??_R0I@8                   0000000180059a50     Adjacencies.obj
 0003:00000a68       ??_R0?AVAdjTriangle@physx@@@8 0000000180059a68     Adjacencies.obj
 0003:00000a90       ??_R0?AVHeightField@Gu@physx@@@8 0000000180059a90     Cooking.obj
 0003:00000ac0       ??_R0?AVCooking@physx@@@8  0000000180059ac0     Cooking.obj
 0003:00000ae8       ??_R0?AVQuickHullConvexHullLib@physx@@@8 0000000180059ae8     Cooking.obj
 0003:00000b20       ??_R0M@8                   0000000180059b20     CookingUtils.obj
 0003:00000b38       ??_R0?AUEdgeData@Gu@physx@@@8 0000000180059b38     EdgeList.obj
 0003:00000b60       ??_R0?AUEdgeTriangleData@Gu@physx@@@8 0000000180059b60     EdgeList.obj
 0003:00000b90       ??_R0?AVQuantizerImpl@@@8  0000000180059b90     Quantizer.obj
 0003:00000bb8       ??_R0?AVEdgeListBuilder@Gu@physx@@@8 0000000180059bb8     TriangleMeshBuilder.obj
 0003:00000be8       ??_R0?AVBV32Tree@Gu@physx@@@8 0000000180059be8     TriangleMeshBuilder.obj
 0003:00000c10       ??_R0E@8                   0000000180059c10     TriangleMeshBuilder.obj
 0003:00000c28       ??_R0G@8                   0000000180059c28     TriangleMeshBuilder.obj
 0003:00000c40       ??_R0?AUEdgeDescData@Gu@physx@@@8 0000000180059c40     ConvexHullBuilder.obj
 0003:00000c70       ??_R0_N@8                  0000000180059c70     ConvexHullBuilder.obj
 0003:00000c88       ??_R0?AVConvexHull@physx@@@8 0000000180059c88     ConvexHullUtils.obj
 0003:00000cb0       ??_R0?AVBigConvexData@physx@@@8 0000000180059cb0     ConvexMeshBuilder.obj
 0003:00000ce0       ??_R0?AUHullTriangleData@physx@@@8 0000000180059ce0     ConvexPolygonsBuilder.obj
 0003:00000d10       ??_R0?AVQuickHull@local@@@8 0000000180059d10     QuickHullConvexHullLib.obj
 0003:00000d38       ??_R0?AVbad_exception@std@@@8 0000000180059d38     libvcruntime:frame.obj
 0003:00000d60       ??_R0?AVexception@std@@@8  0000000180059d60     libvcruntime:frame.obj
 0003:00000d88       ??_R0?AVtype_info@@@8      0000000180059d88     LIBCMT:std_type_info_static.obj
 0003:00000da8       ??_R0?AVDNameNode@@@8      0000000180059da8     libvcruntime:undname.obj
 0003:00000dc8       ??_R0?AVcharNode@@@8       0000000180059dc8     libvcruntime:undname.obj
 0003:00000de8       ??_R0?AVpcharNode@@@8      0000000180059de8     libvcruntime:undname.obj
 0003:00000e08       ??_R0?AVpDNameNode@@@8     0000000180059e08     libvcruntime:undname.obj
 0003:00000e30       ??_R0?AVDNameStatusNode@@@8 0000000180059e30     libvcruntime:undname.obj
 0003:00000e58       ??_R0?AVpairNode@@@8       0000000180059e58     libvcruntime:undname.obj
 0003:00000e78       __imp_??0RadixSortBuffered@Cm@physx@@QEAA@XZ 0000000180059e78     PhysXCommon_64:PhysXCommon_64.dll
 0003:00000e80       __imp_??1BigConvexData@physx@@QEAA@XZ 0000000180059e80     PhysXCommon_64:PhysXCommon_64.dll
 0003:00000e88       __imp_??1RadixSortBuffered@Cm@physx@@UEAA@XZ 0000000180059e88     PhysXCommon_64:PhysXCommon_64.dll
 0003:00000e90       __imp_?Sort@RadixSortBuffered@Cm@physx@@QEAAAEAV123@PEBIIW4RadixHint@23@@Z 0000000180059e90     PhysXCommon_64:PhysXCommon_64.dll
 0003:00000e98       __imp_??0HeightField@Gu@physx@@QEAA@PEAVGuMeshFactory@2@@Z 0000000180059e98     PhysXCommon_64:PhysXCommon_64.dll
 0003:00000ea0       __imp_?loadFromDesc@HeightField@Gu@physx@@QEAA_NAEBVPxHeightFieldDesc@3@@Z 0000000180059ea0     PhysXCommon_64:PhysXCommon_64.dll
 0003:00000ea8       __imp_?computeCellCoordinates@HeightField@Gu@physx@@QEBAIMMAEAM0@Z 0000000180059ea8     PhysXCommon_64:PhysXCommon_64.dll
 0003:00000eb0       __imp_?releaseMemory@HeightField@Gu@physx@@QEAAXXZ 0000000180059eb0     PhysXCommon_64:PhysXCommon_64.dll
 0003:00000eb8       __imp_??1HeightField@Gu@physx@@UEAA@XZ 0000000180059eb8     PhysXCommon_64:PhysXCommon_64.dll
 0003:00000ec0       __imp_??0NodeAllocator@Gu@physx@@QEAA@XZ 0000000180059ec0     PhysXCommon_64:PhysXCommon_64.dll
 0003:00000ec8       __imp_??1NodeAllocator@Gu@physx@@QEAA@XZ 0000000180059ec8     PhysXCommon_64:PhysXCommon_64.dll
 0003:00000ed0       __imp_?release@NodeAllocator@Gu@physx@@QEAAXXZ 0000000180059ed0     PhysXCommon_64:PhysXCommon_64.dll
 0003:00000ed8       __imp_?buildAABBTree@Gu@physx@@YA_NAEAVAABBTreeBuildParams@12@AEAVNodeAllocator@12@AEAUBuildStats@12@AEAPEAI@Z 0000000180059ed8     PhysXCommon_64:PhysXCommon_64.dll
 0003:00000ee0       __imp_?writeDword@physx@@YAXI_NAEAVPxOutputStream@1@@Z 0000000180059ee0     PhysXCommon_64:PhysXCommon_64.dll
 0003:00000ee8       __imp_?writeFloatBuffer@physx@@YAXPEBMI_NAEAVPxOutputStream@1@@Z 0000000180059ee8     PhysXCommon_64:PhysXCommon_64.dll
 0003:00000ef0       __imp_?writeHeader@physx@@YA_NCCCCI_NAEAVPxOutputStream@1@@Z 0000000180059ef0     PhysXCommon_64:PhysXCommon_64.dll
 0003:00000ef8       __imp_?writeWord@physx@@YAXG_NAEAVPxOutputStream@1@@Z 0000000180059ef8     PhysXCommon_64:PhysXCommon_64.dll
 0003:00000f00       __imp_?writeFloat@physx@@YAXM_NAEAVPxOutputStream@1@@Z 0000000180059f00     PhysXCommon_64:PhysXCommon_64.dll
 0003:00000f08       __imp_?computeBoundsAroundVertices@Gu@physx@@YAXAEAVPxBounds3@2@IPEIBVPxVec3@2@@Z 0000000180059f08     PhysXCommon_64:PhysXCommon_64.dll
 0003:00000f10       __imp_??0SourceMesh@Gu@physx@@QEAA@XZ 0000000180059f10     PhysXCommon_64:PhysXCommon_64.dll
 0003:00000f18       __imp_??1SourceMesh@Gu@physx@@QEAA@XZ 0000000180059f18     PhysXCommon_64:PhysXCommon_64.dll
 0003:00000f20       __imp_??0BV4Tree@Gu@physx@@QEAA@XZ 0000000180059f20     PhysXCommon_64:PhysXCommon_64.dll
 0003:00000f28       __imp_??1BV4Tree@Gu@physx@@QEAA@XZ 0000000180059f28     PhysXCommon_64:PhysXCommon_64.dll
 0003:00000f30       __imp_??0BV32Tree@Gu@physx@@QEAA@XZ 0000000180059f30     PhysXCommon_64:PhysXCommon_64.dll
 0003:00000f38       __imp_??1BV32Tree@Gu@physx@@QEAA@XZ 0000000180059f38     PhysXCommon_64:PhysXCommon_64.dll
 0003:00000f40       __imp_?writeWordBuffer@physx@@YAXPEBGI_NAEAVPxOutputStream@1@@Z 0000000180059f40     PhysXCommon_64:PhysXCommon_64.dll
 0003:00000f48       __imp_?computeMaxIndex@physx@@YAIPEBII@Z 0000000180059f48     PhysXCommon_64:PhysXCommon_64.dll
 0003:00000f50       __imp_?storeIndices@physx@@YAXIIPEBIAEAVPxOutputStream@1@_N@Z 0000000180059f50     PhysXCommon_64:PhysXCommon_64.dll
 0003:00000f58       __imp_?BuildBV4Ex@Gu@physx@@YA_NAEAVBV4Tree@12@AEAVSourceMesh@12@MI@Z 0000000180059f58     PhysXCommon_64:PhysXCommon_64.dll
 0003:00000f60       __imp_?BuildBV32Ex@Gu@physx@@YA_NAEAVBV32Tree@12@AEAVSourceMesh@12@MI@Z 0000000180059f60     PhysXCommon_64:PhysXCommon_64.dll
 0003:00000f68       __imp_?computeMaxIndex@physx@@YAGPEBGI@Z 0000000180059f68     PhysXCommon_64:PhysXCommon_64.dll
 0003:00000f70       __imp_?WriteHeader@Gu@physx@@YA_NEEEEI_NAEAVPxOutputStream@2@@Z 0000000180059f70     PhysXCommon_64:PhysXCommon_64.dll
 0003:00000f78       __imp_?StoreIndices@Gu@physx@@YAXGIPEBGAEAVPxOutputStream@2@_N@Z 0000000180059f78     PhysXCommon_64:PhysXCommon_64.dll
 0003:00000f80       __imp_?CreateOffsets@BigConvexData@physx@@IEAAXXZ 0000000180059f80     PhysXCommon_64:PhysXCommon_64.dll
 0003:00000f88       __imp_?computeOBBPoints@Gu@physx@@YAXPEIAVPxVec3@2@AEBV32@1111@Z 0000000180059f88     PhysXCommon_64:PhysXCommon_64.dll
 0003:00000f90       __imp_??0BigConvexData@physx@@QEAA@XZ 0000000180059f90     PhysXCommon_64:PhysXCommon_64.dll
 0003:00000f98       \177PhysXCommon_64_NULL_THUNK_DATA_DLA 0000000180059f98     PhysXCommon_64:PhysXCommon_64.dll
 0003:00000fa0       __imp_PxGetFoundation      0000000180059fa0     PhysXFoundation_64:PhysXFoundation_64.dll
 0003:00000fa8       __imp_?deallocate@TempAllocator@shdfnd@physx@@QEAAXPEAX@Z 0000000180059fa8     PhysXFoundation_64:PhysXFoundation_64.dll
 0003:00000fb0       __imp_?getAllocator@shdfnd@physx@@YAAEAVPxAllocatorCallback@2@XZ 0000000180059fb0     PhysXFoundation_64:PhysXFoundation_64.dll
 0003:00000fb8       __imp_??0NamedAllocator@shdfnd@physx@@QEAA@PEBD@Z 0000000180059fb8     PhysXFoundation_64:PhysXFoundation_64.dll
 0003:00000fc0       __imp_?getInstance@Foundation@shdfnd@physx@@SAAEAV123@XZ 0000000180059fc0     PhysXFoundation_64:PhysXFoundation_64.dll
 0003:00000fc8       __imp_?error@Foundation@shdfnd@physx@@QEAAXW4Enum@PxErrorCode@3@PEBDH1ZZ 0000000180059fc8     PhysXFoundation_64:PhysXFoundation_64.dll
 0003:00000fd0       __imp_?allocate@NamedAllocator@shdfnd@physx@@QEAAPEAX_KPEBDH@Z 0000000180059fd0     PhysXFoundation_64:PhysXFoundation_64.dll
 0003:00000fd8       __imp_?deallocate@NamedAllocator@shdfnd@physx@@QEAAXPEAX@Z 0000000180059fd8     PhysXFoundation_64:PhysXFoundation_64.dll
 0003:00000fe0       __imp_?incRefCount@Foundation@shdfnd@physx@@SAXXZ 0000000180059fe0     PhysXFoundation_64:PhysXFoundation_64.dll
 0003:00000fe8       __imp_?decRefCount@Foundation@shdfnd@physx@@SAXXZ 0000000180059fe8     PhysXFoundation_64:PhysXFoundation_64.dll
 0003:00000ff0       __imp_??0FPUGuard@shdfnd@physx@@QEAA@XZ 0000000180059ff0     PhysXFoundation_64:PhysXFoundation_64.dll
 0003:00000ff8       __imp_??1FPUGuard@shdfnd@physx@@QEAA@XZ 0000000180059ff8     PhysXFoundation_64:PhysXFoundation_64.dll
 0003:00001000       __imp_??1NamedAllocator@shdfnd@physx@@QEAA@XZ 000000018005a000     PhysXFoundation_64:PhysXFoundation_64.dll
 0003:00001008       __imp_??0NamedAllocator@shdfnd@physx@@QEAA@AEBV012@@Z 000000018005a008     PhysXFoundation_64:PhysXFoundation_64.dll
 0003:00001010       __imp_?allocate@TempAllocator@shdfnd@physx@@QEAAPEAX_KPEBDH@Z 000000018005a010     PhysXFoundation_64:PhysXFoundation_64.dll
 0003:00001018       __imp_?PxDiagonalize@physx@@YA?AVPxVec3@1@AEBVPxMat33@1@AEAVPxQuat@1@@Z 000000018005a018     PhysXFoundation_64:PhysXFoundation_64.dll
 0003:00001020       \177PhysXFoundation_64_NULL_THUNK_DATA_DLA 000000018005a020     PhysXFoundation_64:PhysXFoundation_64.dll
 0003:000013f8       __hmod__PhysXCommon_64_dll 000000018005a3f8     PhysXCommon_64:PhysXCommon_64.dll
 0003:00001400       __hmod__PhysXFoundation_64_dll 000000018005a400     PhysXFoundation_64:PhysXFoundation_64.dll
 0003:00001408       ?DloadKernel32@@3PEAUHINSTANCE__@@EA 000000018005a408     Delayimp:delayhlp.obj
 0003:00001410       ?DloadAcquireSRWLockExclusive@@3P6AXPEA_K@ZEA 000000018005a410     Delayimp:delayhlp.obj
 0003:00001418       ?DloadReleaseSRWLockExclusive@@3P6AXPEA_K@ZEA 000000018005a418     Delayimp:delayhlp.obj
 0003:00001420       ?DloadSrwLock@@3_KA        000000018005a420     Delayimp:delayhlp.obj
 0003:00001428       ?DloadSectionLockCount@@3KA 000000018005a428     Delayimp:delayhlp.obj
 0003:0000142c       ?DloadSectionOldProtection@@3KA 000000018005a42c     Delayimp:delayhlp.obj
 0003:00001430       ?DloadSectionCommitPermanent@@3KA 000000018005a430     Delayimp:delayhlp.obj
 0003:00001440       ?__type_info_root_node@@3U__type_info_node@@A 000000018005a440     LIBCMT:tncleanup.obj
 0003:00001458       __castguard_check_failure_os_handled_fptr 000000018005a458     LIBCMT:guard_support.obj
 0003:00001460       __favor                    000000018005a460     LIBCMT:cpu_disp.obj
 0003:00001468       ?_OptionsStorage@?1??__local_stdio_printf_options@@9@4_KA 000000018005a468     LIBCMT:default_local_stdio_options.obj
 0003:00001470       ?_OptionsStorage@?1??__local_stdio_scanf_options@@9@4_KA 000000018005a470     LIBCMT:default_local_stdio_options.obj
 0003:00001478       __scrt_current_native_startup_state 000000018005a478     LIBCMT:utility.obj
 0003:00001480       __scrt_native_startup_lock 000000018005a480     LIBCMT:utility.obj
 0003:000014c0       __scrt_debugger_hook_flag  000000018005a4c0     LIBCMT:utility_desktop.obj
 0003:000014c8       ?__WinRTOutOfMemoryExceptionCallback@@3P6APEAXXZEA 000000018005a4c8     libvcruntime:ehhelpers.obj
 0003:000014d0       __pPurecall                000000018005a4d0     libvcruntime:purevirt_data.obj
 0003:000014d8       ?pArgList@UnDecorator@@0PEAVReplicator@@EA 000000018005a4d8     libvcruntime:undname.obj
 0003:000014e0       ?pZNameList@UnDecorator@@0PEAVReplicator@@EA 000000018005a4e0     libvcruntime:undname.obj
 0003:000014e8       ?pTemplateArgList@UnDecorator@@0PEAVReplicator@@EA 000000018005a4e8     libvcruntime:undname.obj
 0003:000014f0       ?gName@UnDecorator@@0PEBDEB 000000018005a4f0     libvcruntime:undname.obj
 0003:000014f8       ?name@UnDecorator@@0PEBDEB 000000018005a4f8     libvcruntime:undname.obj
 0003:00001500       ?disableFlags@UnDecorator@@0KA 000000018005a500     libvcruntime:undname.obj
 0003:00001504       ?fExplicitTemplateParams@UnDecorator@@0_NA 000000018005a504     libvcruntime:undname.obj
 0003:00001505       ?fGetTemplateArgumentList@UnDecorator@@0_NA 000000018005a505     libvcruntime:undname.obj
 0003:00001508       ?m_pGetParameter@UnDecorator@@0P6APEADJ@ZEA 000000018005a508     libvcruntime:undname.obj
 0003:00001510       ?m_CHPENameOffset@UnDecorator@@0KA 000000018005a510     libvcruntime:undname.obj
 0003:00001514       ?m_recursionLevel@UnDecorator@@0KA 000000018005a514     libvcruntime:undname.obj
 0003:00001640       ?c_exit_complete@?1???R<lambda_6e4b09c48022b2350581041d5f6b0c4c>@@QEBA@XZ@4_NA 000000018005a640     libucrt:exit.obj
 0003:00001758       _environ_table             000000018005a758     libucrt:environment_initialization.obj
 0003:00001760       _wenviron_table            000000018005a760     libucrt:environment_initialization.obj
 0003:00001768       __dcrt_initial_wide_environment 000000018005a768     libucrt:environment_initialization.obj
 0003:00001770       __dcrt_initial_narrow_environment 000000018005a770     libucrt:environment_initialization.obj
 0003:00001778       __acrt_atexit_table        000000018005a778     libucrt:onexit.obj
 0003:00001790       __acrt_at_quick_exit_table 000000018005a790     libucrt:onexit.obj
 0003:000017a8       __fma3_is_available        000000018005a7a8     libucrt:fma3_available.obj
 0003:000017ac       __use_fma3_lib             000000018005a7ac     libucrt:fma3_available.obj
 0003:000019f0       _mbctype                   000000018005a9f0     libucrt:mbctype.obj
 0003:000019f8       _mbcasemap                 000000018005a9f8     libucrt:mbctype.obj
 0003:00001a00       __acrt_current_multibyte_data 000000018005aa00     libucrt:mbctype.obj
 0003:00001a10       _pgmptr                    000000018005aa10     libucrt:argv_data.obj
 0003:00001a18       __argc                     000000018005aa18     libucrt:argv_data.obj
 0003:00001a20       __argv                     000000018005aa20     libucrt:argv_data.obj
 0003:00001a28       __wargv                    000000018005aa28     libucrt:argv_data.obj
 0003:00001a30       _acmdln                    000000018005aa30     libucrt:argv_data.obj
 0003:00001a38       _wcmdln                    000000018005aa38     libucrt:argv_data.obj
 0003:00001bf0       __acrt_heap                000000018005abf0     libucrt:heap_handle.obj
 0003:00001c00       __pioinfo                  000000018005ac00     libucrt:ioinit.obj
 0003:00002000       _nhandle                   000000018005b000     libucrt:ioinit.obj
 0003:00002038       __acrt_current_locale_data 000000018005b038     libucrt:nlsdata.obj
 0003:00002040       _nstream                   000000018005b040     libucrt:_file.obj
 0003:00002048       __piob                     000000018005b048     libucrt:_file.obj
 0003:00002050       __acrt_stdout_buffer       000000018005b050     libucrt:_sftbuf.obj
 0003:00002058       __acrt_stderr_buffer       000000018005b058     libucrt:_sftbuf.obj
 0003:00002070       __acrt_locale_changed_data 000000018005b070     libucrt:wsetlocale.obj
 0003:00002078       __acrt_lconv_static_null   000000018005b078     libucrt:localeconv.obj
 0003:0000207c       __acrt_lconv_static_W_null 000000018005b07c     libucrt:localeconv.obj
 0003:00002600       __scrt_ucrt_dll_is_in_use  000000018005b600     <common>
 0003:00002608       __dyn_tls_init_callback    000000018005b608     <common>
 0005:00000100       __common_ssin_reduction_data 0000000180060100     LIBCMT:svml_s_sin_data.obj
 0005:00000d00       __common_ssin_data         0000000180060d00     LIBCMT:svml_s_sin_data.obj

 entry point at        0001:00026f10

 Static symbols

 0000:fff9b000       .debug$S                   0000000180000000     PhysXCooking_64.exp
 0000:fff9b000       .debug$S                   0000000180000000     kernel32:KERNEL32.dll
 0000:fff9b000       .debug$S                   0000000180000000     kernel32:KERNEL32.dll
 0000:fff9b000       .debug$S                   0000000180000000     kernel32:KERNEL32.dll
 0000:fff9b000       .debug$S                   0000000180000000     kernel32:KERNEL32.dll
 0000:fff9b000       .debug$S                   0000000180000000     kernel32:KERNEL32.dll
 0000:fff9b000       .debug$S                   0000000180000000     kernel32:KERNEL32.dll
 0000:fff9b000       .debug$S                   0000000180000000     kernel32:KERNEL32.dll
 0000:fff9b000       .debug$S                   0000000180000000     kernel32:KERNEL32.dll
 0000:fff9b000       .debug$S                   0000000180000000     kernel32:KERNEL32.dll
 0000:fff9b000       .debug$S                   0000000180000000     kernel32:KERNEL32.dll
 0000:fff9b000       .debug$S                   0000000180000000     kernel32:KERNEL32.dll
 0000:fff9b000       .debug$S                   0000000180000000     kernel32:KERNEL32.dll
 0000:fff9b000       .debug$S                   0000000180000000     kernel32:KERNEL32.dll
 0000:fff9b000       .debug$S                   0000000180000000     kernel32:KERNEL32.dll
 0000:fff9b000       .debug$S                   0000000180000000     kernel32:KERNEL32.dll
 0000:fff9b000       .debug$S                   0000000180000000     kernel32:KERNEL32.dll
 0000:fff9b000       .debug$S                   0000000180000000     kernel32:KERNEL32.dll
 0000:fff9b000       .debug$S                   0000000180000000     kernel32:KERNEL32.dll
 0000:fff9b000       .debug$S                   0000000180000000     kernel32:KERNEL32.dll
 0000:fff9b000       .debug$S                   0000000180000000     kernel32:KERNEL32.dll
 0000:fff9b000       .debug$S                   0000000180000000     kernel32:KERNEL32.dll
 0000:fff9b000       .debug$S                   0000000180000000     kernel32:KERNEL32.dll
 0000:fff9b000       .debug$S                   0000000180000000     kernel32:KERNEL32.dll
 0000:fff9b000       .debug$S                   0000000180000000     kernel32:KERNEL32.dll
 0000:fff9b000       .debug$S                   0000000180000000     kernel32:KERNEL32.dll
 0000:fff9b000       .debug$S                   0000000180000000     kernel32:KERNEL32.dll
 0000:fff9b000       .debug$S                   0000000180000000     kernel32:KERNEL32.dll
 0000:fff9b000       .debug$S                   0000000180000000     kernel32:KERNEL32.dll
 0000:fff9b000       .debug$S                   0000000180000000     kernel32:KERNEL32.dll
 0000:fff9b000       .debug$S                   0000000180000000     kernel32:KERNEL32.dll
 0000:fff9b000       .debug$S                   0000000180000000     kernel32:KERNEL32.dll
 0000:fff9b000       .debug$S                   0000000180000000     kernel32:KERNEL32.dll
 0000:fff9b000       .debug$S                   0000000180000000     kernel32:KERNEL32.dll
 0000:fff9b000       .debug$S                   0000000180000000     kernel32:KERNEL32.dll
 0000:fff9b000       .debug$S                   0000000180000000     kernel32:KERNEL32.dll
 0000:fff9b000       .debug$S                   0000000180000000     kernel32:KERNEL32.dll
 0000:fff9b000       .debug$S                   0000000180000000     kernel32:KERNEL32.dll
 0000:fff9b000       .debug$S                   0000000180000000     kernel32:KERNEL32.dll
 0000:fff9b000       .debug$S                   0000000180000000     kernel32:KERNEL32.dll
 0000:fff9b000       .debug$S                   0000000180000000     kernel32:KERNEL32.dll
 0000:fff9b000       .debug$S                   0000000180000000     kernel32:KERNEL32.dll
 0000:fff9b000       .debug$S                   0000000180000000     kernel32:KERNEL32.dll
 0000:fff9b000       .debug$S                   0000000180000000     kernel32:KERNEL32.dll
 0000:fff9b000       .debug$S                   0000000180000000     kernel32:KERNEL32.dll
 0000:fff9b000       .debug$S                   0000000180000000     kernel32:KERNEL32.dll
 0000:fff9b000       .debug$S                   0000000180000000     kernel32:KERNEL32.dll
 0000:fff9b000       .debug$S                   0000000180000000     kernel32:KERNEL32.dll
 0000:fff9b000       .debug$S                   0000000180000000     kernel32:KERNEL32.dll
 0000:fff9b000       .debug$S                   0000000180000000     kernel32:KERNEL32.dll
 0000:fff9b000       .debug$S                   0000000180000000     kernel32:KERNEL32.dll
 0000:fff9b000       .debug$S                   0000000180000000     kernel32:KERNEL32.dll
 0000:fff9b000       .debug$S                   0000000180000000     kernel32:KERNEL32.dll
 0000:fff9b000       .debug$S                   0000000180000000     kernel32:KERNEL32.dll
 0000:fff9b000       .debug$S                   0000000180000000     kernel32:KERNEL32.dll
 0000:fff9b000       .debug$S                   0000000180000000     kernel32:KERNEL32.dll
 0000:fff9b000       .debug$S                   0000000180000000     kernel32:KERNEL32.dll
 0000:fff9b000       .debug$S                   0000000180000000     kernel32:KERNEL32.dll
 0000:fff9b000       .debug$S                   0000000180000000     kernel32:KERNEL32.dll
 0000:fff9b000       .debug$S                   0000000180000000     kernel32:KERNEL32.dll
 0000:fff9b000       .debug$S                   0000000180000000     kernel32:KERNEL32.dll
 0000:fff9b000       .debug$S                   0000000180000000     kernel32:KERNEL32.dll
 0000:fff9b000       .debug$S                   0000000180000000     kernel32:KERNEL32.dll
 0000:fff9b000       .debug$S                   0000000180000000     kernel32:KERNEL32.dll
 0000:fff9b000       .debug$S                   0000000180000000     kernel32:KERNEL32.dll
 0000:fff9b000       .debug$S                   0000000180000000     kernel32:KERNEL32.dll
 0000:fff9b000       .debug$S                   0000000180000000     kernel32:KERNEL32.dll
 0000:fff9b000       .debug$S                   0000000180000000     kernel32:KERNEL32.dll
 0000:fff9b000       .debug$S                   0000000180000000     kernel32:KERNEL32.dll
 0000:fff9b000       .debug$S                   0000000180000000     kernel32:KERNEL32.dll
 0000:fff9b000       .debug$S                   0000000180000000     kernel32:KERNEL32.dll
 0000:fff9b000       .debug$S                   0000000180000000     kernel32:KERNEL32.dll
 0000:fff9b000       .debug$S                   0000000180000000     kernel32:KERNEL32.dll
 0000:fff9b000       .debug$S                   0000000180000000     kernel32:KERNEL32.dll
 0000:fff9b000       .debug$S                   0000000180000000     kernel32:KERNEL32.dll
 0000:fff9b000       .debug$S                   0000000180000000     kernel32:KERNEL32.dll
 0000:fff9b000       .debug$S                   0000000180000000     kernel32:KERNEL32.dll
 0000:fff9b000       .debug$S                   0000000180000000     kernel32:KERNEL32.dll
 0000:fff9b000       .debug$S                   0000000180000000     kernel32:KERNEL32.dll
 0000:fff9b000       .debug$S                   0000000180000000     kernel32:KERNEL32.dll
 0000:fff9b000       .debug$S                   0000000180000000     kernel32:KERNEL32.dll
 0000:fff9b000       .debug$S                   0000000180000000     kernel32:KERNEL32.dll
 0000:fff9b000       .debug$S                   0000000180000000     kernel32:KERNEL32.dll
 0000:fff9b000       .debug$S                   0000000180000000     kernel32:KERNEL32.dll
 0000:fff9b000       .debug$S                   0000000180000000     kernel32:KERNEL32.dll
 0000:fff9b000       .debug$S                   0000000180000000     kernel32:KERNEL32.dll
 0000:fff9b000       .debug$S                   0000000180000000     kernel32:KERNEL32.dll
 0000:fff9b000       .debug$S                   0000000180000000     kernel32:KERNEL32.dll
 0000:fff9b000       .debug$S                   0000000180000000     kernel32:KERNEL32.dll
 0000:fff9b000       .debug$S                   0000000180000000     kernel32:KERNEL32.dll
 0000:fff9b000       .debug$S                   0000000180000000     PhysXCommon_64:PhysXCommon_64.dll
 0000:fff9b000       .debug$S                   0000000180000000     PhysXCommon_64:PhysXCommon_64.dll
 0000:fff9b000       .debug$S                   0000000180000000     PhysXCommon_64:PhysXCommon_64.dll
 0000:fff9b000       .debug$S                   0000000180000000     PhysXCommon_64:PhysXCommon_64.dll
 0000:fff9b000       .debug$S                   0000000180000000     PhysXCommon_64:PhysXCommon_64.dll
 0000:fff9b000       .debug$S                   0000000180000000     PhysXCommon_64:PhysXCommon_64.dll
 0000:fff9b000       .debug$S                   0000000180000000     PhysXCommon_64:PhysXCommon_64.dll
 0000:fff9b000       .debug$S                   0000000180000000     PhysXCommon_64:PhysXCommon_64.dll
 0000:fff9b000       .debug$S                   0000000180000000     PhysXCommon_64:PhysXCommon_64.dll
 0000:fff9b000       .debug$S                   0000000180000000     PhysXCommon_64:PhysXCommon_64.dll
 0000:fff9b000       .debug$S                   0000000180000000     PhysXCommon_64:PhysXCommon_64.dll
 0000:fff9b000       .debug$S                   0000000180000000     PhysXCommon_64:PhysXCommon_64.dll
 0000:fff9b000       .debug$S                   0000000180000000     PhysXCommon_64:PhysXCommon_64.dll
 0000:fff9b000       .debug$S                   0000000180000000     PhysXCommon_64:PhysXCommon_64.dll
 0000:fff9b000       .debug$S                   0000000180000000     PhysXCommon_64:PhysXCommon_64.dll
 0000:fff9b000       .debug$S                   0000000180000000     PhysXCommon_64:PhysXCommon_64.dll
 0000:fff9b000       .debug$S                   0000000180000000     PhysXCommon_64:PhysXCommon_64.dll
 0000:fff9b000       .debug$S                   0000000180000000     PhysXCommon_64:PhysXCommon_64.dll
 0000:fff9b000       .debug$S                   0000000180000000     PhysXCommon_64:PhysXCommon_64.dll
 0000:fff9b000       .debug$S                   0000000180000000     PhysXCommon_64:PhysXCommon_64.dll
 0000:fff9b000       .debug$S                   0000000180000000     PhysXCommon_64:PhysXCommon_64.dll
 0000:fff9b000       .debug$S                   0000000180000000     PhysXCommon_64:PhysXCommon_64.dll
 0000:fff9b000       .debug$S                   0000000180000000     PhysXCommon_64:PhysXCommon_64.dll
 0000:fff9b000       .debug$S                   0000000180000000     PhysXCommon_64:PhysXCommon_64.dll
 0000:fff9b000       .debug$S                   0000000180000000     PhysXCommon_64:PhysXCommon_64.dll
 0000:fff9b000       .debug$S                   0000000180000000     PhysXCommon_64:PhysXCommon_64.dll
 0000:fff9b000       .debug$S                   0000000180000000     PhysXCommon_64:PhysXCommon_64.dll
 0000:fff9b000       .debug$S                   0000000180000000     PhysXCommon_64:PhysXCommon_64.dll
 0000:fff9b000       .debug$S                   0000000180000000     PhysXCommon_64:PhysXCommon_64.dll
 0000:fff9b000       .debug$S                   0000000180000000     PhysXCommon_64:PhysXCommon_64.dll
 0000:fff9b000       .debug$S                   0000000180000000     PhysXCommon_64:PhysXCommon_64.dll
 0000:fff9b000       .debug$S                   0000000180000000     PhysXCommon_64:PhysXCommon_64.dll
 0000:fff9b000       .debug$S                   0000000180000000     PhysXCommon_64:PhysXCommon_64.dll
 0000:fff9b000       .debug$S                   0000000180000000     PhysXCommon_64:PhysXCommon_64.dll
 0000:fff9b000       .debug$S                   0000000180000000     PhysXCommon_64:PhysXCommon_64.dll
 0000:fff9b000       .debug$S                   0000000180000000     PhysXCommon_64:PhysXCommon_64.dll
 0000:fff9b000       .debug$S                   0000000180000000     PhysXCommon_64:PhysXCommon_64.dll
 0000:fff9b000       .debug$S                   0000000180000000     PhysXCommon_64:PhysXCommon_64.dll
 0000:fff9b000       .debug$S                   0000000180000000     PhysXFoundation_64:PhysXFoundation_64.dll
 0000:fff9b000       .debug$S                   0000000180000000     PhysXFoundation_64:PhysXFoundation_64.dll
 0000:fff9b000       .debug$S                   0000000180000000     PhysXFoundation_64:PhysXFoundation_64.dll
 0000:fff9b000       .debug$S                   0000000180000000     PhysXFoundation_64:PhysXFoundation_64.dll
 0000:fff9b000       .debug$S                   0000000180000000     PhysXFoundation_64:PhysXFoundation_64.dll
 0000:fff9b000       .debug$S                   0000000180000000     PhysXFoundation_64:PhysXFoundation_64.dll
 0000:fff9b000       .debug$S                   0000000180000000     PhysXFoundation_64:PhysXFoundation_64.dll
 0000:fff9b000       .debug$S                   0000000180000000     PhysXFoundation_64:PhysXFoundation_64.dll
 0000:fff9b000       .debug$S                   0000000180000000     PhysXFoundation_64:PhysXFoundation_64.dll
 0000:fff9b000       .debug$S                   0000000180000000     PhysXFoundation_64:PhysXFoundation_64.dll
 0000:fff9b000       .debug$S                   0000000180000000     PhysXFoundation_64:PhysXFoundation_64.dll
 0000:fff9b000       .debug$S                   0000000180000000     PhysXFoundation_64:PhysXFoundation_64.dll
 0000:fff9b000       .debug$S                   0000000180000000     PhysXFoundation_64:PhysXFoundation_64.dll
 0000:fff9b000       .debug$S                   0000000180000000     PhysXFoundation_64:PhysXFoundation_64.dll
 0000:fff9b000       .debug$S                   0000000180000000     PhysXFoundation_64:PhysXFoundation_64.dll
 0000:fff9b000       .debug$S                   0000000180000000     PhysXFoundation_64:PhysXFoundation_64.dll
 0001:00000000       ??__EmaxFError@_VecMathTests@aos@shdfnd@physx@@YAXXZ 0000000180001000 f   Cooking.obj
 0001:00000010       ??__EmaxV3Error@_VecMathTests@aos@shdfnd@physx@@YAXXZ 0000000180001010 f   Cooking.obj
 0001:00000020       ??__EmaxV4Error@_VecMathTests@aos@shdfnd@physx@@YAXXZ 0000000180001020 f   Cooking.obj
 0001:00000030       ??__EminFError@_VecMathTests@aos@shdfnd@physx@@YAXXZ 0000000180001030 f   Cooking.obj
 0001:00000040       ??__EminV3Error@_VecMathTests@aos@shdfnd@physx@@YAXXZ 0000000180001040 f   Cooking.obj
 0001:00000050       ??__EminV4Error@_VecMathTests@aos@shdfnd@physx@@YAXXZ 0000000180001050 f   Cooking.obj
 0001:00000060       ??__EmaxFError@_VecMathTests@aos@shdfnd@physx@@YAXXZ 0000000180001060 f   BVHStructureBuilder.obj
 0001:00000070       ??__EmaxV3Error@_VecMathTests@aos@shdfnd@physx@@YAXXZ 0000000180001070 f   BVHStructureBuilder.obj
 0001:00000080       ??__EmaxV4Error@_VecMathTests@aos@shdfnd@physx@@YAXXZ 0000000180001080 f   BVHStructureBuilder.obj
 0001:00000090       ??__EminFError@_VecMathTests@aos@shdfnd@physx@@YAXXZ 0000000180001090 f   BVHStructureBuilder.obj
 0001:000000a0       ??__EminV3Error@_VecMathTests@aos@shdfnd@physx@@YAXXZ 00000001800010a0 f   BVHStructureBuilder.obj
 0001:000000b0       ??__EminV4Error@_VecMathTests@aos@shdfnd@physx@@YAXXZ 00000001800010b0 f   BVHStructureBuilder.obj
 0001:000000c0       ??__EmaxFError@_VecMathTests@aos@shdfnd@physx@@YAXXZ 00000001800010c0 f   RTreeCooking.obj
 0001:000000d0       ??__EmaxV3Error@_VecMathTests@aos@shdfnd@physx@@YAXXZ 00000001800010d0 f   RTreeCooking.obj
 0001:000000e0       ??__EmaxV4Error@_VecMathTests@aos@shdfnd@physx@@YAXXZ 00000001800010e0 f   RTreeCooking.obj
 0001:000000f0       ??__EminFError@_VecMathTests@aos@shdfnd@physx@@YAXXZ 00000001800010f0 f   RTreeCooking.obj
 0001:00000100       ??__EminV3Error@_VecMathTests@aos@shdfnd@physx@@YAXXZ 0000000180001100 f   RTreeCooking.obj
 0001:00000110       ??__EminV4Error@_VecMathTests@aos@shdfnd@physx@@YAXXZ 0000000180001110 f   RTreeCooking.obj
 0001:00000120       ??__EmaxFError@_VecMathTests@aos@shdfnd@physx@@YAXXZ 0000000180001120 f   MeshBuilder.obj
 0001:00000130       ??__EmaxV3Error@_VecMathTests@aos@shdfnd@physx@@YAXXZ 0000000180001130 f   MeshBuilder.obj
 0001:00000140       ??__EmaxV4Error@_VecMathTests@aos@shdfnd@physx@@YAXXZ 0000000180001140 f   MeshBuilder.obj
 0001:00000150       ??__EminFError@_VecMathTests@aos@shdfnd@physx@@YAXXZ 0000000180001150 f   MeshBuilder.obj
 0001:00000160       ??__EminV3Error@_VecMathTests@aos@shdfnd@physx@@YAXXZ 0000000180001160 f   MeshBuilder.obj
 0001:00000170       ??__EminV4Error@_VecMathTests@aos@shdfnd@physx@@YAXXZ 0000000180001170 f   MeshBuilder.obj
 0001:00000180       ??__EmaxFError@_VecMathTests@aos@shdfnd@physx@@YAXXZ 0000000180001180 f   TriangleMeshBuilder.obj
 0001:00000190       ??__EmaxV3Error@_VecMathTests@aos@shdfnd@physx@@YAXXZ 0000000180001190 f   TriangleMeshBuilder.obj
 0001:000001a0       ??__EmaxV4Error@_VecMathTests@aos@shdfnd@physx@@YAXXZ 00000001800011a0 f   TriangleMeshBuilder.obj
 0001:000001b0       ??__EminFError@_VecMathTests@aos@shdfnd@physx@@YAXXZ 00000001800011b0 f   TriangleMeshBuilder.obj
 0001:000001c0       ??__EminV3Error@_VecMathTests@aos@shdfnd@physx@@YAXXZ 00000001800011c0 f   TriangleMeshBuilder.obj
 0001:000001d0       ??__EminV4Error@_VecMathTests@aos@shdfnd@physx@@YAXXZ 00000001800011d0 f   TriangleMeshBuilder.obj
 0001:000001e0       ??__EmaxFError@_VecMathTests@aos@shdfnd@physx@@YAXXZ 00000001800011e0 f   BigConvexDataBuilder.obj
 0001:000001f0       ??__EmaxV3Error@_VecMathTests@aos@shdfnd@physx@@YAXXZ 00000001800011f0 f   BigConvexDataBuilder.obj
 0001:00000200       ??__EmaxV4Error@_VecMathTests@aos@shdfnd@physx@@YAXXZ 0000000180001200 f   BigConvexDataBuilder.obj
 0001:00000210       ??__EminFError@_VecMathTests@aos@shdfnd@physx@@YAXXZ 0000000180001210 f   BigConvexDataBuilder.obj
 0001:00000220       ??__EminV3Error@_VecMathTests@aos@shdfnd@physx@@YAXXZ 0000000180001220 f   BigConvexDataBuilder.obj
 0001:00000230       ??__EminV4Error@_VecMathTests@aos@shdfnd@physx@@YAXXZ 0000000180001230 f   BigConvexDataBuilder.obj
 0001:00000240       ??__EmaxFError@_VecMathTests@aos@shdfnd@physx@@YAXXZ 0000000180001240 f   ConvexHullBuilder.obj
 0001:00000250       ??__EmaxV3Error@_VecMathTests@aos@shdfnd@physx@@YAXXZ 0000000180001250 f   ConvexHullBuilder.obj
 0001:00000260       ??__EmaxV4Error@_VecMathTests@aos@shdfnd@physx@@YAXXZ 0000000180001260 f   ConvexHullBuilder.obj
 0001:00000270       ??__EminFError@_VecMathTests@aos@shdfnd@physx@@YAXXZ 0000000180001270 f   ConvexHullBuilder.obj
 0001:00000280       ??__EminV3Error@_VecMathTests@aos@shdfnd@physx@@YAXXZ 0000000180001280 f   ConvexHullBuilder.obj
 0001:00000290       ??__EminV4Error@_VecMathTests@aos@shdfnd@physx@@YAXXZ 0000000180001290 f   ConvexHullBuilder.obj
 0001:000002a0       ??__EmaxFError@_VecMathTests@aos@shdfnd@physx@@YAXXZ 00000001800012a0 f   ConvexHullUtils.obj
 0001:000002b0       ??__EmaxV3Error@_VecMathTests@aos@shdfnd@physx@@YAXXZ 00000001800012b0 f   ConvexHullUtils.obj
 0001:000002c0       ??__EmaxV4Error@_VecMathTests@aos@shdfnd@physx@@YAXXZ 00000001800012c0 f   ConvexHullUtils.obj
 0001:000002d0       ??__EminFError@_VecMathTests@aos@shdfnd@physx@@YAXXZ 00000001800012d0 f   ConvexHullUtils.obj
 0001:000002e0       ??__EminV3Error@_VecMathTests@aos@shdfnd@physx@@YAXXZ 00000001800012e0 f   ConvexHullUtils.obj
 0001:000002f0       ??__EminV4Error@_VecMathTests@aos@shdfnd@physx@@YAXXZ 00000001800012f0 f   ConvexHullUtils.obj
 0001:00000300       ??__EmaxFError@_VecMathTests@aos@shdfnd@physx@@YAXXZ 0000000180001300 f   ConvexMeshBuilder.obj
 0001:00000310       ??__EmaxV3Error@_VecMathTests@aos@shdfnd@physx@@YAXXZ 0000000180001310 f   ConvexMeshBuilder.obj
 0001:00000320       ??__EmaxV4Error@_VecMathTests@aos@shdfnd@physx@@YAXXZ 0000000180001320 f   ConvexMeshBuilder.obj
 0001:00000330       ??__EminFError@_VecMathTests@aos@shdfnd@physx@@YAXXZ 0000000180001330 f   ConvexMeshBuilder.obj
 0001:00000340       ??__EminV3Error@_VecMathTests@aos@shdfnd@physx@@YAXXZ 0000000180001340 f   ConvexMeshBuilder.obj
 0001:00000350       ??__EminV4Error@_VecMathTests@aos@shdfnd@physx@@YAXXZ 0000000180001350 f   ConvexMeshBuilder.obj
 0001:00000360       ??__EmaxFError@_VecMathTests@aos@shdfnd@physx@@YAXXZ 0000000180001360 f   VolumeIntegration.obj
 0001:00000370       ??__EmaxV3Error@_VecMathTests@aos@shdfnd@physx@@YAXXZ 0000000180001370 f   VolumeIntegration.obj
 0001:00000380       ??__EmaxV4Error@_VecMathTests@aos@shdfnd@physx@@YAXXZ 0000000180001380 f   VolumeIntegration.obj
 0001:00000390       ??__EminFError@_VecMathTests@aos@shdfnd@physx@@YAXXZ 0000000180001390 f   VolumeIntegration.obj
 0001:000003a0       ??__EminV3Error@_VecMathTests@aos@shdfnd@physx@@YAXXZ 00000001800013a0 f   VolumeIntegration.obj
 0001:000003b0       ??__EminV4Error@_VecMathTests@aos@shdfnd@physx@@YAXXZ 00000001800013b0 f   VolumeIntegration.obj
 0001:00000650       ?CreateDatabase@@YA_NPEAVAdjTriangle@physx@@IPEBVAdjEdge@@AEBUADJACENCIESCREATE@2@@Z 0000000180001650 f   Adjacencies.obj
 0001:00000c60       ?UpdateLink@@YA_NIIIIPEAVAdjTriangle@physx@@AEBUADJACENCIESCREATE@2@@Z 0000000180001c60 f   Adjacencies.obj
 0001:00008bc0       ?buildFromBounds@physx@@YAXAEAURTree@Gu@1@PEBUPxBounds3V@1@IAEAV?$Array@IVNamedAllocator@shdfnd@physx@@@shdfnd@1@PEAURemapCallback@RTreeCooker@1@AEAT__m128@@4MW4Enum@PxMeshCookingHint@1@@Z 0000000180009bc0 f   RTreeCooking.obj
 0001:0000cd40       ?buildAdjacencies@physx@@YAXPEAUuint4@1@PEAVPxVec3@1@PEBV31@PEBUuint3@1@I@Z 000000018000dd40 f   TriangleMeshBuilder.obj
 0001:0000e380       ?findAdjacent@physx@@YAIPEBVPxVec3@1@0PEBUuint3@1@IIIAEBVPxPlane@1@PEAUEdgeTriLookup@1@I@Z 000000018000f380 f   TriangleMeshBuilder.obj
 0001:00013200       ?checkPointsAABBValidity@local@@YA_NIPEBVPxVec3@physx@@IMMAEAV23@1AEAIPEAV23@_N@Z 0000000180014200 f   ConvexHullLib.obj
 0001:000186b0       ?ComputeInternalExtent@@YAXAEAUConvexHullData@Gu@physx@@PEBUHullPolygonData@23@@Z 00000001800196b0 f   ConvexMeshBuilder.obj
 0001:00019ad0       ?CheckFloodFillFace@Local@?7??extractHullPolygons@@YA_NAEAIAEAV?$Array@IVNamedAllocator@shdfnd@physx@@@shdfnd@physx@@AEBVConvexPolygonsBuilder@5@PEAV345@1@Z@SA_NIPEBVAdjTriangle@5@PEBI@Z 000000018001aad0 f   ConvexPolygonsBuilder.obj
 0001:0001a0c0       ?FloodFill@Local@?7??extractHullPolygons@@YA_NAEAIAEAV?$Array@IVNamedAllocator@shdfnd@physx@@@shdfnd@physx@@AEBVConvexPolygonsBuilder@5@PEAV345@1@Z@SAX1PEBVAdjTriangle@5@IPEA_N@Z 000000018001b0c0 f   ConvexPolygonsBuilder.obj
 0001:0001a1a0       ?TestDuplicateTriangles@@YA_NAEAIPEAU?$TriangleT@I@Gu@physx@@_N@Z 000000018001b1a0 f   ConvexPolygonsBuilder.obj
 0001:0001a330       ?checkRedundantVertices@@YAXAEAIAEAV?$Array@IVNamedAllocator@shdfnd@physx@@@shdfnd@physx@@AEBVConvexPolygonsBuilder@3@11@Z 000000018001b330 f   ConvexPolygonsBuilder.obj
 0001:0001d0b0       ?extractHullPolygons@@YA_NAEAIAEAV?$Array@IVNamedAllocator@shdfnd@physx@@@shdfnd@physx@@AEBVConvexPolygonsBuilder@3@PEAV123@1@Z 000000018001e0b0 f   ConvexPolygonsBuilder.obj
 0001:0001db40       ?findLineStrip@@YA_NAEAV?$Array@IVNamedAllocator@shdfnd@physx@@@shdfnd@physx@@AEBV?$Array@VPair@@VNamedAllocator@shdfnd@physx@@@23@@Z 000000018001eb40 f   ConvexPolygonsBuilder.obj
 0001:00024dc0       ?computeVolumeIntegrals@VolumeIntegratorEberly@?A0x54712ab8@physx@@QEAA_NAEAUPxIntegrals@3@AEBVPxVec3@3@@Z 0000000180025dc0 f   VolumeIntegration.obj
 0001:000258c0       ?computeVolumeIntegralsSIMD@VolumeIntegratorEberly@?A0x54712ab8@physx@@QEAA_NAEAUPxIntegrals@3@AEBVPxVec3@3@@Z 00000001800268c0 f   VolumeIntegration.obj
 0001:00025f80       $LN24                      0000000180026f80     WindowsCookingDelayLoadHook.obj
 0001:00026b10       $$000000                   0000000180027b10     LIBCMT:chkstk.obj
 0001:00026b70       ?<lambda_invoker_cdecl>@_Closure_wrapper_5b4f77ba_2@@CAXQEAX@Z 0000000180027b70 f   libvcruntime:std_type_info.obj
 0001:00026b80       $$000000                   0000000180027b80     LIBCMT:svml_ssinf4_dispatch.obj
 0001:00026bf0       ?dllmain_crt_dispatch@@YAHQEAUHINSTANCE__@@KQEAX@Z 0000000180027bf0 f   LIBCMT:dll_dllmain.obj
 0001:00026c40       ?dllmain_crt_process_attach@@YAHQEAUHINSTANCE__@@QEAX@Z 0000000180027c40 f   LIBCMT:dll_dllmain.obj
 0001:00026d58       ?dllmain_crt_process_detach@@YAH_N@Z 0000000180027d58 f   LIBCMT:dll_dllmain.obj
 0001:00026ddc       ?dllmain_dispatch@@YAHQEAUHINSTANCE__@@KQEAX@Z 0000000180027ddc f   LIBCMT:dll_dllmain.obj
 0001:00027100       $$000000                   0000000180028100     LIBCMT:svml_ssinf4_sse2.obj
 0001:00027a40       $$000000                   0000000180028a40     LIBCMT:svml_ssinf4_sse4.obj
 0001:00028790       $$000000                   0000000180029790     LIBCMT:svml_s_sin_cout.obj
 0001:00028834       ?<lambda_invoker_cdecl>@_Closure_wrapper_5b4f77ba_1@@CAPEAX_K@Z 0000000180029834 f   libvcruntime:std_type_info.obj
 0001:000289b0       $$000000                   00000001800299b0     libvcruntime:memset.obj
 0001:00028b70       $$000000                   0000000180029b70     libvcruntime:memcpy.obj
 0001:00029cf0       ??1TrackRecursion@?1??getDecoratedName@UnDecorator@@CA?AVDName@@XZ@QEAA@XZ 000000018002acf0 f   libvcruntime:undname.obj
 0001:000314f0       $$000000                   00000001800324f0     libvcruntime:notify.obj
 0001:00031f90       ?try_get_function@@YAPEAXW4function_id@?A0x6b2bd6b2@@QEBDQEBW4module_id@2@2@Z 0000000180032f90 f   libvcruntime:winapi_downlevel.obj
 0001:00032360       ??$BuildCatchObjectHelperInternal@V__FrameHandler4@@@@YAHPEAUEHExceptionRecord@@PEAXPEAUHandlerType4@FH4@@PEBU_s_CatchableType@@@Z 0000000180033360 f   libvcruntime:frame.obj
 0001:00032564       ??$BuildCatchObjectInternal@V__FrameHandler4@@@@YAXPEAUEHExceptionRecord@@PEAXPEAUHandlerType4@FH4@@PEBU_s_CatchableType@@@Z 0000000180033564 f   libvcruntime:frame.obj
 0001:00032628       ??$CatchIt@V__FrameHandler4@@@@YAXPEAUEHExceptionRecord@@PEA_KPEAU_CONTEXT@@PEAU_xDISPATCHER_CONTEXT@@PEAUFuncInfo4@FH4@@PEAUHandlerType4@4@PEBU_s_CatchableType@@PEAUTryBlockMapEntry4@4@H1EE@Z 0000000180033628 f   libvcruntime:frame.obj
 0001:000326fc       ??$FindHandler@V__FrameHandler4@@@@YAXPEAUEHExceptionRecord@@PEA_KPEAU_CONTEXT@@PEAU_xDISPATCHER_CONTEXT@@PEAUFuncInfo4@FH4@@EH1@Z 00000001800336fc f   libvcruntime:frame.obj
 0001:00032bf8       ??$FindHandlerForForeignException@V__FrameHandler4@@@@YAXPEAUEHExceptionRecord@@PEA_KPEAU_CONTEXT@@PEAU_xDISPATCHER_CONTEXT@@PEAUFuncInfo4@FH4@@HH1@Z 0000000180033bf8 f   libvcruntime:frame.obj
 0001:00033a14       ?ExFilterRethrow@@YAHPEAU_EXCEPTION_POINTERS@@PEAUEHExceptionRecord@@PEAH@Z 0000000180034a14 f   libvcruntime:frame.obj
 0001:00033a9c       ?ExFilterRethrowFH4@@YAHPEAU_EXCEPTION_POINTERS@@PEAUEHExceptionRecord@@HPEAH@Z 0000000180034a9c f   libvcruntime:frame.obj
 0001:00033db4       ?IsInExceptionSpec@@YAEPEAUEHExceptionRecord@@PEBU_s_ESTypeList@@@Z 0000000180034db4 f   libvcruntime:frame.obj
 0001:00033ea4       ?Is_bad_exception_allowed@@YAEPEBU_s_ESTypeList@@@Z 0000000180034ea4 f   libvcruntime:frame.obj
 0001:000341a0       $$000000                   00000001800351a0     libvcruntime:handlers.obj
 0001:00034400       $$000000                   0000000180035400     libucrt:strcmp.obj
 0001:000348f0       $$000000                   00000001800358f0     libucrt:cosf.obj
 0001:00034df0       $$000000                   0000000180035df0     libucrt:sinf.obj
 0001:00035738       ??$?RV<lambda_d80eeec6fff315bfe5c115232f3240e3>@@AEAV<lambda_6e4b09c48022b2350581041d5f6b0c4c>@@V<lambda_2358e3775559c9db80273638284d5e45>@@@?$__crt_seh_guarded_call@X@@QEAAX$$QEAV<lambda_d80eeec6fff315bfe5c115232f3240e3>@@AEAV<lambda_6e4b09c48022b2350581041d5f6b0c4c>@@$$QEAV<lambda_2358e3775559c9db80273638284d5e45>@@@Z 0000000180036738 f   libucrt:exit.obj
 0001:00035770       ??R<lambda_6e4b09c48022b2350581041d5f6b0c4c>@@QEBA@XZ 0000000180036770 f   libucrt:exit.obj
 0001:00035834       ?atexit_exception_filter@@YAHK@Z 0000000180036834 f   libucrt:exit.obj
 0001:00035840       ?common_exit@@YAXHW4_crt_exit_cleanup_mode@@W4_crt_exit_return_mode@@@Z 0000000180036840 f   libucrt:exit.obj
 0001:000358fc       ?exit_or_terminate_process@@YAXI@Z 00000001800368fc f   libucrt:exit.obj
 0001:00035948       ?try_cor_exit_process@@YAXI@Z 0000000180036948 f   libucrt:exit.obj
 0001:000359d0       ??$parse_command_line@D@@YAXPEADPEAPEAD0PEA_K2@Z 00000001800369d0 f   libucrt:argv_parsing.obj
 0001:00035d78       ??$common_initialize_environment_nolock@D@@YAHXZ 0000000180036d78 f   libucrt:environment_initialization.obj
 0001:00035de4       ??$create_environment@D@@YAQEAPEADQEAD@Z 0000000180036de4 f   libucrt:environment_initialization.obj
 0001:00035eec       ??$free_environment@D@@YAXQEAPEAD@Z 0000000180036eec f   libucrt:environment_initialization.obj
 0001:00035eec       ??$free_environment@_W@@YAXQEAPEA_W@Z 0000000180036eec f   libucrt:environment_initialization.obj
 0001:00035f30       ??$uninitialize_environment_internal@D@@YAXAEAPEAPEAD@Z 0000000180036f30 f   libucrt:environment_initialization.obj
 0001:00035f4c       ??$uninitialize_environment_internal@_W@@YAXAEAPEAPEA_W@Z 0000000180036f4c f   libucrt:environment_initialization.obj
 0001:00035fa8       ??$?RV<lambda_7777bce6b2f8c936911f934f8298dc43>@@AEAV<lambda_f03950bc5685219e0bcd2087efbe011e>@@V<lambda_3883c3dff614d5e0c5f61bb1ac94921c>@@@?$__crt_seh_guarded_call@H@@QEAAH$$QEAV<lambda_7777bce6b2f8c936911f934f8298dc43>@@AEAV<lambda_f03950bc5685219e0bcd2087efbe011e>@@$$QEAV<lambda_3883c3dff614d5e0c5f61bb1ac94921c>@@@Z 0000000180036fa8 f   libucrt:onexit.obj
 0001:00035fe4       ??R<lambda_f03950bc5685219e0bcd2087efbe011e>@@QEBAHXZ 0000000180036fe4 f   libucrt:onexit.obj
 0001:00036160       initialize_global_variables 0000000180037160 f   libucrt:initialization.obj
 0001:00036174       initialize_c               0000000180037174 f   libucrt:initialization.obj
 0001:00036198       initialize_environment     0000000180037198 f   libucrt:initialization.obj
 0001:00036198       initialize_global_state_isolation 0000000180037198 f   libucrt:initialization.obj
 0001:00036198       report_memory_leaks        0000000180037198 f   libucrt:initialization.obj
 0001:00036198       uninitialize_c             0000000180037198 f   libucrt:initialization.obj
 0001:00036198       uninitialize_global_state_isolation 0000000180037198 f   libucrt:initialization.obj
 0001:0003619c       uninitialize_environment   000000018003719c f   libucrt:initialization.obj
 0001:000361ac       initialize_pointers        00000001800371ac f   libucrt:initialization.obj
 0001:000361ec       uninitialize_vcruntime     00000001800371ec f   libucrt:initialization.obj
 0001:000361f4       uninitialize_allocated_memory 00000001800371f4 f   libucrt:initialization.obj
 0001:00036234       uninitialize_allocated_io_buffers 0000000180037234 f   libucrt:initialization.obj
 0001:000363f0       ??$common_vsprintf@Vformat_validation_base@__crt_stdio_output@@D@@YAH_KQEAD0QEBDQEAU__crt_locale_pointers@@1@Z 00000001800373f0 f   libucrt:output.obj
 0001:00037198       $LN17                      0000000180038198     libucrt:output.obj
 0001:00037cf0       $$000000                   0000000180038cf0     libucrt:strncmp.obj
 0001:00037e84       _call_matherr              0000000180038e84 f   libucrt:libm_error.obj
 0001:00037eec       _exception_enabled         0000000180038eec f   libucrt:libm_error.obj
 0001:00038230       $$000000                   0000000180039230     libucrt:remainder_piby2f_forasm.obj
 0001:00038380       $$000000                   0000000180039380     libucrt:remainder_piby2_forfma3.obj
 0001:000385fc       _sincosf_special           00000001800395fc f   libucrt:sincos_special.obj
 0001:00038710       $$000000                   0000000180039710     libucrt:remainder_piby2f_forc.obj
 0001:000388dc       ??$?RV<lambda_0ae27a3a962d80f24befdcbee591983d>@@AEAV<lambda_8d0ee55de4b1038c4002e0adecdf1839>@@V<lambda_dc504788e8f1664fe9b84e20bfb512f2>@@@?$__crt_seh_guarded_call@X@@QEAAX$$QEAV<lambda_0ae27a3a962d80f24befdcbee591983d>@@AEAV<lambda_8d0ee55de4b1038c4002e0adecdf1839>@@$$QEAV<lambda_dc504788e8f1664fe9b84e20bfb512f2>@@@Z 00000001800398dc f   libucrt:per_thread_data.obj
 0001:0003891c       ??$?RV<lambda_2d41944a1d46af3157314b8a01080d33>@@AEAV<lambda_8f455de75cd7d7f24b4096f044d8b9e6>@@V<lambda_aa500f224e6afead328df44964fe2772>@@@?$__crt_seh_guarded_call@X@@QEAAX$$QEAV<lambda_2d41944a1d46af3157314b8a01080d33>@@AEAV<lambda_8f455de75cd7d7f24b4096f044d8b9e6>@@$$QEAV<lambda_aa500f224e6afead328df44964fe2772>@@@Z 000000018003991c f   libucrt:per_thread_data.obj
 0001:0003895c       ??$?RV<lambda_aa87e3671a710a21b5dc78c0bdf72e11>@@AEAV<lambda_92619d2358a28f41a33ba319515a20b9>@@V<lambda_6992ecaafeb10aed2b74cb1fae11a551>@@@?$__crt_seh_guarded_call@X@@QEAAX$$QEAV<lambda_aa87e3671a710a21b5dc78c0bdf72e11>@@AEAV<lambda_92619d2358a28f41a33ba319515a20b9>@@$$QEAV<lambda_6992ecaafeb10aed2b74cb1fae11a551>@@@Z 000000018003995c f   libucrt:per_thread_data.obj
 0001:000389a4       ??$?RV<lambda_f2e299630e499de9f9a165e60fcd3db5>@@AEAV<lambda_2ae9d31cdba2644fcbeaf08da7c24588>@@V<lambda_40d01ff24d0e7b3814fdbdcee8eab3c7>@@@?$__crt_seh_guarded_call@X@@QEAAX$$QEAV<lambda_f2e299630e499de9f9a165e60fcd3db5>@@AEAV<lambda_2ae9d31cdba2644fcbeaf08da7c24588>@@$$QEAV<lambda_40d01ff24d0e7b3814fdbdcee8eab3c7>@@@Z 00000001800399a4 f   libucrt:per_thread_data.obj
 0001:00038a04       ?construct_ptd_array@@YAXQEAU__acrt_ptd@@@Z 0000000180039a04 f   libucrt:per_thread_data.obj
 0001:00038ad4       ?destroy_fls@@YAXPEAX@Z    0000000180039ad4 f   libucrt:per_thread_data.obj
 0001:00038af4       ?destroy_ptd_array@@YAXQEAU__acrt_ptd@@@Z 0000000180039af4 f   libucrt:per_thread_data.obj
 0001:00038bec       ?replace_current_thread_locale_nolock@@YAXQEAU__acrt_ptd@@QEAU__crt_locale_data@@@Z 0000000180039bec f   libucrt:per_thread_data.obj
 0001:00039400       ?<lambda_invoker_cdecl>@<lambda_a1ce4c8ae42411fd470c77163914f50e>@@CAHPEBX0@Z 000000018003a400 f   libucrt:argv_wildcards.obj
 0001:00039718       ??$common_expand_argv_wildcards@D@@YAHQEAPEADQEAPEAPEAD@Z 000000018003a718 f   libucrt:argv_wildcards.obj
 0001:00039924       ??$copy_and_add_argument_to_buffer@D@@YAHQEBD0_KAEAV?$argument_list@D@?A0x5f5c8891@@@Z 000000018003a924 f   libucrt:argv_wildcards.obj
 0001:00039aac       ??$expand_argument_wildcards@D@@YAHQEAD0AEAV?$argument_list@D@?A0x5f5c8891@@@Z 000000018003aaac f   libucrt:argv_wildcards.obj
 0001:00039ff8       ??$?RV<lambda_efdfa57d1f175319df784efa44bb7b81>@@AEAV<lambda_5f0a4c1567f8adc6734073e5d1e1b35c>@@V<lambda_2e8a7d3640ea6ccb4c2413664c2db6fd>@@@?$__crt_seh_guarded_call@X@@QEAAX$$QEAV<lambda_efdfa57d1f175319df784efa44bb7b81>@@AEAV<lambda_5f0a4c1567f8adc6734073e5d1e1b35c>@@$$QEAV<lambda_2e8a7d3640ea6ccb4c2413664c2db6fd>@@@Z 000000018003aff8 f   libucrt:mbctype.obj
 0001:0003a1b4       ?getSystemCP@@YAHH@Z       000000018003b1b4 f   libucrt:mbctype.obj
 0001:0003a234       ?setSBCS@@YAXPEAU__crt_multibyte_data@@@Z 000000018003b234 f   libucrt:mbctype.obj
 0001:0003a2c4       ?setSBUpLow@@YAXPEAU__crt_multibyte_data@@@Z 000000018003b2c4 f   libucrt:mbctype.obj
 0001:0003a4a8       ?setmbcp_internal@@YAHH_NQEAU__acrt_ptd@@QEAPEAU__crt_multibyte_data@@@Z 000000018003b4a8 f   libucrt:mbctype.obj
 0001:0003a668       ?update_thread_multibyte_data_internal@@YAPEAU__crt_multibyte_data@@QEAU__acrt_ptd@@QEAPEAU1@@Z 000000018003b668 f   libucrt:mbctype.obj
 0001:0003aa58       ?x_ismbbtype_l@@YAHPEAU__crt_locale_pointers@@IHH@Z 000000018003ba58 f   libucrt:ismbbyte.obj
 0001:0003adb4       ?try_get_function@@YAPEAXW4function_id@?A0x391cf84c@@QEBDQEBW4module_id@2@2@Z 000000018003bdb4 f   libucrt:winapi_thunks.obj
 0001:0003b374       ?initialize_inherited_file_handles_nolock@@YAXXZ 000000018003c374 f   libucrt:ioinit.obj
 0001:0003b464       ?initialize_stdio_handles_nolock@@YAXXZ 000000018003c464 f   libucrt:ioinit.obj
 0001:0003b714       ??$?RV<lambda_450d765d439847d4c735a33c368b5fc0>@@AEAV<lambda_44731a7d0e6d81c3e6aa82d741081786>@@V<lambda_601a2a7da3b7a96e9554ac7215c4b07c>@@@?$__crt_seh_guarded_call@P6AXH@Z@@QEAAP6AXH@Z$$QEAV<lambda_450d765d439847d4c735a33c368b5fc0>@@AEAV<lambda_44731a7d0e6d81c3e6aa82d741081786>@@$$QEAV<lambda_601a2a7da3b7a96e9554ac7215c4b07c>@@@Z 000000018003c714 f   libucrt:signal.obj
 0001:0003ba70       ??$?RV<lambda_842d9ff0dc9ef11c61343bbaebe7f885>@@AEAV<lambda_c5860995281e5c4ce005b3de8f5874ee>@@V<lambda_d90129c13df834fdcbf8d2b88dafcf2d>@@@?$__crt_seh_guarded_call@X@@QEAAX$$QEAV<lambda_842d9ff0dc9ef11c61343bbaebe7f885>@@AEAV<lambda_c5860995281e5c4ce005b3de8f5874ee>@@$$QEAV<lambda_d90129c13df834fdcbf8d2b88dafcf2d>@@@Z 000000018003ca70 f   libucrt:fflush.obj
 0001:0003bb0c       ??$?RV<lambda_886d6c58226a84441f68b9f2b8217b83>@@AEAV<lambda_ab61a845afdef5b7c387490eaf3616ee>@@V<lambda_f7f22ab5edc0698d5f6905b0d3f44752>@@@?$__crt_seh_guarded_call@X@@QEAAX$$QEAV<lambda_886d6c58226a84441f68b9f2b8217b83>@@AEAV<lambda_ab61a845afdef5b7c387490eaf3616ee>@@$$QEAV<lambda_f7f22ab5edc0698d5f6905b0d3f44752>@@@Z 000000018003cb0c f   libucrt:fflush.obj
 0001:0003bbec       ?common_flush_all@@YAH_N@Z 000000018003cbec f   libucrt:fflush.obj
 0001:0003c5f0       ?fp_format_a@@YAHQEBNPEAD_KQEAD2H_NIQEAU__crt_locale_pointers@@W4__acrt_rounding_mode@@@Z 000000018003d5f0 f   libucrt:cvt.obj
 0001:0003c970       ?fp_format_e@@YAHQEBNQEAD_K12H_NIQEAU__crt_locale_pointers@@W4__acrt_rounding_mode@@@Z 000000018003d970 f   libucrt:cvt.obj
 0001:0003ca60       ?fp_format_e_internal@@YAHQEAD_KH_NIQEAU_strflt@@2QEAU__crt_locale_pointers@@@Z 000000018003da60 f   libucrt:cvt.obj
 0001:0003cc34       ?fp_format_f_internal@@YAHQEAD_KHQEAU_strflt@@_NQEAU__crt_locale_pointers@@@Z 000000018003dc34 f   libucrt:cvt.obj
 0001:0003cd9c       ?fp_format_g@@YAHQEBNQEAD_K12H_NIW4__acrt_rounding_mode@@QEAU__crt_locale_pointers@@@Z 000000018003dd9c f   libucrt:cvt.obj
 0001:0003cee4       ?should_round_up@@YA_NQEBN_KFW4__acrt_rounding_mode@@@Z 000000018003dee4 f   libucrt:cvt.obj
 0001:0003d374       ??$?RV<lambda_410d79af7f07d98d83a3f525b3859a53>@@AEAV<lambda_3e16ef9562a7dcce91392c22ab16ea36>@@V<lambda_38119f0e861e05405d8a144b9b982f0a>@@@?$__crt_seh_guarded_call@X@@QEAAX$$QEAV<lambda_410d79af7f07d98d83a3f525b3859a53>@@AEAV<lambda_3e16ef9562a7dcce91392c22ab16ea36>@@$$QEAV<lambda_38119f0e861e05405d8a144b9b982f0a>@@@Z 000000018003e374 f   libucrt:wsetlocale.obj
 0001:0003d560       $$000000                   000000018003e560     libucrt:fpsr.obj
 0001:0003e1e4       fallbackMethod             000000018003f1e4 f   libucrt:strpbrk.obj
 0001:0003e59c       $LN78                      000000018003f59c     libucrt:strpbrk.obj
 0001:0003e5d8       $LN77                      000000018003f5d8     libucrt:strpbrk.obj
 0001:0003e618       $LN76                      000000018003f618     libucrt:strpbrk.obj
 0001:0003e884       ?__acrt_LCMapStringA_stat@@YAHPEAU__crt_locale_pointers@@PEB_WKPEBDHPEADHHH@Z 000000018003f884 f   libucrt:lcmapstringa.obj
 0001:0003ec34       ?initialize_multibyte@@YAHXZ 000000018003fc34 f   libucrt:multibyte_initializer.obj
 0001:0003f0d8       ??$?RV<lambda_a37b2b86f63e897a80ea819b0eb08c01>@@AEAV<lambda_38ce7e780aa69e748d6df282ebc68efe>@@V<lambda_99fb1378e971ab6e7edea83e3a7a83a2>@@@?$__crt_seh_guarded_call@H@@QEAAH$$QEAV<lambda_a37b2b86f63e897a80ea819b0eb08c01>@@AEAV<lambda_38ce7e780aa69e748d6df282ebc68efe>@@$$QEAV<lambda_99fb1378e971ab6e7edea83e3a7a83a2>@@@Z 00000001800400d8 f   libucrt:commit.obj
 0001:0003f1f8       ?write_double_translated_ansi_nolock@@YA?AUwrite_result@?A0x17268360@@HQEBDI@Z 00000001800401f8 f   libucrt:write.obj
 0001:0003f6e4       ?write_text_ansi_nolock@@YA?AUwrite_result@?A0x17268360@@HQEBDI@Z 00000001800406e4 f   libucrt:write.obj
 0001:0003f7e8       ?write_text_utf16le_nolock@@YA?AUwrite_result@?A0x17268360@@HQEBDI@Z 00000001800407e8 f   libucrt:write.obj
 0001:0003f904       ?write_text_utf8_nolock@@YA?AUwrite_result@?A0x17268360@@HQEBDI@Z 0000000180040904 f   libucrt:write.obj
 0001:00041a20       memcpy_s                   0000000180042a20 f   libucrt:cfout.obj
 0001:00041c34       ?free_crt_array_internal@@YAXQEAPEBX_K@Z 0000000180042c34 f   libucrt:inittime.obj
 0001:00041e00       ??$common_lseek_nolock@_J@@YA_JH_JH@Z 0000000180042e00 f   libucrt:lseek.obj
 0001:00042390       $$000000                   0000000180043390     libucrt:log10.obj
 0001:00042d8c       ??$?RV<lambda_751a882b2c74d4b022dec766aa51a29a>@@AEAV<lambda_628dfdc04ba53c8bfc02c9951375f3f5>@@V<lambda_f6c7be5f7998530c34de24c7437d6b54>@@@?$__crt_seh_guarded_call@H@@QEAAH$$QEAV<lambda_751a882b2c74d4b022dec766aa51a29a>@@AEAV<lambda_628dfdc04ba53c8bfc02c9951375f3f5>@@$$QEAV<lambda_f6c7be5f7998530c34de24c7437d6b54>@@@Z 0000000180043d8c f   libucrt:close.obj
 0001:00042ff8       common_control87           0000000180043ff8 f   libucrt:ieee.obj
 0001:000432e0       _log_special_common        00000001800442e0 f   libucrt:log_special.obj
 0001:000434d0       $$000000                   00000001800444d0     LIBCMT:amdsecgs.obj
 0001:00043740       capture_current_context    0000000180044740 f   LIBCMT:gs_report.obj
 0001:000437b0       capture_previous_context   00000001800447b0 f   LIBCMT:gs_report.obj
 0001:00043950       $$000000                   0000000180044950     libvcruntime:memcmp.obj
 0001:00043a30       $$000000                   0000000180044a30     LIBCMT:guard_dispatch.obj
 0001:00043a50       $$000000                   0000000180044a50     LIBCMT:guard_xfg_dispatch.obj
 0001:00043a70       ?fin$0@?0??dllmain_crt_process_attach@@YAHQEAUHINSTANCE__@@QEAX@Z@4HA 0000000180044a70 f   LIBCMT:dll_dllmain.obj
 0001:00043a87       ?fin$0@?0??dllmain_crt_process_detach@@YAH_N@Z@4HA 0000000180044a87 f   LIBCMT:dll_dllmain.obj
 0001:00043aa0       ?fin$1@?0??dllmain_crt_process_detach@@YAH_N@Z@4HA 0000000180044aa0 f   LIBCMT:dll_dllmain.obj
 0001:00043ab4       ?filt$0@?0??dllmain_dispatch@@YAHQEAUHINSTANCE__@@KQEAX@Z@4HA 0000000180044ab4 f   LIBCMT:dll_dllmain.obj
 0001:00043aea       __scrt_is_nonwritable_in_current_image$filt$0 0000000180044aea f   LIBCMT:utility.obj
 0001:00043b02       __DestructExceptionObject$filt$0 0000000180044b02 f   libvcruntime:ehhelpers.obj
 0001:00043b98       ?dtor$0@?0??getDecoratedName@UnDecorator@@CA?AVDName@@XZ@4HA 0000000180044b98 f   libvcruntime:undname.obj
 0001:00043ba4       __unDNameEx$fin$0          0000000180044ba4 f   libvcruntime:undname.obj
 0001:00043bba       ?filt$0@?0???$_CallSETranslator@V__FrameHandler4@@@@YAHPEAUEHExceptionRecord@@PEA_KPEAU_CONTEXT@@PEAU_xDISPATCHER_CONTEXT@@PEAUFuncInfo4@FH4@@K1H@Z@4HA 0000000180044bba f   libvcruntime:risctrnsctrl.obj
 0001:00043c59       ?filt$0@?0??CxxCallCatchBlock@__FrameHandler4@@SAPEAXPEAU_EXCEPTION_RECORD@@@Z@4HA 0000000180044c59 f   libvcruntime:frame.obj
 0001:00043c88       ?fin$1@?0??CxxCallCatchBlock@__FrameHandler4@@SAPEAXPEAU_EXCEPTION_RECORD@@@Z@4HA 0000000180044c88 f   libvcruntime:frame.obj
 0001:00043d0b       ?filt$0@?0??FrameUnwindToState@__FrameHandler4@@SAXPEA_KPEAU_xDISPATCHER_CONTEXT@@PEAUFuncInfo4@FH4@@H@Z@4HA 0000000180044d0b f   libvcruntime:frame.obj
 0001:00043d21       ?fin$1@?0??FrameUnwindToState@__FrameHandler4@@SAXPEA_KPEAU_xDISPATCHER_CONTEXT@@PEAUFuncInfo4@FH4@@H@Z@4HA 0000000180044d21 f   libvcruntime:frame.obj
 0001:00043d44       ?fin$0@?0???$?RV<lambda_0ae27a3a962d80f24befdcbee591983d>@@AEAV<lambda_8d0ee55de4b1038c4002e0adecdf1839>@@V<lambda_dc504788e8f1664fe9b84e20bfb512f2>@@@?$__crt_seh_guarded_call@X@@QEAAX$$QEAV<lambda_0ae27a3a962d80f24befdcbee591983d>@@AEAV<lambda_8d0ee55de4b1038c4002e0adecdf1839>@@$$QEAV<lambda_dc504788e8f1664fe9b84e20bfb512f2>@@@Z@4HA 0000000180044d44 f   libucrt:per_thread_data.obj
 0001:00043d44       ?fin$0@?0???$?RV<lambda_2d41944a1d46af3157314b8a01080d33>@@AEAV<lambda_8f455de75cd7d7f24b4096f044d8b9e6>@@V<lambda_aa500f224e6afead328df44964fe2772>@@@?$__crt_seh_guarded_call@X@@QEAAX$$QEAV<lambda_2d41944a1d46af3157314b8a01080d33>@@AEAV<lambda_8f455de75cd7d7f24b4096f044d8b9e6>@@$$QEAV<lambda_aa500f224e6afead328df44964fe2772>@@@Z@4HA 0000000180044d44 f   libucrt:per_thread_data.obj
 0001:00043d44       ?fin$0@?0???$?RV<lambda_aa87e3671a710a21b5dc78c0bdf72e11>@@AEAV<lambda_92619d2358a28f41a33ba319515a20b9>@@V<lambda_6992ecaafeb10aed2b74cb1fae11a551>@@@?$__crt_seh_guarded_call@X@@QEAAX$$QEAV<lambda_aa87e3671a710a21b5dc78c0bdf72e11>@@AEAV<lambda_92619d2358a28f41a33ba319515a20b9>@@$$QEAV<lambda_6992ecaafeb10aed2b74cb1fae11a551>@@@Z@4HA 0000000180044d44 f   libucrt:per_thread_data.obj
 0001:00043d44       ?fin$0@?0???$?RV<lambda_f2e299630e499de9f9a165e60fcd3db5>@@AEAV<lambda_2ae9d31cdba2644fcbeaf08da7c24588>@@V<lambda_40d01ff24d0e7b3814fdbdcee8eab3c7>@@@?$__crt_seh_guarded_call@X@@QEAAX$$QEAV<lambda_f2e299630e499de9f9a165e60fcd3db5>@@AEAV<lambda_2ae9d31cdba2644fcbeaf08da7c24588>@@$$QEAV<lambda_40d01ff24d0e7b3814fdbdcee8eab3c7>@@@Z@4HA 0000000180044d44 f   libucrt:per_thread_data.obj
 0001:00043d44       ?fin$0@?0???$?RV<lambda_efdfa57d1f175319df784efa44bb7b81>@@AEAV<lambda_5f0a4c1567f8adc6734073e5d1e1b35c>@@V<lambda_2e8a7d3640ea6ccb4c2413664c2db6fd>@@@?$__crt_seh_guarded_call@X@@QEAAX$$QEAV<lambda_efdfa57d1f175319df784efa44bb7b81>@@AEAV<lambda_5f0a4c1567f8adc6734073e5d1e1b35c>@@$$QEAV<lambda_2e8a7d3640ea6ccb4c2413664c2db6fd>@@@Z@4HA 0000000180044d44 f   libucrt:mbctype.obj
 0001:00043d44       ?fin$0@?0???$?RV<lambda_450d765d439847d4c735a33c368b5fc0>@@AEAV<lambda_44731a7d0e6d81c3e6aa82d741081786>@@V<lambda_601a2a7da3b7a96e9554ac7215c4b07c>@@@?$__crt_seh_guarded_call@P6AXH@Z@@QEAAP6AXH@Z$$QEAV<lambda_450d765d439847d4c735a33c368b5fc0>@@AEAV<lambda_44731a7d0e6d81c3e6aa82d741081786>@@$$QEAV<lambda_601a2a7da3b7a96e9554ac7215c4b07c>@@@Z@4HA 0000000180044d44 f   libucrt:signal.obj
 0001:00043d44       ?fin$0@?0???$?RV<lambda_d80eeec6fff315bfe5c115232f3240e3>@@AEAV<lambda_6e4b09c48022b2350581041d5f6b0c4c>@@V<lambda_2358e3775559c9db80273638284d5e45>@@@?$__crt_seh_guarded_call@X@@QEAAX$$QEAV<lambda_d80eeec6fff315bfe5c115232f3240e3>@@AEAV<lambda_6e4b09c48022b2350581041d5f6b0c4c>@@$$QEAV<lambda_2358e3775559c9db80273638284d5e45>@@@Z@4HA 0000000180044d44 f   libucrt:exit.obj
 0001:00043d44       ?fin$0@?0???$?RV<lambda_7777bce6b2f8c936911f934f8298dc43>@@AEAV<lambda_f03950bc5685219e0bcd2087efbe011e>@@V<lambda_3883c3dff614d5e0c5f61bb1ac94921c>@@@?$__crt_seh_guarded_call@H@@QEAAH$$QEAV<lambda_7777bce6b2f8c936911f934f8298dc43>@@AEAV<lambda_f03950bc5685219e0bcd2087efbe011e>@@$$QEAV<lambda_3883c3dff614d5e0c5f61bb1ac94921c>@@@Z@4HA 0000000180044d44 f   libucrt:onexit.obj
 0001:00043d5e       ?filt$0@?0???R<lambda_6e4b09c48022b2350581041d5f6b0c4c>@@QEBA@XZ@4HA 0000000180044d5e f   libucrt:exit.obj
 0001:00043d79       _ctrlfp$filt$0             0000000180044d79 f   libucrt:fpctrl.obj
 0001:00043d79       common_control87$filt$0    0000000180044d79 f   libucrt:ieee.obj
 0001:00043da5       ?fin$0@?0??update_thread_multibyte_data_internal@@YAPEAU__crt_multibyte_data@@QEAU__acrt_ptd@@QEAPEAU1@@Z@4HA 0000000180044da5 f   libucrt:mbctype.obj
 0001:00043dbe       __acrt_initialize_lowio$fin$0 0000000180044dbe f   libucrt:ioinit.obj
 0001:00043dbe       __acrt_lowio_ensure_fh_exists$fin$0 0000000180044dbe f   libucrt:osfinfo.obj
 0001:00043dd7       _query_new_handler$fin$0   0000000180044dd7 f   libucrt:new_handler.obj
 0001:00043ded       raise$fin$0                0000000180044ded f   libucrt:signal.obj
 0001:00043e0e       ?fin$0@?0???$?RV<lambda_842d9ff0dc9ef11c61343bbaebe7f885>@@AEAV<lambda_c5860995281e5c4ce005b3de8f5874ee>@@V<lambda_d90129c13df834fdcbf8d2b88dafcf2d>@@@?$__crt_seh_guarded_call@X@@QEAAX$$QEAV<lambda_842d9ff0dc9ef11c61343bbaebe7f885>@@AEAV<lambda_c5860995281e5c4ce005b3de8f5874ee>@@$$QEAV<lambda_d90129c13df834fdcbf8d2b88dafcf2d>@@@Z@4HA 0000000180044e0e f   libucrt:fflush.obj
 0001:00043e29       ?fin$0@?0???$?RV<lambda_886d6c58226a84441f68b9f2b8217b83>@@AEAV<lambda_ab61a845afdef5b7c387490eaf3616ee>@@V<lambda_f7f22ab5edc0698d5f6905b0d3f44752>@@@?$__crt_seh_guarded_call@X@@QEAAX$$QEAV<lambda_886d6c58226a84441f68b9f2b8217b83>@@AEAV<lambda_ab61a845afdef5b7c387490eaf3616ee>@@$$QEAV<lambda_f7f22ab5edc0698d5f6905b0d3f44752>@@@Z@4HA 0000000180044e29 f   libucrt:fflush.obj
 0001:00043e46       ?fin$0@?0???$?RV<lambda_410d79af7f07d98d83a3f525b3859a53>@@AEAV<lambda_3e16ef9562a7dcce91392c22ab16ea36>@@V<lambda_38119f0e861e05405d8a144b9b982f0a>@@@?$__crt_seh_guarded_call@X@@QEAAX$$QEAV<lambda_410d79af7f07d98d83a3f525b3859a53>@@AEAV<lambda_3e16ef9562a7dcce91392c22ab16ea36>@@$$QEAV<lambda_38119f0e861e05405d8a144b9b982f0a>@@@Z@4HA 0000000180044e46 f   libucrt:wsetlocale.obj
 0001:00043e60       __acrt_update_thread_locale_data$fin$0 0000000180044e60 f   libucrt:locale_refcounting.obj
 0001:00043e79       ?fin$0@?0???$?RV<lambda_751a882b2c74d4b022dec766aa51a29a>@@AEAV<lambda_628dfdc04ba53c8bfc02c9951375f3f5>@@V<lambda_f6c7be5f7998530c34de24c7437d6b54>@@@?$__crt_seh_guarded_call@H@@QEAAH$$QEAV<lambda_751a882b2c74d4b022dec766aa51a29a>@@AEAV<lambda_628dfdc04ba53c8bfc02c9951375f3f5>@@$$QEAV<lambda_f6c7be5f7998530c34de24c7437d6b54>@@@Z@4HA 0000000180044e79 f   libucrt:close.obj
 0001:00043e79       ?fin$0@?0???$?RV<lambda_a37b2b86f63e897a80ea819b0eb08c01>@@AEAV<lambda_38ce7e780aa69e748d6df282ebc68efe>@@V<lambda_99fb1378e971ab6e7edea83e3a7a83a2>@@@?$__crt_seh_guarded_call@H@@QEAAH$$QEAV<lambda_a37b2b86f63e897a80ea819b0eb08c01>@@AEAV<lambda_38ce7e780aa69e748d6df282ebc68efe>@@$$QEAV<lambda_99fb1378e971ab6e7edea83e3a7a83a2>@@@Z@4HA 0000000180044e79 f   libucrt:commit.obj
 0001:00043e93       _write$fin$0               0000000180044e93 f   libucrt:write.obj
 0001:00043eaa       _fcloseall$fin$0           0000000180044eaa f   libucrt:closeall.obj
 0001:00043ec3       fclose$fin$0               0000000180044ec3 f   libucrt:fclose.obj
 0001:00043ee0       _IsNonwritableInCurrentImage$filt$0 0000000180044ee0 f   LIBCMT:pesect.obj
 0002:00000288       ?minFError$initializer$@_VecMathTests@aos@shdfnd@physx@@3P6AXXZEA 0000000180045288     Cooking.obj
 0002:00000290       ?maxFError$initializer$@_VecMathTests@aos@shdfnd@physx@@3P6AXXZEA 0000000180045290     Cooking.obj
 0002:00000298       ?minV3Error$initializer$@_VecMathTests@aos@shdfnd@physx@@3P6AXXZEA 0000000180045298     Cooking.obj
 0002:000002a0       ?maxV3Error$initializer$@_VecMathTests@aos@shdfnd@physx@@3P6AXXZEA 00000001800452a0     Cooking.obj
 0002:000002a8       ?minV4Error$initializer$@_VecMathTests@aos@shdfnd@physx@@3P6AXXZEA 00000001800452a8     Cooking.obj
 0002:000002b0       ?maxV4Error$initializer$@_VecMathTests@aos@shdfnd@physx@@3P6AXXZEA 00000001800452b0     Cooking.obj
 0002:000002b8       ?minFError$initializer$@_VecMathTests@aos@shdfnd@physx@@3P6AXXZEA 00000001800452b8     BVHStructureBuilder.obj
 0002:000002c0       ?maxFError$initializer$@_VecMathTests@aos@shdfnd@physx@@3P6AXXZEA 00000001800452c0     BVHStructureBuilder.obj
 0002:000002c8       ?minV3Error$initializer$@_VecMathTests@aos@shdfnd@physx@@3P6AXXZEA 00000001800452c8     BVHStructureBuilder.obj
 0002:000002d0       ?maxV3Error$initializer$@_VecMathTests@aos@shdfnd@physx@@3P6AXXZEA 00000001800452d0     BVHStructureBuilder.obj
 0002:000002d8       ?minV4Error$initializer$@_VecMathTests@aos@shdfnd@physx@@3P6AXXZEA 00000001800452d8     BVHStructureBuilder.obj
 0002:000002e0       ?maxV4Error$initializer$@_VecMathTests@aos@shdfnd@physx@@3P6AXXZEA 00000001800452e0     BVHStructureBuilder.obj
 0002:000002e8       ?minFError$initializer$@_VecMathTests@aos@shdfnd@physx@@3P6AXXZEA 00000001800452e8     RTreeCooking.obj
 0002:000002f0       ?maxFError$initializer$@_VecMathTests@aos@shdfnd@physx@@3P6AXXZEA 00000001800452f0     RTreeCooking.obj
 0002:000002f8       ?minV3Error$initializer$@_VecMathTests@aos@shdfnd@physx@@3P6AXXZEA 00000001800452f8     RTreeCooking.obj
 0002:00000300       ?maxV3Error$initializer$@_VecMathTests@aos@shdfnd@physx@@3P6AXXZEA 0000000180045300     RTreeCooking.obj
 0002:00000308       ?minV4Error$initializer$@_VecMathTests@aos@shdfnd@physx@@3P6AXXZEA 0000000180045308     RTreeCooking.obj
 0002:00000310       ?maxV4Error$initializer$@_VecMathTests@aos@shdfnd@physx@@3P6AXXZEA 0000000180045310     RTreeCooking.obj
 0002:00000318       ?minFError$initializer$@_VecMathTests@aos@shdfnd@physx@@3P6AXXZEA 0000000180045318     MeshBuilder.obj
 0002:00000320       ?maxFError$initializer$@_VecMathTests@aos@shdfnd@physx@@3P6AXXZEA 0000000180045320     MeshBuilder.obj
 0002:00000328       ?minV3Error$initializer$@_VecMathTests@aos@shdfnd@physx@@3P6AXXZEA 0000000180045328     MeshBuilder.obj
 0002:00000330       ?maxV3Error$initializer$@_VecMathTests@aos@shdfnd@physx@@3P6AXXZEA 0000000180045330     MeshBuilder.obj
 0002:00000338       ?minV4Error$initializer$@_VecMathTests@aos@shdfnd@physx@@3P6AXXZEA 0000000180045338     MeshBuilder.obj
 0002:00000340       ?maxV4Error$initializer$@_VecMathTests@aos@shdfnd@physx@@3P6AXXZEA 0000000180045340     MeshBuilder.obj
 0002:00000348       ?minFError$initializer$@_VecMathTests@aos@shdfnd@physx@@3P6AXXZEA 0000000180045348     TriangleMeshBuilder.obj
 0002:00000350       ?maxFError$initializer$@_VecMathTests@aos@shdfnd@physx@@3P6AXXZEA 0000000180045350     TriangleMeshBuilder.obj
 0002:00000358       ?minV3Error$initializer$@_VecMathTests@aos@shdfnd@physx@@3P6AXXZEA 0000000180045358     TriangleMeshBuilder.obj
 0002:00000360       ?maxV3Error$initializer$@_VecMathTests@aos@shdfnd@physx@@3P6AXXZEA 0000000180045360     TriangleMeshBuilder.obj
 0002:00000368       ?minV4Error$initializer$@_VecMathTests@aos@shdfnd@physx@@3P6AXXZEA 0000000180045368     TriangleMeshBuilder.obj
 0002:00000370       ?maxV4Error$initializer$@_VecMathTests@aos@shdfnd@physx@@3P6AXXZEA 0000000180045370     TriangleMeshBuilder.obj
 0002:00000378       ?minFError$initializer$@_VecMathTests@aos@shdfnd@physx@@3P6AXXZEA 0000000180045378     BigConvexDataBuilder.obj
 0002:00000380       ?maxFError$initializer$@_VecMathTests@aos@shdfnd@physx@@3P6AXXZEA 0000000180045380     BigConvexDataBuilder.obj
 0002:00000388       ?minV3Error$initializer$@_VecMathTests@aos@shdfnd@physx@@3P6AXXZEA 0000000180045388     BigConvexDataBuilder.obj
 0002:00000390       ?maxV3Error$initializer$@_VecMathTests@aos@shdfnd@physx@@3P6AXXZEA 0000000180045390     BigConvexDataBuilder.obj
 0002:00000398       ?minV4Error$initializer$@_VecMathTests@aos@shdfnd@physx@@3P6AXXZEA 0000000180045398     BigConvexDataBuilder.obj
 0002:000003a0       ?maxV4Error$initializer$@_VecMathTests@aos@shdfnd@physx@@3P6AXXZEA 00000001800453a0     BigConvexDataBuilder.obj
 0002:000003a8       ?minFError$initializer$@_VecMathTests@aos@shdfnd@physx@@3P6AXXZEA 00000001800453a8     ConvexHullBuilder.obj
 0002:000003b0       ?maxFError$initializer$@_VecMathTests@aos@shdfnd@physx@@3P6AXXZEA 00000001800453b0     ConvexHullBuilder.obj
 0002:000003b8       ?minV3Error$initializer$@_VecMathTests@aos@shdfnd@physx@@3P6AXXZEA 00000001800453b8     ConvexHullBuilder.obj
 0002:000003c0       ?maxV3Error$initializer$@_VecMathTests@aos@shdfnd@physx@@3P6AXXZEA 00000001800453c0     ConvexHullBuilder.obj
 0002:000003c8       ?minV4Error$initializer$@_VecMathTests@aos@shdfnd@physx@@3P6AXXZEA 00000001800453c8     ConvexHullBuilder.obj
 0002:000003d0       ?maxV4Error$initializer$@_VecMathTests@aos@shdfnd@physx@@3P6AXXZEA 00000001800453d0     ConvexHullBuilder.obj
 0002:000003d8       ?minFError$initializer$@_VecMathTests@aos@shdfnd@physx@@3P6AXXZEA 00000001800453d8     ConvexHullUtils.obj
 0002:000003e0       ?maxFError$initializer$@_VecMathTests@aos@shdfnd@physx@@3P6AXXZEA 00000001800453e0     ConvexHullUtils.obj
 0002:000003e8       ?minV3Error$initializer$@_VecMathTests@aos@shdfnd@physx@@3P6AXXZEA 00000001800453e8     ConvexHullUtils.obj
 0002:000003f0       ?maxV3Error$initializer$@_VecMathTests@aos@shdfnd@physx@@3P6AXXZEA 00000001800453f0     ConvexHullUtils.obj
 0002:000003f8       ?minV4Error$initializer$@_VecMathTests@aos@shdfnd@physx@@3P6AXXZEA 00000001800453f8     ConvexHullUtils.obj
 0002:00000400       ?maxV4Error$initializer$@_VecMathTests@aos@shdfnd@physx@@3P6AXXZEA 0000000180045400     ConvexHullUtils.obj
 0002:00000408       ?minFError$initializer$@_VecMathTests@aos@shdfnd@physx@@3P6AXXZEA 0000000180045408     ConvexMeshBuilder.obj
 0002:00000410       ?maxFError$initializer$@_VecMathTests@aos@shdfnd@physx@@3P6AXXZEA 0000000180045410     ConvexMeshBuilder.obj
 0002:00000418       ?minV3Error$initializer$@_VecMathTests@aos@shdfnd@physx@@3P6AXXZEA 0000000180045418     ConvexMeshBuilder.obj
 0002:00000420       ?maxV3Error$initializer$@_VecMathTests@aos@shdfnd@physx@@3P6AXXZEA 0000000180045420     ConvexMeshBuilder.obj
 0002:00000428       ?minV4Error$initializer$@_VecMathTests@aos@shdfnd@physx@@3P6AXXZEA 0000000180045428     ConvexMeshBuilder.obj
 0002:00000430       ?maxV4Error$initializer$@_VecMathTests@aos@shdfnd@physx@@3P6AXXZEA 0000000180045430     ConvexMeshBuilder.obj
 0002:00000438       ?minFError$initializer$@_VecMathTests@aos@shdfnd@physx@@3P6AXXZEA 0000000180045438     VolumeIntegration.obj
 0002:00000440       ?maxFError$initializer$@_VecMathTests@aos@shdfnd@physx@@3P6AXXZEA 0000000180045440     VolumeIntegration.obj
 0002:00000448       ?minV3Error$initializer$@_VecMathTests@aos@shdfnd@physx@@3P6AXXZEA 0000000180045448     VolumeIntegration.obj
 0002:00000450       ?maxV3Error$initializer$@_VecMathTests@aos@shdfnd@physx@@3P6AXXZEA 0000000180045450     VolumeIntegration.obj
 0002:00000458       ?minV4Error$initializer$@_VecMathTests@aos@shdfnd@physx@@3P6AXXZEA 0000000180045458     VolumeIntegration.obj
 0002:00000460       ?maxV4Error$initializer$@_VecMathTests@aos@shdfnd@physx@@3P6AXXZEA 0000000180045460     VolumeIntegration.obj
 0002:00000600       ?minus1w@?A0x109d7877@aos@shdfnd@physx@@3QBMB 0000000180045600     Cooking.obj
 0002:00000610       ?gMaskXYZ@internalWindowsSimd@aos@shdfnd@physx@@3QBIB 0000000180045610     Cooking.obj
 0002:00000e70       ?minus1w@?A0xbc5cbf75@aos@shdfnd@physx@@3QBMB 0000000180045e70     BVHStructureBuilder.obj
 0002:00000e80       ?gMaskXYZ@internalWindowsSimd@aos@shdfnd@physx@@3QBIB 0000000180045e80     BVHStructureBuilder.obj
 0002:00000f30       ?minus1w@?A0x3da83d9a@aos@shdfnd@physx@@3QBMB 0000000180045f30     RTreeCooking.obj
 0002:00000f40       ?gMaskXYZ@internalWindowsSimd@aos@shdfnd@physx@@3QBIB 0000000180045f40     RTreeCooking.obj
 0002:00000f88       ?stopAtTrisPerPage@physx@@3QBIB 0000000180045f88     RTreeCooking.obj
 0002:00000fc8       ?stopAtTrisPerLeaf@physx@@3QBIB 0000000180045fc8     RTreeCooking.obj
 0002:000011d0       ?minus1w@?A0x21fb161e@aos@shdfnd@physx@@3QBMB 00000001800461d0     MeshBuilder.obj
 0002:000011e0       ?gMaskXYZ@internalWindowsSimd@aos@shdfnd@physx@@3QBIB 00000001800461e0     MeshBuilder.obj
 0002:00001200       ?minus1w@?A0x3168b740@aos@shdfnd@physx@@3QBMB 0000000180046200     TriangleMeshBuilder.obj
 0002:00001210       ?gMaskXYZ@internalWindowsSimd@aos@shdfnd@physx@@3QBIB 0000000180046210     TriangleMeshBuilder.obj
 0002:000016a0       ?minus1w@?A0x8007616e@aos@shdfnd@physx@@3QBMB 00000001800466a0     BigConvexDataBuilder.obj
 0002:000016b0       ?gMaskXYZ@internalWindowsSimd@aos@shdfnd@physx@@3QBIB 00000001800466b0     BigConvexDataBuilder.obj
 0002:00001750       ?minus1w@?A0xd59f399c@aos@shdfnd@physx@@3QBMB 0000000180046750     ConvexHullBuilder.obj
 0002:00001760       ?gMaskXYZ@internalWindowsSimd@aos@shdfnd@physx@@3QBIB 0000000180046760     ConvexHullBuilder.obj
 0002:00001c30       ?minus1w@?A0x2b8684ee@aos@shdfnd@physx@@3QBMB 0000000180046c30     ConvexHullUtils.obj
 0002:00001c40       ?gMaskXYZ@internalWindowsSimd@aos@shdfnd@physx@@3QBIB 0000000180046c40     ConvexHullUtils.obj
 0002:00001d00       ?minus1w@?A0x1b3b99c9@aos@shdfnd@physx@@3QBMB 0000000180046d00     ConvexMeshBuilder.obj
 0002:00001d10       ?gMaskXYZ@internalWindowsSimd@aos@shdfnd@physx@@3QBIB 0000000180046d10     ConvexMeshBuilder.obj
 0002:000022f0       ?minus1w@?A0x54712ab8@aos@shdfnd@physx@@3QBMB 00000001800472f0     VolumeIntegration.obj
 0002:00002300       ?gMaskXYZ@internalWindowsSimd@aos@shdfnd@physx@@3QBIB 0000000180047300     VolumeIntegration.obj
 0002:00002480       L_abs_mask                 0000000180047480     LIBCMT:svml_ssinf4_dispatch.obj
 0002:00002490       L_real_one                 0000000180047490     LIBCMT:svml_ssinf4_dispatch.obj
 0002:000024a0       L_one_half                 00000001800474a0     LIBCMT:svml_ssinf4_dispatch.obj
 0002:000024b0       L_two_to_neg_13            00000001800474b0     LIBCMT:svml_ssinf4_dispatch.obj
 0002:000024c0       L_pi_over_two              00000001800474c0     LIBCMT:svml_ssinf4_dispatch.obj
 0002:000024d0       L_pi_over_two2             00000001800474d0     LIBCMT:svml_ssinf4_dispatch.obj
 0002:00002650       ?tokenTable@@3QBUStringLiteral@@B 0000000180047650     libvcruntime:undname.obj
 0002:00002750       ?nameTable@@3QBUStringLiteral@@B 0000000180047750     libvcruntime:undname.obj
 0002:00002c80       ?rttiTable@@3QBUStringLiteral@@B 0000000180047c80     libvcruntime:undname.obj
 0002:00002cd0       ?IndirectionName@@3QBUStringLiteral@@B 0000000180047cd0     libvcruntime:undname.obj
 0002:00002d30       ?PrefixName@@3QBUStringLiteral@@B 0000000180047d30     libvcruntime:undname.obj
 0002:00003970       ?result@?1??IsValidIdentChar@@YA_ND@Z@4U<unnamed-type-result>@?1??InitValidIdentChar@@YA@XZ@B 0000000180048970     libvcruntime:undname.obj
 0002:00003ae0       ?ExceptionTemplate@?1??UnwindNestedFrames@__FrameHandler4@@SAXPEA_KPEAUEHExceptionRecord@@PEAU_CONTEXT@@0PEAXPEAUFuncInfo4@FH4@@HHPEAUHandlerType4@6@PEAU_xDISPATCHER_CONTEXT@@E@Z@4U_EXCEPTION_RECORD@@B 0000000180048ae0     libvcruntime:risctrnsctrl.obj
 0002:00003b78       ?module_names@?A0x6b2bd6b2@@3QBQEB_WB 0000000180048b78     libvcruntime:winapi_downlevel.obj
 0002:00003c38       ?candidate_modules@?1??try_get_FlsAlloc@@YAP6AKP6AXPEAX@Z@ZXZ@4QBW4module_id@?A0x6b2bd6b2@@B 0000000180048c38     libvcruntime:winapi_downlevel.obj
 0002:00003c50       ?candidate_modules@?1??try_get_FlsFree@@YAP6AHK@ZXZ@4QBW4module_id@?A0x6b2bd6b2@@B 0000000180048c50     libvcruntime:winapi_downlevel.obj
 0002:00003c60       ?candidate_modules@?1??try_get_FlsGetValue@@YAP6APEAXK@ZXZ@4QBW4module_id@?A0x6b2bd6b2@@B 0000000180048c60     libvcruntime:winapi_downlevel.obj
 0002:00003c78       ?candidate_modules@?1??try_get_FlsSetValue@@YAP6AHKPEAX@ZXZ@4QBW4module_id@?A0x6b2bd6b2@@B 0000000180048c78     libvcruntime:winapi_downlevel.obj
 0002:00003c90       ?candidate_modules@?1??try_get_InitializeCriticalSectionEx@@YAP6AHPEAU_RTL_CRITICAL_SECTION@@KK@ZXZ@4QBW4module_id@?A0x6b2bd6b2@@B 0000000180048c90     libvcruntime:winapi_downlevel.obj
 0002:00003d10       ?atan_jby256@?1??atan2f@@9@9 0000000180048d10     libucrt:atan2f.obj
 0002:00004510       L_real_one                 0000000180049510     libucrt:cosf.obj
 0002:00004520       L_one_half                 0000000180049520     libucrt:cosf.obj
 0002:00004530       L_2bypi                    0000000180049530     libucrt:cosf.obj
 0002:00004540       L_one_sixth                0000000180049540     libucrt:cosf.obj
 0002:00004550       L_piby2                    0000000180049550     libucrt:cosf.obj
 0002:00004560       L_piby2_1                  0000000180049560     libucrt:cosf.obj
 0002:00004570       L_piby2_1tail              0000000180049570     libucrt:cosf.obj
 0002:00004580       L_piby2_2                  0000000180049580     libucrt:cosf.obj
 0002:00004590       L_piby2_2tail              0000000180049590     libucrt:cosf.obj
 0002:000045a0       L_large_x_sse2             00000001800495a0     libucrt:cosf.obj
 0002:000045b0       L_large_x_fma3             00000001800495b0     libucrt:cosf.obj
 0002:000045c0       L_sign_mask                00000001800495c0     libucrt:cosf.obj
 0002:000045d0       L__int_three               00000001800495d0     libucrt:cosf.obj
 0002:000045e0       L__min_norm_double         00000001800495e0     libucrt:cosf.obj
 0002:000045f0       L_two_to_neg_7             00000001800495f0     libucrt:cosf.obj
 0002:00004600       L_two_to_neg_13            0000000180049600     libucrt:cosf.obj
 0002:00004610       L_two_to_32_float          0000000180049610     libucrt:cosf.obj
 0002:00004618       L_one_float                0000000180049618     libucrt:cosf.obj
 0002:00004620       L_inf_mask_32              0000000180049620     libucrt:cosf.obj
 0002:00004630       L_signbit                  0000000180049630     libucrt:sinf.obj
 0002:00004640       L_sign_mask                0000000180049640     libucrt:sinf.obj
 0002:00004650       L_one                      0000000180049650     libucrt:sinf.obj
 0002:00004660       L_int_three                0000000180049660     libucrt:sinf.obj
 0002:00004670       L_one_half                 0000000180049670     libucrt:sinf.obj
 0002:00004680       L_twobypi                  0000000180049680     libucrt:sinf.obj
 0002:00004690       L_piby2_1                  0000000180049690     libucrt:sinf.obj
 0002:000046a0       L_one_sixth                00000001800496a0     libucrt:sinf.obj
 0002:000046b0       L_piby2_1tail              00000001800496b0     libucrt:sinf.obj
 0002:000046c0       L_piby2_2                  00000001800496c0     libucrt:sinf.obj
 0002:000046d0       L_piby2_2tail              00000001800496d0     libucrt:sinf.obj
 0002:000046e0       L_inf_mask_32              00000001800496e0     libucrt:sinf.obj
 0002:000046f0       L_int_two                  00000001800496f0     libucrt:sinf.obj
 0002:00004700       L_piby2_lead               0000000180049700     libucrt:sinf.obj
 0002:00004710       L_piby4                    0000000180049710     libucrt:sinf.obj
 0002:00004720       L_mask_3f2                 0000000180049720     libucrt:sinf.obj
 0002:00004730       L_mask_3f8                 0000000180049730     libucrt:sinf.obj
 0002:00004740       L_large_x_fma3             0000000180049740     libucrt:sinf.obj
 0002:00004748       L_large_x_sse2             0000000180049748     libucrt:sinf.obj
 0002:00004750       L_near_one                 0000000180049750     libucrt:sinf.obj
 0002:00004758       L_two_to_32                0000000180049758     libucrt:sinf.obj
 0002:00004860       __acrt_initializers        0000000180049860     libucrt:initialization.obj
 0002:00004d80       L__piby2                   0000000180049d80     libucrt:remainder_piby2f_forasm.obj
 0002:00004d90       L_piby2_lead               0000000180049d90     libucrt:remainder_piby2_forfma3.obj
 0002:00004da0       L_fff800                   0000000180049da0     libucrt:remainder_piby2_forfma3.obj
 0002:00004db0       L_piby2_part1              0000000180049db0     libucrt:remainder_piby2_forfma3.obj
 0002:00004dc0       L_piby2_part2              0000000180049dc0     libucrt:remainder_piby2_forfma3.obj
 0002:00004dd0       L_piby2_part3              0000000180049dd0     libucrt:remainder_piby2_forfma3.obj
 0002:00004de0       L_piby2_1                  0000000180049de0     libucrt:remainder_piby2_forfma3.obj
 0002:00004df0       L_piby2_2                  0000000180049df0     libucrt:remainder_piby2_forfma3.obj
 0002:00004e00       L_piby2_3                  0000000180049e00     libucrt:remainder_piby2_forfma3.obj
 0002:00004e10       L_piby2_1tail              0000000180049e10     libucrt:remainder_piby2_forfma3.obj
 0002:00004e20       L_piby2_2tail              0000000180049e20     libucrt:remainder_piby2_forfma3.obj
 0002:00004e30       L_piby2_3tail              0000000180049e30     libucrt:remainder_piby2_forfma3.obj
 0002:00004e40       L_sign_mask                0000000180049e40     libucrt:remainder_piby2_forfma3.obj
 0002:00004e50       L_twobypi                  0000000180049e50     libucrt:remainder_piby2_forfma3.obj
 0002:00004e60       L_point_five               0000000180049e60     libucrt:remainder_piby2_forfma3.obj
 0002:00004e70       L_int_three                0000000180049e70     libucrt:remainder_piby2_forfma3.obj
 0002:00004e80       L_inf_mask_64              0000000180049e80     libucrt:remainder_piby2_forfma3.obj
 0002:00004e90       L_signbit                  0000000180049e90     libucrt:remainder_piby2_forfma3.obj
 0002:00004ea0       L_r                        0000000180049ea0     libucrt:remainder_piby2_forfma3.obj
 0002:00004eb0       L_xc1                      0000000180049eb0     libucrt:remainder_piby2_forfma3.obj
 0002:00004ec0       L_xc2                      0000000180049ec0     libucrt:remainder_piby2_forfma3.obj
 0002:00004ed0       L_xc3                      0000000180049ed0     libucrt:remainder_piby2_forfma3.obj
 0002:00004ee0       L_sigma                    0000000180049ee0     libucrt:remainder_piby2_forfma3.obj
 0002:00004ff0       L__piby2                   0000000180049ff0     libucrt:remainder_piby2f_forc.obj
 0002:00005000       L__2_by_pi_bits            000000018004a000     libucrt:remainder_piby2f_forc.obj
 0002:000050a0       ?errtable@@3QBUerrentry@?A0x31fdb9ec@@B 000000018004a0a0     libucrt:errno.obj
 0002:00005208       ?_mb_locale_names@@3QBQEB_WB 000000018004a208     libucrt:mbctype.obj
 0002:00005270       ?module_names@?A0x391cf84c@@3QBQEB_WB 000000018004a270     libucrt:winapi_thunks.obj
 0002:00005778       ?candidate_modules@?1??try_get_AreFileApisANSI@@YAP6AHXZXZ@4QBW4module_id@?A0x391cf84c@@B 000000018004a778     libucrt:winapi_thunks.obj
 0002:00005790       ?candidate_modules@?1??try_get_FlsAlloc@@YAP6AKP6AXPEAX@Z@ZXZ@4QBW4module_id@?A0x391cf84c@@B 000000018004a790     libucrt:winapi_thunks.obj
 0002:00005798       ?candidate_modules@?1??try_get_FlsFree@@YAP6AHK@ZXZ@4QBW4module_id@?A0x391cf84c@@B 000000018004a798     libucrt:winapi_thunks.obj
 0002:000057a0       ?candidate_modules@?1??try_get_FlsGetValue@@YAP6APEAXK@ZXZ@4QBW4module_id@?A0x391cf84c@@B 000000018004a7a0     libucrt:winapi_thunks.obj
 0002:000057a8       ?candidate_modules@?1??try_get_FlsSetValue@@YAP6AHKPEAX@ZXZ@4QBW4module_id@?A0x391cf84c@@B 000000018004a7a8     libucrt:winapi_thunks.obj
 0002:000057b0       ?candidate_modules@?1??try_get_InitializeCriticalSectionEx@@YAP6AHPEAU_RTL_CRITICAL_SECTION@@KK@ZXZ@4QBW4module_id@?A0x391cf84c@@B 000000018004a7b0     libucrt:winapi_thunks.obj
 0002:000057b8       ?candidate_modules@?1??try_get_LCMapStringEx@@YAP6AHPEB_WK0HPEA_WHPEAU_nlsversioninfo@@PEAX_J@ZXZ@4QBW4module_id@?A0x391cf84c@@B 000000018004a7b8     libucrt:winapi_thunks.obj
 0002:000057d0       ?candidate_modules@?1??try_get_LocaleNameToLCID@@YAP6AKPEB_WK@ZXZ@4QBW4module_id@?A0x391cf84c@@B 000000018004a7d0     libucrt:winapi_thunks.obj
 0002:000057ec       ?candidate_modules@?1??try_get_AppPolicyGetProcessTerminationMethod@@YAP6AJPEAXPEAW4AppPolicyProcessTerminationMethod@@@ZXZ@4QBW4module_id@?A0x391cf84c@@B 000000018004a7ec     libucrt:winapi_thunks.obj
 0002:00005ea0       ?strings@?1??fp_format_nan_or_infinity@@YAHW4__acrt_fp_class@@_NPEAD_K1@Z@4QAY03QEBDA 000000018004aea0     libucrt:cvt.obj
 0002:00006580       __real@433fffffffffffff    000000018004b580     libucrt:fpsr.obj
 0002:00006588       __real@c33fffffffffffff    000000018004b588     libucrt:fpsr.obj
 0002:000065a0       ?LcidToLocaleNameTable@?A0x881e4c05@@3QBULcidToLocaleName@1@B 000000018004b5a0     libucrt:lcidtoname_downlevel.obj
 0002:00008000       ?LocaleNameToIndexTable@?A0x881e4c05@@3QBULocaleNameIndex@1@B 000000018004d000     libucrt:lcidtoname_downlevel.obj
 0002:0000a290       __real_ninf                000000018004f290     libucrt:log10.obj
 0002:0000a2a0       __real_inf                 000000018004f2a0     libucrt:log10.obj
 0002:0000a2b0       __real_neg_qnan            000000018004f2b0     libucrt:log10.obj
 0002:0000a2c0       __real_qnanbit             000000018004f2c0     libucrt:log10.obj
 0002:0000a2d0       __int_1023                 000000018004f2d0     libucrt:log10.obj
 0002:0000a2e0       __mask_001                 000000018004f2e0     libucrt:log10.obj
 0002:0000a2f0       __mask_mant                000000018004f2f0     libucrt:log10.obj
 0002:0000a300       __mask_mant_top8           000000018004f300     libucrt:log10.obj
 0002:0000a310       __mask_mant9               000000018004f310     libucrt:log10.obj
 0002:0000a320       __real_log10_e             000000018004f320     libucrt:log10.obj
 0002:0000a330       __real_log10_e_lead        000000018004f330     libucrt:log10.obj
 0002:0000a340       __real_log10_e_tail        000000018004f340     libucrt:log10.obj
 0002:0000a350       __real_log10_2_lead        000000018004f350     libucrt:log10.obj
 0002:0000a360       __real_log10_2_tail        000000018004f360     libucrt:log10.obj
 0002:0000a370       __real_two                 000000018004f370     libucrt:log10.obj
 0002:0000a380       __real_one                 000000018004f380     libucrt:log10.obj
 0002:0000a390       __real_half                000000018004f390     libucrt:log10.obj
 0002:0000a3a0       __mask_100                 000000018004f3a0     libucrt:log10.obj
 0002:0000a3b0       __real_1_over_512          000000018004f3b0     libucrt:log10.obj
 0002:0000a3c0       __real_1_over_2            000000018004f3c0     libucrt:log10.obj
 0002:0000a3d0       __real_1_over_3            000000018004f3d0     libucrt:log10.obj
 0002:0000a3e0       __real_1_over_4            000000018004f3e0     libucrt:log10.obj
 0002:0000a3f0       __real_1_over_5            000000018004f3f0     libucrt:log10.obj
 0002:0000a400       __real_1_over_6            000000018004f400     libucrt:log10.obj
 0002:0000a410       __real_neg_1023            000000018004f410     libucrt:log10.obj
 0002:0000a420       __mask_2045                000000018004f420     libucrt:log10.obj
 0002:0000a430       __real_threshold           000000018004f430     libucrt:log10.obj
 0002:0000a440       __real_near_one_lt         000000018004f440     libucrt:log10.obj
 0002:0000a450       __real_near_one_gt         000000018004f450     libucrt:log10.obj
 0002:0000a460       __real_min_norm            000000018004f460     libucrt:log10.obj
 0002:0000a470       __real_notsign             000000018004f470     libucrt:log10.obj
 0002:0000a480       __real_ca1                 000000018004f480     libucrt:log10.obj
 0002:0000a490       __real_ca2                 000000018004f490     libucrt:log10.obj
 0002:0000a4a0       __real_ca3                 000000018004f4a0     libucrt:log10.obj
 0002:0000a4b0       __real_ca4                 000000018004f4b0     libucrt:log10.obj
 0002:0000a4c0       __mask_lower               000000018004f4c0     libucrt:log10.obj
 0002:0000a4d0       __flag_x_zero              000000018004f4d0     libucrt:log10.obj
 0002:0000a4d4       __flag_x_neg               000000018004f4d4     libucrt:log10.obj
 0002:0000a4d8       __flag_x_nan               000000018004f4d8     libucrt:log10.obj
 0002:0000bd20       GS_ExceptionPointers       0000000180050d20     LIBCMT:gs_report.obj
 0002:0000c7d0       $unwind$??1Adjacencies@physx@@QEAA@XZ 00000001800517d0     Adjacencies.obj
 0002:0000c7d0       $unwind$??_EPxFoundation@physx@@MEAAPEAXI@Z 00000001800517d0     Adjacencies.obj
 0002:0000c7d0       $unwind$??0ConvexMeshBuilder@physx@@QEAA@_N@Z 00000001800517d0     ConvexMeshBuilder.obj
 0002:0000c7d0       $unwind$?isFinite@PxVec3@physx@@QEBA_NXZ 00000001800517d0     ConvexMeshBuilder.obj
 0002:0000c7d0       $unwind$??0ConvexPolygonsBuilder@physx@@QEAA@PEAUConvexHullData@Gu@1@_N@Z 00000001800517d0     ConvexPolygonsBuilder.obj
 0002:0000c7d0       $unwind$??_GCooking@physx@@UEAAPEAXI@Z 00000001800517d0     Cooking.obj
 0002:0000c7d0       $unwind$??_GPxBase@physx@@MEAAPEAXI@Z 00000001800517d0     Cooking.obj
 0002:0000c7d0       $unwind$??_GPxCooking@physx@@MEAAPEAXI@Z 00000001800517d0     Cooking.obj
 0002:0000c7d0       $unwind$?isKindOf@PxConvexMesh@physx@@MEBA_NPEBD@Z 00000001800517d0     Cooking.obj
 0002:0000c7d0       $unwind$?isKindOf@PxHeightField@physx@@MEBA_NPEBD@Z 00000001800517d0     Cooking.obj
 0002:0000c7d0       $unwind$??_GQuantizer@physx@@MEAAPEAXI@Z 00000001800517d0     Quantizer.obj
 0002:0000c7d0       $unwind$??1RTreeTriangleData@Gu@physx@@UEAA@XZ 00000001800517d0     TriangleMeshBuilder.obj
 0002:0000c7d0       $unwind$??1RTreeTriangleMeshBuilder@physx@@UEAA@XZ 00000001800517d0     TriangleMeshBuilder.obj
 0002:0000c7d0       $unwind$??_GRTreeCookerRemap@physx@@UEAAPEAXI@Z 00000001800517d0     TriangleMeshBuilder.obj
 0002:0000c7d0       $unwind$??_GRemapCallback@RTreeCooker@physx@@UEAAPEAXI@Z 00000001800517d0     TriangleMeshBuilder.obj
 0002:0000c7d0       $unwind$?DloadAcquireSectionWriteAccess@@YAXXZ 00000001800517d0     Delayimp:delayhlp.obj
 0002:0000c7d0       $unwind$__raise_securityfailure 00000001800517d0     LIBCMT:gs_report.obj
 0002:0000c7d0       $unwind$??_Gtype_info@@UEAAPEAXI@Z 00000001800517d0     LIBCMT:std_type_info_static.obj
 0002:0000c7d0       $unwind$__scrt_initialize_crt 00000001800517d0     LIBCMT:utility.obj
 0002:0000c7d0       $unwind$__scrt_initialize_onexit_tables 00000001800517d0     LIBCMT:utility.obj
 0002:0000c7d0       $unwind$__scrt_release_startup_lock 00000001800517d0     LIBCMT:utility.obj
 0002:0000c7d0       $unwind$__scrt_uninitialize_crt 00000001800517d0     LIBCMT:utility.obj
 0002:0000c7d0       $unwind$_IsExceptionObjectToBeDestroyed 00000001800517d0     libvcruntime:ehhelpers.obj
 0002:0000c7d0       $unwind$??0HandlerMap4@FH4@@QEAA@PEBUTryBlockMapEntry4@1@_KH@Z 00000001800517d0     libvcruntime:frame.obj
 0002:0000c7d0       $unwind$??0bad_exception@std@@QEAA@AEBV01@@Z 00000001800517d0     libvcruntime:frame.obj
 0002:0000c7d0       $unwind$??0exception@std@@QEAA@AEBV01@@Z 00000001800517d0     libvcruntime:frame.obj
 0002:0000c7d0       $unwind$?ExFilterRethrow@@YAHPEAU_EXCEPTION_POINTERS@@PEAUEHExceptionRecord@@PEAH@Z 00000001800517d0     libvcruntime:frame.obj
 0002:0000c7d0       $unwind$__vcrt_uninitialize_locks 00000001800517d0     libvcruntime:locks.obj
 0002:0000c7d0       $unwind$__vcrt_freeptd     00000001800517d0     libvcruntime:per_thread_data.obj
 0002:0000c7d0       $unwind$_CreateFrameInfo   00000001800517d0     libvcruntime:risctrnsctrl.obj
 0002:0000c7d0       $unwind$_SetImageBase      00000001800517d0     libvcruntime:risctrnsctrl.obj
 0002:0000c7d0       $unwind$_SetThrowImageBase 00000001800517d0     libvcruntime:risctrnsctrl.obj
 0002:0000c7d0       $unwind$__std_exception_destroy 00000001800517d0     libvcruntime:std_exception.obj
 0002:0000c7d0       $unwind$__std_type_info_destroy_list 00000001800517d0     libvcruntime:std_type_info.obj
 0002:0000c7d0       $unwind$??$?0$00@DName@@QEAA@PEBDU?$StringLifeSelector@$00@@@Z 00000001800517d0     libvcruntime:undname.obj
 0002:0000c7d0       $unwind$??$?0$01@DName@@QEAA@PEBDU?$StringLifeSelector@$01@@@Z 00000001800517d0     libvcruntime:undname.obj
 0002:0000c7d0       $unwind$??$?0$0A@@DName@@QEAA@PEBDU?$StringLifeSelector@$0A@@@@Z 00000001800517d0     libvcruntime:undname.obj
 0002:0000c7d0       $unwind$??0DName@@QEAA@AEBUStringLiteral@@@Z 00000001800517d0     libvcruntime:undname.obj
 0002:0000c7d0       $unwind$??HDName@@QEBA?AV0@AEBUStringLiteral@@@Z 00000001800517d0     libvcruntime:undname.obj
 0002:0000c7d0       $unwind$??HDName@@QEBA?AV0@AEBV0@@Z 00000001800517d0     libvcruntime:undname.obj
 0002:0000c7d0       $unwind$??HDName@@QEBA?AV0@D@Z 00000001800517d0     libvcruntime:undname.obj
 0002:0000c7d0       $unwind$??HDName@@QEBA?AV0@W4DNameStatus@@@Z 00000001800517d0     libvcruntime:undname.obj
 0002:0000c7d0       $unwind$??YDName@@QEAAAEAV0@AEBV0@@Z 00000001800517d0     libvcruntime:undname.obj
 0002:0000c7d0       $unwind$??YDName@@QEAAAEAV0@W4DNameStatus@@@Z 00000001800517d0     libvcruntime:undname.obj
 0002:0000c7d0       $unwind$?getLastChar@pairNode@@UEBADXZ 00000001800517d0     libvcruntime:undname.obj
 0002:0000c7d0       $unwind$?getReturnType@UnDecorator@@CA?AVDName@@PEAV2@@Z 00000001800517d0     libvcruntime:undname.obj
 0002:0000c7d0       $unwind$?getStringObject@UnDecorator@@CA?AVDName@@XZ 00000001800517d0     libvcruntime:undname.obj
 0002:0000c7d0       $unwind$?getSymbolName@UnDecorator@@CA?AVDName@@XZ 00000001800517d0     libvcruntime:undname.obj
 0002:0000c7d0       $unwind$?getValue@UnDecorator@@CA?AV?$optional@_K@std@@XZ 00000001800517d0     libvcruntime:undname.obj
 0002:0000c7d0       $unwind$__vcrt_FlsAlloc    00000001800517d0     libvcruntime:winapi_downlevel.obj
 0002:0000c7d0       $unwind$__vcrt_FlsFree     00000001800517d0     libvcruntime:winapi_downlevel.obj
 0002:0000c7d0       $unwind$__vcrt_FlsGetValue 00000001800517d0     libvcruntime:winapi_downlevel.obj
 0002:0000c7d0       $unwind$_calloc_base       00000001800517d0     libucrt:calloc_base.obj
 0002:0000c7d0       $unwind$_malloc_base       00000001800517d0     libucrt:malloc_base.obj
 0002:0000c7d0       $unwind$_callnewh          00000001800517d0     libucrt:new_handler.obj
 0002:0000c7d0       $unwind$initialize_pointers 00000001800517d0     libucrt:initialization.obj
 0002:0000c7d0       $unwind$uninitialize_allocated_memory 00000001800517d0     libucrt:initialization.obj
 0002:0000c7d0       $unwind$__acrt_initialize_locks 00000001800517d0     libucrt:locks.obj
 0002:0000c7d0       $unwind$__acrt_uninitialize_locks 00000001800517d0     libucrt:locks.obj
 0002:0000c7d0       $unwind$__acrt_freeptd     00000001800517d0     libucrt:per_thread_data.obj
 0002:0000c7d0       $unwind$__acrt_getptd_head 00000001800517d0     libucrt:per_thread_data.obj
 0002:0000c7d0       $unwind$__acrt_get_process_end_policy 00000001800517d0     libucrt:win_policies.obj
 0002:0000c7d0       $unwind$__acrt_AppPolicyGetProcessTerminationMethodInternal 00000001800517d0     libucrt:winapi_thunks.obj
 0002:0000c7d0       $unwind$__acrt_FlsAlloc    00000001800517d0     libucrt:winapi_thunks.obj
 0002:0000c7d0       $unwind$__acrt_FlsFree     00000001800517d0     libucrt:winapi_thunks.obj
 0002:0000c7d0       $unwind$__acrt_FlsGetValue 00000001800517d0     libucrt:winapi_thunks.obj
 0002:0000c7d0       $unwind$__acrt_uninitialize_winapi_thunks 00000001800517d0     libucrt:winapi_thunks.obj
 0002:0000c7d0       $unwind$__acrt_update_locale_info 00000001800517d0     libucrt:locale_update.obj
 0002:0000c7d0       $unwind$__acrt_update_multibyte_info 00000001800517d0     libucrt:locale_update.obj
 0002:0000c7d0       $unwind$__acrt_allocate_buffer_for_argv 00000001800517d0     libucrt:argv_parsing.obj
 0002:0000c7d0       $unwind$?exit_or_terminate_process@@YAXI@Z 00000001800517d0     libucrt:exit.obj
 0002:0000c7d0       $unwind$?try_cor_exit_process@@YAXI@Z 00000001800517d0     libucrt:exit.obj
 0002:0000c7d0       $unwind$__acrt_uninitialize_stdio 00000001800517d0     libucrt:_file.obj
 0002:0000c7d0       $unwind$__acrt_stdio_free_buffer_nolock 00000001800517d0     libucrt:_freebuf.obj
 0002:0000c7d0       $unwind$_fflush_nolock     00000001800517d0     libucrt:fflush.obj
 0002:0000c7d0       $unwind$?state_case_normal@?$output_processor@DV?$string_output_adapter@D@__crt_stdio_output@@V?$format_validation_base@DV?$string_output_adapter@D@__crt_stdio_output@@@2@@__crt_stdio_output@@AEAA_NXZ 00000001800517d0     libucrt:output.obj
 0002:0000c7d0       $unwind$?type_case_s@?$output_processor@DV?$string_output_adapter@D@__crt_stdio_output@@V?$format_validation_base@DV?$string_output_adapter@D@__crt_stdio_output@@@2@@__crt_stdio_output@@AEAA_NXZ 00000001800517d0     libucrt:output.obj
 0002:0000c7d0       $unwind$strcpy_s           00000001800517d0     libucrt:strcpy_s.obj
 0002:0000c7d0       $unwind$_clrfp             00000001800517d0     libucrt:fpctrl.obj
 0002:0000c7d0       $unwind$_set_statfp        00000001800517d0     libucrt:fpctrl.obj
 0002:0000c7d0       $unwind$_clearfp           00000001800517d0     libucrt:ieee.obj
 0002:0000c7d0       $unwind$_controlfp_s       00000001800517d0     libucrt:contrlfp.obj
 0002:0000c7d0       $unwind$fegetenv           00000001800517d0     libucrt:fegetenv.obj
 0002:0000c7d0       $unwind$feholdexcept       00000001800517d0     libucrt:feholdexcept.obj
 0002:0000c7d0       $unwind$fesetenv           00000001800517d0     libucrt:fesetenv.obj
 0002:0000c7d8       $chain$0$??_EPxFoundation@physx@@MEAAPEAXI@Z 00000001800517d8     Adjacencies.obj
 0002:0000c7ec       $chain$1$??_EPxFoundation@physx@@MEAAPEAXI@Z 00000001800517ec     Adjacencies.obj
 0002:0000c7fc       $chain$0$??1Adjacencies@physx@@QEAA@XZ 00000001800517fc     Adjacencies.obj
 0002:0000c810       $chain$2$??1Adjacencies@physx@@QEAA@XZ 0000000180051810     Adjacencies.obj
 0002:0000c824       $chain$3$??1Adjacencies@physx@@QEAA@XZ 0000000180051824     Adjacencies.obj
 0002:0000c834       $unwind$?Init@AdjacenciesBuilder@physx@@QEAA_NAEBUADJACENCIESCREATE@2@@Z 0000000180051834     Adjacencies.obj
 0002:0000c848       $chain$2$?Init@AdjacenciesBuilder@physx@@QEAA_NAEBUADJACENCIESCREATE@2@@Z 0000000180051848     Adjacencies.obj
 0002:0000c85c       $chain$3$?Init@AdjacenciesBuilder@physx@@QEAA_NAEBUADJACENCIESCREATE@2@@Z 000000018005185c     Adjacencies.obj
 0002:0000c870       $chain$4$?Init@AdjacenciesBuilder@physx@@QEAA_NAEBUADJACENCIESCREATE@2@@Z 0000000180051870     Adjacencies.obj
 0002:0000c880       $chain$5$?Init@AdjacenciesBuilder@physx@@QEAA_NAEBUADJACENCIESCREATE@2@@Z 0000000180051880     Adjacencies.obj
 0002:0000c890       $unwind$??$?_UV?$ReflectionAllocator@VAdjTriangle@physx@@@shdfnd@physx@@@UserAllocated@shdfnd@physx@@SAPEAX_KV?$ReflectionAllocator@VAdjTriangle@physx@@@12@PEBDH@Z 0000000180051890     Adjacencies.obj
 0002:0000c890       $unwind$??$?_UE@@YAPEAX_KV?$ReflectionAllocator@E@shdfnd@physx@@PEBDH@Z 0000000180051890     ConvexHullBuilder.obj
 0002:0000c890       $unwind$??$?_UI@@YAPEAX_KV?$ReflectionAllocator@I@shdfnd@physx@@PEBDH@Z 0000000180051890     EdgeList.obj
 0002:0000c890       $unwind$??$?_UG@@YAPEAX_KV?$ReflectionAllocator@G@shdfnd@physx@@PEBDH@Z 0000000180051890     TriangleMeshBuilder.obj
 0002:0000c8a0       $chain$0$??$?_UV?$ReflectionAllocator@VAdjTriangle@physx@@@shdfnd@physx@@@UserAllocated@shdfnd@physx@@SAPEAX_KV?$ReflectionAllocator@VAdjTriangle@physx@@@12@PEBDH@Z 00000001800518a0     Adjacencies.obj
 0002:0000c8b4       $chain$1$??$?_UV?$ReflectionAllocator@VAdjTriangle@physx@@@shdfnd@physx@@@UserAllocated@shdfnd@physx@@SAPEAX_KV?$ReflectionAllocator@VAdjTriangle@physx@@@12@PEBDH@Z 00000001800518b4     Adjacencies.obj
 0002:0000c8c4       $unwind$?UpdateLink@@YA_NIIIIPEAVAdjTriangle@physx@@AEBUADJACENCIESCREATE@2@@Z 00000001800518c4     Adjacencies.obj
 0002:0000c8d0       $chain$3$?UpdateLink@@YA_NIIIIPEAVAdjTriangle@physx@@AEBUADJACENCIESCREATE@2@@Z 00000001800518d0     Adjacencies.obj
 0002:0000c8f0       $chain$5$?UpdateLink@@YA_NIIIIPEAVAdjTriangle@physx@@AEBUADJACENCIESCREATE@2@@Z 00000001800518f0     Adjacencies.obj
 0002:0000c908       $chain$6$?UpdateLink@@YA_NIIIIPEAVAdjTriangle@physx@@AEBUADJACENCIESCREATE@2@@Z 0000000180051908     Adjacencies.obj
 0002:0000c918       $chain$7$?UpdateLink@@YA_NIIIIPEAVAdjTriangle@physx@@AEBUADJACENCIESCREATE@2@@Z 0000000180051918     Adjacencies.obj
 0002:0000c930       $chain$8$?UpdateLink@@YA_NIIIIPEAVAdjTriangle@physx@@AEBUADJACENCIESCREATE@2@@Z 0000000180051930     Adjacencies.obj
 0002:0000c940       $unwind$?CreateDatabase@@YA_NPEAVAdjTriangle@physx@@IPEBVAdjEdge@@AEBUADJACENCIESCREATE@2@@Z 0000000180051940     Adjacencies.obj
 0002:0000c95c       $unwind$?getTransform@Box@Gu@physx@@QEBA?AVPxTransform@3@XZ 000000018005195c     ConvexHullUtils.obj
 0002:0000c95c       $unwind$PxCreateCooking    000000018005195c     Cooking.obj
 0002:0000c968       $unwind$?allocate@?$Array@USlab@NodeAllocator@Gu@physx@@VNamedAllocator@shdfnd@4@@shdfnd@physx@@IEAAPEAUSlab@NodeAllocator@Gu@3@I@Z 0000000180051968     BVHStructureBuilder.obj
 0002:0000c968       $unwind$?allocate@?$Array@VPair@@VNamedAllocator@shdfnd@physx@@@shdfnd@physx@@IEAAPEAVPair@@I@Z 0000000180051968     ConvexPolygonsBuilder.obj
 0002:0000c968       $unwind$?release@Cooking@physx@@UEAAXXZ 0000000180051968     Cooking.obj
 0002:0000c968       $unwind$?cookingDelayHook@@YAP6A_JXZIPEAUDelayLoadInfo@@@Z 0000000180051968     WindowsCookingDelayLoadHook.obj
 0002:0000c968       $unwind$?DloadReleaseSectionWriteAccess@@YAXXZ 0000000180051968     Delayimp:delayhlp.obj
 0002:0000c968       $unwind$__scrt_initialize_default_local_stdio_options 0000000180051968     LIBCMT:default_local_stdio_options.obj
 0002:0000c968       $unwind$?dllmain_crt_dispatch@@YAHQEAUHINSTANCE__@@KQEAX@Z 0000000180051968     LIBCMT:dll_dllmain.obj
 0002:0000c968       $unwind$__report_rangecheckfailure 0000000180051968     LIBCMT:gs_report.obj
 0002:0000c968       $unwind$__GSHandlerCheck   0000000180051968     LIBCMT:gshandler.obj
 0002:0000c968       $unwind$__scrt_acquire_startup_lock 0000000180051968     LIBCMT:utility.obj
 0002:0000c968       $unwind$__scrt_dllmain_after_initialize_c 0000000180051968     LIBCMT:utility.obj
 0002:0000c968       $unwind$__scrt_dllmain_before_initialize_c 0000000180051968     LIBCMT:utility.obj
 0002:0000c968       $unwind$__scrt_dllmain_crt_thread_attach 0000000180051968     LIBCMT:utility.obj
 0002:0000c968       $unwind$__scrt_dllmain_crt_thread_detach 0000000180051968     LIBCMT:utility.obj
 0002:0000c968       $unwind$__scrt_dllmain_uninitialize_c 0000000180051968     LIBCMT:utility.obj
 0002:0000c968       $unwind$__scrt_dllmain_uninitialize_critical 0000000180051968     LIBCMT:utility.obj
 0002:0000c968       $unwind$__vcrt_initialize  0000000180051968     libvcruntime:initialization.obj
 0002:0000c968       $unwind$__vcrt_thread_attach 0000000180051968     libvcruntime:initialization.obj
 0002:0000c968       $unwind$__vcrt_thread_detach 0000000180051968     libvcruntime:initialization.obj
 0002:0000c968       $unwind$__vcrt_uninitialize 0000000180051968     libvcruntime:initialization.obj
 0002:0000c968       $unwind$__vcrt_uninitialize_critical 0000000180051968     libvcruntime:initialization.obj
 0002:0000c968       $unwind$__vcrt_initialize_locks 0000000180051968     libvcruntime:locks.obj
 0002:0000c968       $unwind$__vcrt_freefls     0000000180051968     libvcruntime:per_thread_data.obj
 0002:0000c968       $unwind$__vcrt_getptd      0000000180051968     libvcruntime:per_thread_data.obj
 0002:0000c968       $unwind$__vcrt_initialize_ptd 0000000180051968     libvcruntime:per_thread_data.obj
 0002:0000c968       $unwind$__vcrt_uninitialize_ptd 0000000180051968     libvcruntime:per_thread_data.obj
 0002:0000c968       $unwind$_purecall          0000000180051968     libvcruntime:purevirt.obj
 0002:0000c968       $unwind$?FrameUnwindToEmptyState@__FrameHandler4@@SAXPEA_KPEAU_xDISPATCHER_CONTEXT@@PEAUFuncInfo4@FH4@@@Z 0000000180051968     libvcruntime:risctrnsctrl.obj
 0002:0000c968       $unwind$_GetImageBase      0000000180051968     libvcruntime:risctrnsctrl.obj
 0002:0000c968       $unwind$_GetThrowImageBase 0000000180051968     libvcruntime:risctrnsctrl.obj
 0002:0000c968       $unwind$?getLastChar@pDNameNode@@UEBADXZ 0000000180051968     libvcruntime:undname.obj
 0002:0000c968       $unwind$?getString@pDNameNode@@UEBAPEADPEAD0@Z 0000000180051968     libvcruntime:undname.obj
 0002:0000c968       $unwind$?getTypeEncoding@UnDecorator@@CAHXZ 0000000180051968     libvcruntime:undname.obj
 0002:0000c968       $unwind$?length@pDNameNode@@UEBAHXZ 0000000180051968     libvcruntime:undname.obj
 0002:0000c968       $unwind$__dcrt_terminate_console_output 0000000180051968     libucrt:initcon.obj
 0002:0000c968       $unwind$??$uninitialize_environment_internal@D@@YAXAEAPEAPEAD@Z 0000000180051968     libucrt:environment_initialization.obj
 0002:0000c968       $unwind$??$uninitialize_environment_internal@_W@@YAXAEAPEAPEA_W@Z 0000000180051968     libucrt:environment_initialization.obj
 0002:0000c968       $unwind$__dcrt_uninitialize_environments_nolock 0000000180051968     libucrt:environment_initialization.obj
 0002:0000c968       $unwind$?__c32rtomb_utf8@__crt_mbstring@@YA_KPEAD_UPEAU_Mbstatet@@@Z 0000000180051968     libucrt:c32rtomb.obj
 0002:0000c968       $unwind$__acrt_initialize_heap 0000000180051968     libucrt:heap_handle.obj
 0002:0000c968       $unwind$_msize_base        0000000180051968     libucrt:msize.obj
 0002:0000c968       $unwind$?initialize_multibyte@@YAHXZ 0000000180051968     libucrt:multibyte_initializer.obj
 0002:0000c968       $unwind$__acrt_thread_attach 0000000180051968     libucrt:initialization.obj
 0002:0000c968       $unwind$__acrt_thread_detach 0000000180051968     libucrt:initialization.obj
 0002:0000c968       $unwind$__acrt_uninitialize 0000000180051968     libucrt:initialization.obj
 0002:0000c968       $unwind$__acrt_uninitialize_critical 0000000180051968     libucrt:initialization.obj
 0002:0000c968       $unwind$initialize_c       0000000180051968     libucrt:initialization.obj
 0002:0000c968       $unwind$uninitialize_allocated_io_buffers 0000000180051968     libucrt:initialization.obj
 0002:0000c968       $unwind$uninitialize_environment 0000000180051968     libucrt:initialization.obj
 0002:0000c968       $unwind$__acrt_initialize_ptd 0000000180051968     libucrt:per_thread_data.obj
 0002:0000c968       $unwind$__acrt_uninitialize_ptd 0000000180051968     libucrt:per_thread_data.obj
 0002:0000c968       $unwind$__acrt_AreFileApisANSI 0000000180051968     libucrt:winapi_thunks.obj
 0002:0000c968       $unwind$__pctype_func      0000000180051968     libucrt:ctype.obj
 0002:0000c968       $unwind$__acrt_release_locale_ref 0000000180051968     libucrt:locale_refcounting.obj
 0002:0000c968       $unwind$_isatty            0000000180051968     libucrt:isatty.obj
 0002:0000c968       $unwind$_get_osfhandle     0000000180051968     libucrt:osfinfo.obj
 0002:0000c968       $unwind$__acrt_initialize_multibyte 0000000180051968     libucrt:mbctype.obj
 0002:0000c968       $unwind$__acrt_update_thread_multibyte_data 0000000180051968     libucrt:mbctype.obj
 0002:0000c968       $unwind$__doserrno         0000000180051968     libucrt:errno.obj
 0002:0000c968       $unwind$_errno             0000000180051968     libucrt:errno.obj
 0002:0000c968       $unwind$_invoke_watson     0000000180051968     libucrt:invalid_parameter.obj
 0002:0000c968       $unwind$abort              0000000180051968     libucrt:abort.obj
 0002:0000c968       $unwind$__acrt_initialize_command_line 0000000180051968     libucrt:argv_data.obj
 0002:0000c968       $unwind$_fileno            0000000180051968     libucrt:fileno.obj
 0002:0000c968       $unwind$?state_case_normal_tchar@?$output_processor@DV?$string_output_adapter@D@__crt_stdio_output@@V?$format_validation_base@DV?$string_output_adapter@D@__crt_stdio_output@@@2@@__crt_stdio_output@@AEAA_ND@Z 0000000180051968     libucrt:output.obj
 0002:0000c968       $unwind$?state_case_size@?$output_processor@DV?$string_output_adapter@D@__crt_stdio_output@@V?$format_validation_base@DV?$string_output_adapter@D@__crt_stdio_output@@@2@@__crt_stdio_output@@AEAA_NXZ 0000000180051968     libucrt:output.obj
 0002:0000c968       $unwind$_statfp            0000000180051968     libucrt:fpctrl.obj
 0002:0000c968       $unwind$fegetround         0000000180051968     libucrt:fegetround.obj
 0002:0000c968       $unwind$_set_errno_from_matherr 0000000180051968     libucrt:fpexcept.obj
 0002:0000c970       $unwind$?cookConvexMesh@Cooking@physx@@UEBA_NAEBVPxConvexMeshDesc@2@AEAVPxOutputStream@2@PEAW4Enum@PxConvexMeshCookingResult@2@@Z 0000000180051970     Cooking.obj
 0002:0000c970       $unwind$?cookTriangleMesh@Cooking@physx@@UEBA_NAEBVPxTriangleMeshDesc@2@AEAVPxOutputStream@2@PEAW4Enum@PxTriangleMeshCookingResult@2@@Z 0000000180051970     Cooking.obj
 0002:0000c970       $unwind$?createTriangleMesh@Cooking@physx@@UEBAPEAVPxTriangleMesh@2@AEBVPxTriangleMeshDesc@2@AEAVPxPhysicsInsertionCallback@2@PEAW4Enum@PxTriangleMeshCookingResult@2@@Z 0000000180051970     Cooking.obj
 0002:0000c98c       $unwind$?validateTriangleMesh@Cooking@physx@@UEBA_NAEBVPxTriangleMeshDesc@2@@Z 000000018005198c     Cooking.obj
 0002:0000c99c       $unwind$?createConvexMesh@Cooking@physx@@UEBAPEAVPxConvexMesh@2@AEBVPxConvexMeshDesc@2@AEAVPxPhysicsInsertionCallback@2@PEAW4Enum@PxConvexMeshCookingResult@2@@Z 000000018005199c     Cooking.obj
 0002:0000c9b8       $unwind$?validateConvexMesh@Cooking@physx@@UEBA_NAEBVPxConvexMeshDesc@2@@Z 00000001800519b8     Cooking.obj
 0002:0000c9c8       $unwind$?computeHullPolygons@Cooking@physx@@UEBA_NAEBVPxSimpleTriangleMesh@2@AEAVPxAllocatorCallback@2@AEAIAEAPEAVPxVec3@2@2AEAPEAI2AEAPEAUPxHullPolygon@2@@Z 00000001800519c8     Cooking.obj
 0002:0000c9e8       $unwind$?cookHeightField@Cooking@physx@@UEBA_NAEBVPxHeightFieldDesc@2@AEAVPxOutputStream@2@@Z 00000001800519e8     Cooking.obj
 0002:0000c9fc       $unwind$?createHeightField@Cooking@physx@@UEBAPEAVPxHeightField@2@AEBVPxHeightFieldDesc@2@AEAVPxPhysicsInsertionCallback@2@@Z 00000001800519fc     Cooking.obj
 0002:0000ca0c       $unwind$?cookBVHStructure@Cooking@physx@@UEBA_NAEBVPxBVHStructureDesc@2@AEAVPxOutputStream@2@@Z 0000000180051a0c     Cooking.obj
 0002:0000ca0c       $unwind$__acrt_LCMapStringA 0000000180051a0c     libucrt:lcmapstringa.obj
 0002:0000ca1c       $unwind$?createBVHStructure@Cooking@physx@@UEBAPEAVPxBVHStructure@2@AEBVPxBVHStructureDesc@2@AEAVPxPhysicsInsertionCallback@2@@Z 0000000180051a1c     Cooking.obj
 0002:0000ca2c       $unwind$?cookConvexMeshInternal@Cooking@physx@@AEBA_NAEBVPxConvexMeshDesc@2@AEAVConvexMeshBuilder@2@PEAVConvexHullLib@2@PEAW4Enum@PxConvexMeshCookingResult@2@@Z 0000000180051a2c     Cooking.obj
 0002:0000ca40       $chain$1$?cookConvexMeshInternal@Cooking@physx@@AEBA_NAEBVPxConvexMeshDesc@2@AEAVConvexMeshBuilder@2@PEAVConvexHullLib@2@PEAW4Enum@PxConvexMeshCookingResult@2@@Z 0000000180051a40     Cooking.obj
 0002:0000ca54       $chain$2$?cookConvexMeshInternal@Cooking@physx@@AEBA_NAEBVPxConvexMeshDesc@2@AEAVConvexMeshBuilder@2@PEAVConvexHullLib@2@PEAW4Enum@PxConvexMeshCookingResult@2@@Z 0000000180051a54     Cooking.obj
 0002:0000ca64       $chain$3$?cookConvexMeshInternal@Cooking@physx@@AEBA_NAEBVPxConvexMeshDesc@2@AEAVConvexMeshBuilder@2@PEAVConvexHullLib@2@PEAW4Enum@PxConvexMeshCookingResult@2@@Z 0000000180051a64     Cooking.obj
 0002:0000ca78       $unwind$??0NodeAllocator@Gu@physx@@QEAA@AEBV012@@Z 0000000180051a78     BVHStructureBuilder.obj
 0002:0000ca78       $unwind$?recreate@?$Array@VHalfEdge@ConvexHull@physx@@VNamedAllocator@shdfnd@3@@shdfnd@physx@@IEAAXI@Z 0000000180051a78     ConvexHullUtils.obj
 0002:0000ca78       $unwind$?recreate@?$Array@VPxPlane@physx@@VNamedAllocator@shdfnd@2@@shdfnd@physx@@IEAAXI@Z 0000000180051a78     ConvexHullUtils.obj
 0002:0000ca78       $unwind$?copy@ConvexMeshBuilder@physx@@QEAA_NAEAUConvexHullInitData@Gu@2@@Z 0000000180051a78     ConvexMeshBuilder.obj
 0002:0000ca78       $unwind$?recreate@?$Array@UPxDebugLine@physx@@VNamedAllocator@shdfnd@2@@shdfnd@physx@@IEAAXI@Z 0000000180051a78     Cooking.obj
 0002:0000ca78       $unwind$??0QuickHull@local@@QEAA@AEBUPxCookingParams@physx@@AEBVPxConvexMeshDesc@3@@Z 0000000180051a78     QuickHullConvexHullLib.obj
 0002:0000ca78       $unwind$?recreate@?$Array@PEAUQuickHullFace@local@@VNamedAllocator@shdfnd@physx@@@shdfnd@physx@@IEAAXI@Z 0000000180051a78     QuickHullConvexHullLib.obj
 0002:0000ca78       $unwind$?recreate@?$Array@PEAUQuickHullHalfEdge@local@@VNamedAllocator@shdfnd@physx@@@shdfnd@physx@@IEAAXI@Z 0000000180051a78     QuickHullConvexHullLib.obj
 0002:0000ca78       $unwind$?recreate@?$Array@PEAUQuickHullVertex@local@@VNamedAllocator@shdfnd@physx@@@shdfnd@physx@@IEAAXI@Z 0000000180051a78     QuickHullConvexHullLib.obj
 0002:0000ca78       $unwind$?recreate@?$Array@UExpandPoint@local@@VNamedAllocator@shdfnd@physx@@@shdfnd@physx@@IEAAXI@Z 0000000180051a78     QuickHullConvexHullLib.obj
 0002:0000ca78       $unwind$?recreate@?$Array@IVNamedAllocator@shdfnd@physx@@@shdfnd@physx@@IEAAXI@Z 0000000180051a78     RTreeCooking.obj
 0002:0000ca78       $unwind$?recreate@?$Array@URTreeNodeNQ@physx@@VNamedAllocator@shdfnd@2@@shdfnd@physx@@IEAAXI@Z 0000000180051a78     RTreeCooking.obj
 0002:0000ca78       $unwind$?recreate@?$Array@URTreeNodeQ@Gu@physx@@VNamedAllocator@shdfnd@3@@shdfnd@physx@@IEAAXI@Z 0000000180051a78     RTreeCooking.obj
 0002:0000ca78       $unwind$?recreate@?$Array@VPxVec3@physx@@VNamedAllocator@shdfnd@2@@shdfnd@physx@@IEAAXI@Z 0000000180051a78     RTreeCooking.obj
 0002:0000ca88       $chain$0$?recreate@?$Array@UPxDebugLine@physx@@VNamedAllocator@shdfnd@2@@shdfnd@physx@@IEAAXI@Z 0000000180051a88     Cooking.obj
 0002:0000ca9c       $chain$1$?recreate@?$Array@UPxDebugLine@physx@@VNamedAllocator@shdfnd@2@@shdfnd@physx@@IEAAXI@Z 0000000180051a9c     Cooking.obj
 0002:0000caac       $unwind$??$copy@VNamedAllocator@shdfnd@physx@@@?$Array@USlab@NodeAllocator@Gu@physx@@VNamedAllocator@shdfnd@4@@shdfnd@physx@@IEAAXAEBV012@@Z 0000000180051aac     BVHStructureBuilder.obj
 0002:0000caac       $unwind$??1ConvexHullLib@physx@@UEAA@XZ 0000000180051aac     ConvexHullLib.obj
 0002:0000caac       $unwind$??1ConvexMeshBuilder@physx@@QEAA@XZ 0000000180051aac     ConvexMeshBuilder.obj
 0002:0000caac       $unwind$??$copy@VNamedAllocator@shdfnd@physx@@@?$Array@VPair@@VNamedAllocator@shdfnd@physx@@@shdfnd@physx@@IEAAXAEBV012@@Z 0000000180051aac     ConvexPolygonsBuilder.obj
 0002:0000caac       $unwind$??1ConvexPolygonsBuilder@physx@@QEAA@XZ 0000000180051aac     ConvexPolygonsBuilder.obj
 0002:0000caac       $unwind$?reserveSegments@RenderOutput@Cm@physx@@QEAAPEAUPxDebugLine@3@I@Z 0000000180051aac     Cooking.obj
 0002:0000caac       $unwind$?Clean@ReducedVertexCloud@physx@@QEAAAEAV12@XZ 0000000180051aac     CookingUtils.obj
 0002:0000caac       $unwind$?computeLocalBounds@MeshBulider@physx@@IEAAXAEAVMeshDataBase@Gu@2@@Z 0000000180051aac     MeshBuilder.obj
 0002:0000caac       $unwind$?fillConvexMeshDesc@QuickHullConvexHullLib@physx@@UEAAXAEAVPxConvexMeshDesc@2@@Z 0000000180051aac     QuickHullConvexHullLib.obj
 0002:0000caac       $unwind$?allocate@?$Array@UInterval@physx@@V?$InlineAllocator@$0CAAA@VNamedAllocator@shdfnd@physx@@@shdfnd@2@@shdfnd@physx@@IEAAPEAUInterval@3@I@Z 0000000180051aac     RTreeCooking.obj
 0002:0000caac       $unwind$?resizeUninitialized@?$Array@URTreeNodeNQ@physx@@VNamedAllocator@shdfnd@2@@shdfnd@physx@@QEAAXI@Z 0000000180051aac     RTreeCooking.obj
 0002:0000caac       $unwind$??0BV4TriangleMeshBuilder@physx@@QEAA@AEBUPxCookingParams@1@@Z 0000000180051aac     TriangleMeshBuilder.obj
 0002:0000caac       $unwind$??1BV4TriangleMeshBuilder@physx@@UEAA@XZ 0000000180051aac     TriangleMeshBuilder.obj
 0002:0000caac       $unwind$??1TriangleMeshBuilder@physx@@UEAA@XZ 0000000180051aac     TriangleMeshBuilder.obj
 0002:0000caac       $unwind$??1TriangleMeshData@Gu@physx@@UEAA@XZ 0000000180051aac     TriangleMeshBuilder.obj
 0002:0000caac       $unwind$??_GBV4TriangleData@Gu@physx@@UEAAPEAXI@Z 0000000180051aac     TriangleMeshBuilder.obj
 0002:0000caac       $unwind$??_GMeshDataBase@Gu@physx@@UEAAPEAXI@Z 0000000180051aac     TriangleMeshBuilder.obj
 0002:0000caac       $unwind$??_GRTreeTriangleData@Gu@physx@@UEAAPEAXI@Z 0000000180051aac     TriangleMeshBuilder.obj
 0002:0000caac       $unwind$??_GRTreeTriangleMeshBuilder@physx@@UEAAPEAXI@Z 0000000180051aac     TriangleMeshBuilder.obj
 0002:0000caac       $unwind$??_GTriangleMeshBuilder@physx@@UEAAPEAXI@Z 0000000180051aac     TriangleMeshBuilder.obj
 0002:0000caac       $unwind$??_GTriangleMeshData@Gu@physx@@UEAAPEAXI@Z 0000000180051aac     TriangleMeshBuilder.obj
 0002:0000caac       $unwind$?DloadGetSRWLockFunctionPointers@@YAEXZ 0000000180051aac     Delayimp:delayhlp.obj
 0002:0000caac       $unwind$_RTC_Initialize    0000000180051aac     LIBCMT:initsect.obj
 0002:0000caac       $unwind$_RTC_Terminate     0000000180051aac     LIBCMT:initsect.obj
 0002:0000caac       $unwind$__FrameUnwindFilter 0000000180051aac     libvcruntime:ehhelpers.obj
 0002:0000caac       $unwind$??_Gbad_exception@std@@UEAAPEAXI@Z 0000000180051aac     libvcruntime:frame.obj
 0002:0000caac       $unwind$??_Gexception@std@@UEAAPEAXI@Z 0000000180051aac     libvcruntime:frame.obj
 0002:0000caac       $unwind$?ExFilterRethrowFH4@@YAHPEAU_EXCEPTION_POINTERS@@PEAUEHExceptionRecord@@HPEAH@Z 0000000180051aac     libvcruntime:frame.obj
 0002:0000caac       $unwind$_FindAndUnlinkFrame 0000000180051aac     libvcruntime:risctrnsctrl.obj
 0002:0000caac       $unwind$??$append@VDNameNode@@@DName@@AEAAXPEBVDNameNode@@@Z 0000000180051aac     libvcruntime:undname.obj
 0002:0000caac       $unwind$??$append@VDNameStatusNode@@@DName@@AEAAXPEBVDNameStatusNode@@@Z 0000000180051aac     libvcruntime:undname.obj
 0002:0000caac       $unwind$??$append@VcharNode@@@DName@@AEAAXPEBVcharNode@@@Z 0000000180051aac     libvcruntime:undname.obj
 0002:0000caac       $unwind$??$append@VpcharNode@@@DName@@AEAAXPEBVpcharNode@@@Z 0000000180051aac     libvcruntime:undname.obj
 0002:0000caac       $unwind$??YDName@@QEAAAEAV0@AEBUStringLiteral@@@Z 0000000180051aac     libvcruntime:undname.obj
 0002:0000caac       $unwind$??YDName@@QEAAAEAV0@D@Z 0000000180051aac     libvcruntime:undname.obj
 0002:0000caac       $unwind$??YReplicator@@QEAAAEAV0@AEBVDName@@@Z 0000000180051aac     libvcruntime:undname.obj
 0002:0000caac       $unwind$?getString@pairNode@@UEBAPEADPEAD0@Z 0000000180051aac     libvcruntime:undname.obj
 0002:0000caac       $unwind$?length@pairNode@@UEBAHXZ 0000000180051aac     libvcruntime:undname.obj
 0002:0000caac       $unwind$__vcrt_FlsSetValue 0000000180051aac     libvcruntime:winapi_downlevel.obj
 0002:0000caac       $unwind$??$common_initialize_environment_nolock@D@@YAHXZ 0000000180051aac     libucrt:environment_initialization.obj
 0002:0000caac       $unwind$_realloc_base      0000000180051aac     libucrt:realloc_base.obj
 0002:0000caac       $unwind$?replace_current_thread_locale_nolock@@YAXQEAU__acrt_ptd@@QEAU__crt_locale_data@@@Z 0000000180051aac     libucrt:per_thread_data.obj
 0002:0000caac       $unwind$__acrt_execute_uninitializers 0000000180051aac     libucrt:shared_initialization.obj
 0002:0000caac       $unwind$__acrt_FlsSetValue 0000000180051aac     libucrt:winapi_thunks.obj
 0002:0000caac       $unwind$__acrt_LocaleNameToLCID 0000000180051aac     libucrt:winapi_thunks.obj
 0002:0000caac       $unwind$_updatetlocinfoEx_nolock 0000000180051aac     libucrt:locale_refcounting.obj
 0002:0000caac       $unwind$_close_nolock      0000000180051aac     libucrt:close.obj
 0002:0000caac       $unwind$__acrt_uninitialize_lowio 0000000180051aac     libucrt:ioinit.obj
 0002:0000caac       $unwind$__acrt_errno_map_os_error 0000000180051aac     libucrt:errno.obj
 0002:0000caac       $unwind$_initterm_e        0000000180051aac     libucrt:initterm.obj
 0002:0000caac       $unwind$_fclose_nolock     0000000180051aac     libucrt:fclose.obj
 0002:0000caac       $unwind$?type_case_n@?$output_processor@DV?$string_output_adapter@D@__crt_stdio_output@@V?$format_validation_base@DV?$string_output_adapter@D@__crt_stdio_output@@@2@@__crt_stdio_output@@AEAA_NXZ 0000000180051aac     libucrt:output.obj
 0002:0000caac       $unwind$strncpy_s          0000000180051aac     libucrt:strncpy_s.obj
 0002:0000cab8       $unwind$?outputSegment@RenderOutput@Cm@physx@@QEAAXAEBVPxVec3@3@0@Z 0000000180051ab8     Cooking.obj
 0002:0000cad0       $unwind$?getHeight@HeightField@Gu@physx@@UEBAMMM@Z 0000000180051ad0     Cooking.obj
 0002:0000cad0       $unwind$?getAddressOf@UnDecorator@@CA?AVDName@@XZ 0000000180051ad0     libvcruntime:undname.obj
 0002:0000cad0       $unwind$?getArrayAccess@UnDecorator@@CA?AVDName@@XZ 0000000180051ad0     libvcruntime:undname.obj
 0002:0000cad0       $unwind$?getArrayObject@UnDecorator@@CA?AVDName@@XZ 0000000180051ad0     libvcruntime:undname.obj
 0002:0000cad0       $unwind$?getMemberAccess@UnDecorator@@CA?AVDName@@XZ 0000000180051ad0     libvcruntime:undname.obj
 0002:0000cad0       $unwind$?getStringEncoding@UnDecorator@@CA?AVDName@@W4PrefixKind@@H@Z 0000000180051ad0     libvcruntime:undname.obj
 0002:0000cad0       $unwind$?getUnionObject@UnDecorator@@CA?AVDName@@XZ 0000000180051ad0     libvcruntime:undname.obj
 0002:0000cad0       $unwind$__dcrt_lowio_ensure_console_output_initialized 0000000180051ad0     libucrt:initcon.obj
 0002:0000cad0       $unwind$_isleadbyte_l      0000000180051ad0     libucrt:_wctype.obj
 0002:0000cad0       $unwind$?getSystemCP@@YAHH@Z 0000000180051ad0     libucrt:mbctype.obj
 0002:0000cad8       $unwind$?getTriangleNormal@HeightField@Gu@physx@@UEBA?AVPxVec3@3@I@Z 0000000180051ad8     Cooking.obj
 0002:0000cae4       $unwind$?getHeightInternal2@HeightField@Gu@physx@@QEBAMIMM@Z 0000000180051ae4     Cooking.obj
 0002:0000caf0       $chain$0$?getHeightInternal2@HeightField@Gu@physx@@QEBAMIMM@Z 0000000180051af0     Cooking.obj
 0002:0000cb04       $chain$2$?getHeightInternal2@HeightField@Gu@physx@@QEBAMIMM@Z 0000000180051b04     Cooking.obj
 0002:0000cb18       $unwind$?Reduce@ReducedVertexCloud@physx@@QEAA_NPEAUREDUCEDCLOUD@2@@Z 0000000180051b18     CookingUtils.obj
 0002:0000cb30       $unwind$??1AABBTreeBuildParams@Gu@physx@@QEAA@XZ 0000000180051b30     BVHStructureBuilder.obj
 0002:0000cb30       $unwind$??1BVHStructureBuilder@physx@@QEAA@XZ 0000000180051b30     BVHStructureBuilder.obj
 0002:0000cb30       $unwind$?reset@AABBTreeBuildParams@Gu@physx@@QEAAXXZ 0000000180051b30     BVHStructureBuilder.obj
 0002:0000cb30       $unwind$??1ConvexHullBuilder@physx@@QEAA@XZ 0000000180051b30     ConvexHullBuilder.obj
 0002:0000cb30       $unwind$??_GConvexHullLib@physx@@UEAAPEAXI@Z 0000000180051b30     ConvexHullLib.obj
 0002:0000cb30       $unwind$?resize@?$Array@VPxPlane@physx@@VNamedAllocator@shdfnd@2@@shdfnd@physx@@QEAAXIAEBVPxPlane@3@@Z 0000000180051b30     ConvexHullUtils.obj
 0002:0000cb30       $unwind$?resize@?$Array@VPxVec3@physx@@VNamedAllocator@shdfnd@2@@shdfnd@physx@@QEAAXIAEBVPxVec3@3@@Z 0000000180051b30     ConvexHullUtils.obj
 0002:0000cb30       $unwind$??1EdgeList@Gu@physx@@QEAA@XZ 0000000180051b30     EdgeList.obj
 0002:0000cb30       $unwind$??1MeshCleaner@physx@@QEAA@XZ 0000000180051b30     MeshCleaner.obj
 0002:0000cb30       $unwind$??_GQuantizerImpl@@EEAAPEAXI@Z 0000000180051b30     Quantizer.obj
 0002:0000cb30       $unwind$??_GConvexHull@physx@@QEAAPEAXI@Z 0000000180051b30     QuickHullConvexHullLib.obj
 0002:0000cb30       $unwind$??_GQuickHull@local@@QEAAPEAXI@Z 0000000180051b30     QuickHullConvexHullLib.obj
 0002:0000cb30       $unwind$??1MeshDataBase@Gu@physx@@UEAA@XZ 0000000180051b30     TriangleMeshBuilder.obj
 0002:0000cb30       $unwind$??_GBV4TriangleMeshBuilder@physx@@UEAAPEAXI@Z 0000000180051b30     TriangleMeshBuilder.obj
 0002:0000cb30       $unwind$_DllMainCRTStartup 0000000180051b30     LIBCMT:dll_dllmain.obj
 0002:0000cb30       $unwind$__vcrt_getptd_noexit 0000000180051b30     libvcruntime:per_thread_data.obj
 0002:0000cb30       $unwind$??$?0$01@pcharNode@@QEAA@PEBDHU?$StringLifeSelector@$01@@@Z 0000000180051b30     libvcruntime:undname.obj
 0002:0000cb30       $unwind$??$?0$0A@@pcharNode@@QEAA@PEBDHU?$StringLifeSelector@$0A@@@@Z 0000000180051b30     libvcruntime:undname.obj
 0002:0000cb30       $unwind$??$doPchar@$01@DName@@AEAAXPEBDH@Z 0000000180051b30     libvcruntime:undname.obj
 0002:0000cb30       $unwind$??$doPchar@$0A@@DName@@AEAAXPEBDH@Z 0000000180051b30     libvcruntime:undname.obj
 0002:0000cb30       $unwind$??0DName@@QEAA@AEAPEBDD@Z 0000000180051b30     libvcruntime:undname.obj
 0002:0000cb30       $unwind$??0DName@@QEAA@PEAV0@@Z 0000000180051b30     libvcruntime:undname.obj
 0002:0000cb30       $unwind$?getMemoryWithBuffer@_HeapManager@@QEAAPEAX_K@Z 0000000180051b30     libvcruntime:undname.obj
 0002:0000cb30       $unwind$__vcrt_InitializeCriticalSectionEx 0000000180051b30     libvcruntime:winapi_downlevel.obj
 0002:0000cb30       $unwind$memcpy_s           0000000180051b30     libucrt:cfout.obj
 0002:0000cb30       $unwind$__acrt_getptd      0000000180051b30     libucrt:per_thread_data.obj
 0002:0000cb30       $unwind$__acrt_getptd_noexit 0000000180051b30     libucrt:per_thread_data.obj
 0002:0000cb30       $unwind$__acrt_execute_initializers 0000000180051b30     libucrt:shared_initialization.obj
 0002:0000cb30       $unwind$__acrt_InitializeCriticalSectionEx 0000000180051b30     libucrt:winapi_thunks.obj
 0002:0000cb30       $unwind$?free_crt_array_internal@@YAXQEAPEBX_K@Z 0000000180051b30     libucrt:inittime.obj
 0002:0000cb30       $unwind$??$common_lseek_nolock@_J@@YA_JH_JH@Z 0000000180051b30     libucrt:lseek.obj
 0002:0000cb30       $unwind$__acrt_stdio_flush_nolock 0000000180051b30     libucrt:fflush.obj
 0002:0000cb30       $unwind$??0_LocaleUpdate@@QEAA@QEAU__crt_locale_pointers@@@Z 0000000180051b30     libucrt:output.obj
 0002:0000cb30       $unwind$_exception_enabled 0000000180051b30     libucrt:libm_error.obj
 0002:0000cb40       $unwind$?init@EdgeListBuilder@Gu@physx@@QEAA_NAEBUEDGELISTCREATE@23@@Z 0000000180051b40     EdgeList.obj
 0002:0000cb40       $unwind$?getStateFromIterators@UWMap4@FH4@@SAHAEBViterator@12@H0H0@Z 0000000180051b40     libvcruntime:frame.obj
 0002:0000cb40       $unwind$?getUndecoratedName@UnDecorator@@QEAAPEADPEADH@Z 0000000180051b40     libvcruntime:undname.obj
 0002:0000cb50       $unwind$?createFacesToEdges@EdgeListBuilder@Gu@physx@@AEAA_NIPEBIPEBG@Z 0000000180051b50     EdgeList.obj
 0002:0000cb60       $chain$3$?createFacesToEdges@EdgeListBuilder@Gu@physx@@AEAA_NIPEBIPEBG@Z 0000000180051b60     EdgeList.obj
 0002:0000cb80       $chain$4$?createFacesToEdges@EdgeListBuilder@Gu@physx@@AEAA_NIPEBIPEBG@Z 0000000180051b80     EdgeList.obj
 0002:0000cb98       $chain$5$?createFacesToEdges@EdgeListBuilder@Gu@physx@@AEAA_NIPEBIPEBG@Z 0000000180051b98     EdgeList.obj
 0002:0000cbac       $chain$6$?createFacesToEdges@EdgeListBuilder@Gu@physx@@AEAA_NIPEBIPEBG@Z 0000000180051bac     EdgeList.obj
 0002:0000cbbc       $unwind$?createEdgesToFaces@EdgeListBuilder@Gu@physx@@AEAA_NIPEBIPEBG@Z 0000000180051bbc     EdgeList.obj
 0002:0000cbcc       $chain$1$?createEdgesToFaces@EdgeListBuilder@Gu@physx@@AEAA_NIPEBIPEBG@Z 0000000180051bcc     EdgeList.obj
 0002:0000cbe0       $chain$2$?createEdgesToFaces@EdgeListBuilder@Gu@physx@@AEAA_NIPEBIPEBG@Z 0000000180051be0     EdgeList.obj
 0002:0000cbf0       $unwind$?computeActiveEdges@EdgeListBuilder@Gu@physx@@AEAA_NIPEBIPEBGPEBVPxVec3@3@M@Z 0000000180051bf0     EdgeList.obj
 0002:0000cc00       $chain$0$?computeActiveEdges@EdgeListBuilder@Gu@physx@@AEAA_NIPEBIPEBGPEBVPxVec3@3@M@Z 0000000180051c00     EdgeList.obj
 0002:0000cc14       $chain$3$?computeActiveEdges@EdgeListBuilder@Gu@physx@@AEAA_NIPEBIPEBGPEBVPxVec3@3@M@Z 0000000180051c14     EdgeList.obj
 0002:0000cc28       $chain$16$?computeActiveEdges@EdgeListBuilder@Gu@physx@@AEAA_NIPEBIPEBGPEBVPxVec3@3@M@Z 0000000180051c28     EdgeList.obj
 0002:0000cc6c       $chain$17$?computeActiveEdges@EdgeListBuilder@Gu@physx@@AEAA_NIPEBIPEBGPEBVPxVec3@3@M@Z 0000000180051c6c     EdgeList.obj
 0002:0000cc80       $chain$18$?computeActiveEdges@EdgeListBuilder@Gu@physx@@AEAA_NIPEBIPEBGPEBVPxVec3@3@M@Z 0000000180051c80     EdgeList.obj
 0002:0000cc94       $chain$2$?computeActiveEdges@EdgeListBuilder@Gu@physx@@AEAA_NIPEBIPEBGPEBVPxVec3@3@M@Z 0000000180051c94     EdgeList.obj
 0002:0000cca8       $chain$19$?computeActiveEdges@EdgeListBuilder@Gu@physx@@AEAA_NIPEBIPEBGPEBVPxVec3@3@M@Z 0000000180051ca8     EdgeList.obj
 0002:0000ccb8       $chain$0$??$?_UI@@YAPEAX_KV?$ReflectionAllocator@I@shdfnd@physx@@PEBDH@Z 0000000180051cb8     EdgeList.obj
 0002:0000cccc       $chain$1$??$?_UI@@YAPEAX_KV?$ReflectionAllocator@I@shdfnd@physx@@PEBDH@Z 0000000180051ccc     EdgeList.obj
 0002:0000ccdc       $unwind$??0MeshCleaner@physx@@QEAA@IPEBVPxVec3@1@IPEBIM@Z 0000000180051cdc     MeshCleaner.obj
 0002:0000cce8       $chain$1$??0MeshCleaner@physx@@QEAA@IPEBVPxVec3@1@IPEBIM@Z 0000000180051ce8     MeshCleaner.obj
 0002:0000cd00       $chain$5$??0MeshCleaner@physx@@QEAA@IPEBVPxVec3@1@IPEBIM@Z 0000000180051d00     MeshCleaner.obj
 0002:0000cd20       $chain$7$??0MeshCleaner@physx@@QEAA@IPEBVPxVec3@1@IPEBIM@Z 0000000180051d20     MeshCleaner.obj
 0002:0000cd38       $chain$8$??0MeshCleaner@physx@@QEAA@IPEBVPxVec3@1@IPEBIM@Z 0000000180051d38     MeshCleaner.obj
 0002:0000cd4c       $chain$9$??0MeshCleaner@physx@@QEAA@IPEBVPxVec3@1@IPEBIM@Z 0000000180051d4c     MeshCleaner.obj
 0002:0000cd5c       $chain$10$??0MeshCleaner@physx@@QEAA@IPEBVPxVec3@1@IPEBIM@Z 0000000180051d5c     MeshCleaner.obj
 0002:0000cd5c       $chain$12$??0MeshCleaner@physx@@QEAA@IPEBVPxVec3@1@IPEBIM@Z 0000000180051d5c     MeshCleaner.obj
 0002:0000cd6c       $chain$11$??0MeshCleaner@physx@@QEAA@IPEBVPxVec3@1@IPEBIM@Z 0000000180051d6c     MeshCleaner.obj
 0002:0000cd84       $chain$13$??0MeshCleaner@physx@@QEAA@IPEBVPxVec3@1@IPEBIM@Z 0000000180051d84     MeshCleaner.obj
 0002:0000cda0       $chain$14$??0MeshCleaner@physx@@QEAA@IPEBVPxVec3@1@IPEBIM@Z 0000000180051da0     MeshCleaner.obj
 0002:0000cdb0       $unwind$?createQuantizer@physx@@YAPEAVQuantizer@1@XZ 0000000180051db0     Quantizer.obj
 0002:0000cdc0       $unwind$??$kmeans_cluster@VPxVec3@physx@@M@@YAIPEBVPxVec3@physx@@IIPEAV01@PEAIMM@Z 0000000180051dc0     Quantizer.obj
 0002:0000cdcc       $chain$2$??$kmeans_cluster@VPxVec3@physx@@M@@YAIPEBVPxVec3@physx@@IIPEAV01@PEAIMM@Z 0000000180051dcc     Quantizer.obj
 0002:0000cde8       $chain$6$??$kmeans_cluster@VPxVec3@physx@@M@@YAIPEBVPxVec3@physx@@IIPEAV01@PEAIMM@Z 0000000180051de8     Quantizer.obj
 0002:0000ce08       $chain$12$??$kmeans_cluster@VPxVec3@physx@@M@@YAIPEBVPxVec3@physx@@IIPEAV01@PEAIMM@Z 0000000180051e08     Quantizer.obj
 0002:0000ce30       $chain$13$??$kmeans_cluster@VPxVec3@physx@@M@@YAIPEBVPxVec3@physx@@IIPEAV01@PEAIMM@Z 0000000180051e30     Quantizer.obj
 0002:0000ce40       $chain$14$??$kmeans_cluster@VPxVec3@physx@@M@@YAIPEBVPxVec3@physx@@IIPEAV01@PEAIMM@Z 0000000180051e40     Quantizer.obj
 0002:0000ce5c       $chain$15$??$kmeans_cluster@VPxVec3@physx@@M@@YAIPEBVPxVec3@physx@@IIPEAV01@PEAIMM@Z 0000000180051e5c     Quantizer.obj
 0002:0000ce6c       $unwind$?kmeansQuantize3D@QuantizerImpl@@UEAAPEBVPxVec3@physx@@IPEBV23@I_NIAEAI@Z 0000000180051e6c     Quantizer.obj
 0002:0000ce7c       $chain$2$?kmeansQuantize3D@QuantizerImpl@@UEAAPEBVPxVec3@physx@@IPEBV23@I_NIAEAI@Z 0000000180051e7c     Quantizer.obj
 0002:0000ce98       $chain$3$?kmeansQuantize3D@QuantizerImpl@@UEAAPEBVPxVec3@physx@@IPEBV23@I_NIAEAI@Z 0000000180051e98     Quantizer.obj
 0002:0000ceb0       $chain$4$?kmeansQuantize3D@QuantizerImpl@@UEAAPEBVPxVec3@physx@@IPEBV23@I_NIAEAI@Z 0000000180051eb0     Quantizer.obj
 0002:0000cec4       $chain$5$?kmeansQuantize3D@QuantizerImpl@@UEAAPEBVPxVec3@physx@@IPEBV23@I_NIAEAI@Z 0000000180051ec4     Quantizer.obj
 0002:0000ced4       $unwind$?normalizeInput@QuantizerImpl@@AEAAXIPEBVPxVec3@physx@@I@Z 0000000180051ed4     Quantizer.obj
 0002:0000cef0       $chain$2$?normalizeInput@QuantizerImpl@@AEAAXIPEBVPxVec3@physx@@I@Z 0000000180051ef0     Quantizer.obj
 0002:0000cf0c       $chain$6$?normalizeInput@QuantizerImpl@@AEAAXIPEBVPxVec3@physx@@I@Z 0000000180051f0c     Quantizer.obj
 0002:0000cf2c       $chain$7$?normalizeInput@QuantizerImpl@@AEAAXIPEBVPxVec3@physx@@I@Z 0000000180051f2c     Quantizer.obj
 0002:0000cf3c       $chain$8$?normalizeInput@QuantizerImpl@@AEAAXIPEBVPxVec3@physx@@I@Z 0000000180051f3c     Quantizer.obj
 0002:0000cf4c       $chain$10$?normalizeInput@QuantizerImpl@@AEAAXIPEBVPxVec3@physx@@I@Z 0000000180051f4c     Quantizer.obj
 0002:0000cf64       $chain$11$?normalizeInput@QuantizerImpl@@AEAAXIPEBVPxVec3@physx@@I@Z 0000000180051f64     Quantizer.obj
 0002:0000cf74       $unwind$?growAndPushBack@?$Array@VHalfEdge@ConvexHull@physx@@VNamedAllocator@shdfnd@3@@shdfnd@physx@@IEAAAEAVHalfEdge@ConvexHull@3@AEBV453@@Z 0000000180051f74     ConvexHullUtils.obj
 0002:0000cf74       $unwind$?growAndPushBack@?$Array@VPxPlane@physx@@VNamedAllocator@shdfnd@2@@shdfnd@physx@@IEAAAEAVPxPlane@3@AEBV43@@Z 0000000180051f74     ConvexHullUtils.obj
 0002:0000cf74       $unwind$?growAndPushBack@?$Array@VPair@@VNamedAllocator@shdfnd@physx@@@shdfnd@physx@@IEAAAEAVPair@@AEBV4@@Z 0000000180051f74     ConvexPolygonsBuilder.obj
 0002:0000cf74       $unwind$?growAndPushBack@?$Array@VPxVec3@physx@@VNamedAllocator@shdfnd@2@@shdfnd@physx@@IEAAAEAVPxVec3@3@AEBV43@@Z 0000000180051f74     Quantizer.obj
 0002:0000cf74       $unwind$?growAndPushBack@?$Array@PEAUQuickHullFace@local@@VNamedAllocator@shdfnd@physx@@@shdfnd@physx@@IEAAAEAPEAUQuickHullFace@local@@AEBQEAU45@@Z 0000000180051f74     QuickHullConvexHullLib.obj
 0002:0000cf74       $unwind$?growAndPushBack@?$Array@PEAUQuickHullHalfEdge@local@@VNamedAllocator@shdfnd@physx@@@shdfnd@physx@@IEAAAEAPEAUQuickHullHalfEdge@local@@AEBQEAU45@@Z 0000000180051f74     QuickHullConvexHullLib.obj
 0002:0000cf74       $unwind$?growAndPushBack@?$Array@PEAUQuickHullVertex@local@@VNamedAllocator@shdfnd@physx@@@shdfnd@physx@@IEAAAEAPEAUQuickHullVertex@local@@AEBQEAU45@@Z 0000000180051f74     QuickHullConvexHullLib.obj
 0002:0000cf74       $unwind$?growAndPushBack@?$Array@IVNamedAllocator@shdfnd@physx@@@shdfnd@physx@@IEAAAEAIAEBI@Z 0000000180051f74     RTreeCooking.obj
 0002:0000cf74       $unwind$?growAndPushBack@?$Array@UPxBounds3V@physx@@VNamedAllocator@shdfnd@2@@shdfnd@physx@@IEAAAEAUPxBounds3V@3@AEBU43@@Z 0000000180051f74     RTreeCooking.obj
 0002:0000cf74       $unwind$?growAndPushBack@?$Array@URTreeNodeNQ@physx@@VNamedAllocator@shdfnd@2@@shdfnd@physx@@IEAAAEAURTreeNodeNQ@3@AEBU43@@Z 0000000180051f74     RTreeCooking.obj
 0002:0000cf84       $chain$0$?growAndPushBack@?$Array@VPxVec3@physx@@VNamedAllocator@shdfnd@2@@shdfnd@physx@@IEAAAEAVPxVec3@3@AEBV43@@Z 0000000180051f84     Quantizer.obj
 0002:0000cf98       $chain$1$?growAndPushBack@?$Array@VPxVec3@physx@@VNamedAllocator@shdfnd@2@@shdfnd@physx@@IEAAAEAVPxVec3@3@AEBV43@@Z 0000000180051f98     Quantizer.obj
 0002:0000cfac       $chain$2$?growAndPushBack@?$Array@VPxVec3@physx@@VNamedAllocator@shdfnd@2@@shdfnd@physx@@IEAAAEAVPxVec3@3@AEBV43@@Z 0000000180051fac     Quantizer.obj
 0002:0000cfbc       $chain$3$?growAndPushBack@?$Array@VPxVec3@physx@@VNamedAllocator@shdfnd@2@@shdfnd@physx@@IEAAAEAVPxVec3@3@AEBV43@@Z 0000000180051fbc     Quantizer.obj
 0002:0000cfcc       $unwind$?loadFromDesc@BVHStructureBuilder@physx@@QEAA_NAEBVPxBVHStructureDesc@2@@Z 0000000180051fcc     BVHStructureBuilder.obj
 0002:0000cfd8       $chain$2$?loadFromDesc@BVHStructureBuilder@physx@@QEAA_NAEBVPxBVHStructureDesc@2@@Z 0000000180051fd8     BVHStructureBuilder.obj
 0002:0000cff4       $chain$5$?loadFromDesc@BVHStructureBuilder@physx@@QEAA_NAEBVPxBVHStructureDesc@2@@Z 0000000180051ff4     BVHStructureBuilder.obj
 0002:0000d010       $chain$6$?loadFromDesc@BVHStructureBuilder@physx@@QEAA_NAEBVPxBVHStructureDesc@2@@Z 0000000180052010     BVHStructureBuilder.obj
 0002:0000d020       $chain$7$?loadFromDesc@BVHStructureBuilder@physx@@QEAA_NAEBVPxBVHStructureDesc@2@@Z 0000000180052020     BVHStructureBuilder.obj
 0002:0000d030       $unwind$?save@BVHStructureBuilder@physx@@QEBA_NAEAVPxOutputStream@2@_N@Z 0000000180052030     BVHStructureBuilder.obj
 0002:0000d040       $chain$2$?save@BVHStructureBuilder@physx@@QEBA_NAEAVPxOutputStream@2@_N@Z 0000000180052040     BVHStructureBuilder.obj
 0002:0000d058       $chain$3$?save@BVHStructureBuilder@physx@@QEBA_NAEAVPxOutputStream@2@_N@Z 0000000180052058     BVHStructureBuilder.obj
 0002:0000d06c       $chain$1$?allocate@?$Array@USlab@NodeAllocator@Gu@physx@@VNamedAllocator@shdfnd@4@@shdfnd@physx@@IEAAPEAUSlab@NodeAllocator@Gu@3@I@Z 000000018005206c     BVHStructureBuilder.obj
 0002:0000d084       $chain$2$?allocate@?$Array@USlab@NodeAllocator@Gu@physx@@VNamedAllocator@shdfnd@4@@shdfnd@physx@@IEAAPEAUSlab@NodeAllocator@Gu@3@I@Z 0000000180052084     BVHStructureBuilder.obj
 0002:0000d094       $unwind$?recreate@?$Array@USlab@NodeAllocator@Gu@physx@@VNamedAllocator@shdfnd@4@@shdfnd@physx@@IEAAXI@Z 0000000180052094     BVHStructureBuilder.obj
 0002:0000d094       $unwind$?recreate@?$Array@UPxBounds3V@physx@@VNamedAllocator@shdfnd@2@@shdfnd@physx@@IEAAXI@Z 0000000180052094     RTreeCooking.obj
 0002:0000d0a4       $chain$0$?recreate@?$Array@USlab@NodeAllocator@Gu@physx@@VNamedAllocator@shdfnd@4@@shdfnd@physx@@IEAAXI@Z 00000001800520a4     BVHStructureBuilder.obj
 0002:0000d0b8       $chain$1$?recreate@?$Array@USlab@NodeAllocator@Gu@physx@@VNamedAllocator@shdfnd@4@@shdfnd@physx@@IEAAXI@Z 00000001800520b8     BVHStructureBuilder.obj
 0002:0000d0c8       $unwind$??4NodeAllocator@Gu@physx@@QEAAAEAV012@AEBV012@@Z 00000001800520c8     BVHStructureBuilder.obj
 0002:0000d0c8       $unwind$?growAndPushBack@?$Array@UInterval@physx@@V?$InlineAllocator@$0CAAA@VNamedAllocator@shdfnd@physx@@@shdfnd@2@@shdfnd@physx@@IEAAAEAUInterval@3@AEBU43@@Z 00000001800520c8     RTreeCooking.obj
 0002:0000d0c8       $unwind$__std_exception_copy 00000001800520c8     libvcruntime:std_exception.obj
 0002:0000d0c8       $unwind$??$doPchar@$00@DName@@AEAAXPEBDH@Z 00000001800520c8     libvcruntime:undname.obj
 0002:0000d0c8       $unwind$_free_osfhnd       00000001800520c8     libucrt:osfinfo.obj
 0002:0000d0c8       $unwind$?process@?$output_processor@DV?$string_output_adapter@D@__crt_stdio_output@@V?$format_validation_base@DV?$string_output_adapter@D@__crt_stdio_output@@@2@@__crt_stdio_output@@QEAAHXZ 00000001800520c8     libucrt:output.obj
 0002:0000d0dc       $unwind$?saveHeightField@physx@@YA_NAEBVHeightField@Gu@1@AEAVPxOutputStream@1@_N@Z 00000001800520dc     HeightFieldCooking.obj
 0002:0000d0ec       $chain$2$?saveHeightField@physx@@YA_NAEBVHeightField@Gu@1@AEAVPxOutputStream@1@_N@Z 00000001800520ec     HeightFieldCooking.obj
 0002:0000d104       $chain$3$?saveHeightField@physx@@YA_NAEBVHeightField@Gu@1@AEAVPxOutputStream@1@_N@Z 0000000180052104     HeightFieldCooking.obj
 0002:0000d114       $unwind$?expandHullOBB@QuickHullConvexHullLib@physx@@IEAA?AW4Enum@PxConvexMeshCookingResult@2@XZ 0000000180052114     QuickHullConvexHullLib.obj
 0002:0000d114       $unwind$?buildFromTriangles@RTreeCooker@physx@@SAXAEAURTree@Gu@2@PEBVPxVec3@2@IPEBGPEBIIAEAV?$Array@IVNamedAllocator@shdfnd@physx@@@shdfnd@2@PEAURemapCallback@12@MW4Enum@PxMeshCookingHint@2@@Z 0000000180052114     RTreeCooking.obj
 0002:0000d120       $chain$7$?buildFromTriangles@RTreeCooker@physx@@SAXAEAURTree@Gu@2@PEBVPxVec3@2@IPEBGPEBIIAEAV?$Array@IVNamedAllocator@shdfnd@physx@@@shdfnd@2@PEAURemapCallback@12@MW4Enum@PxMeshCookingHint@2@@Z 0000000180052120     RTreeCooking.obj
 0002:0000d150       $chain$9$?buildFromTriangles@RTreeCooker@physx@@SAXAEAURTree@Gu@2@PEBVPxVec3@2@IPEBGPEBIIAEAV?$Array@IVNamedAllocator@shdfnd@physx@@@shdfnd@2@PEAURemapCallback@12@MW4Enum@PxMeshCookingHint@2@@Z 0000000180052150     RTreeCooking.obj
 0002:0000d168       $chain$10$?buildFromTriangles@RTreeCooker@physx@@SAXAEAURTree@Gu@2@PEBVPxVec3@2@IPEBGPEBIIAEAV?$Array@IVNamedAllocator@shdfnd@physx@@@shdfnd@2@PEAURemapCallback@12@MW4Enum@PxMeshCookingHint@2@@Z 0000000180052168     RTreeCooking.obj
 0002:0000d178       $chain$11$?buildFromTriangles@RTreeCooker@physx@@SAXAEAURTree@Gu@2@PEBVPxVec3@2@IPEBGPEBIIAEAV?$Array@IVNamedAllocator@shdfnd@physx@@@shdfnd@2@PEAURemapCallback@12@MW4Enum@PxMeshCookingHint@2@@Z 0000000180052178     RTreeCooking.obj
 0002:0000d188       $unwind$?buildFromBounds@physx@@YAXAEAURTree@Gu@1@PEBUPxBounds3V@1@IAEAV?$Array@IVNamedAllocator@shdfnd@physx@@@shdfnd@1@PEAURemapCallback@RTreeCooker@1@AEAT__m128@@4MW4Enum@PxMeshCookingHint@1@@Z 0000000180052188     RTreeCooking.obj
 0002:0000d1a8       $chain$0$?growAndPushBack@?$Array@UPxBounds3V@physx@@VNamedAllocator@shdfnd@2@@shdfnd@physx@@IEAAAEAUPxBounds3V@3@AEBU43@@Z 00000001800521a8     RTreeCooking.obj
 0002:0000d1bc       $chain$1$?growAndPushBack@?$Array@UPxBounds3V@physx@@VNamedAllocator@shdfnd@2@@shdfnd@physx@@IEAAAEAUPxBounds3V@3@AEBU43@@Z 00000001800521bc     RTreeCooking.obj
 0002:0000d1d0       $chain$2$?growAndPushBack@?$Array@UPxBounds3V@physx@@VNamedAllocator@shdfnd@2@@shdfnd@physx@@IEAAAEAUPxBounds3V@3@AEBU43@@Z 00000001800521d0     RTreeCooking.obj
 0002:0000d1e0       $chain$3$?growAndPushBack@?$Array@UPxBounds3V@physx@@VNamedAllocator@shdfnd@2@@shdfnd@physx@@IEAAAEAUPxBounds3V@3@AEBU43@@Z 00000001800521e0     RTreeCooking.obj
 0002:0000d1f0       $chain$0$?recreate@?$Array@UPxBounds3V@physx@@VNamedAllocator@shdfnd@2@@shdfnd@physx@@IEAAXI@Z 00000001800521f0     RTreeCooking.obj
 0002:0000d204       $chain$1$?recreate@?$Array@UPxBounds3V@physx@@VNamedAllocator@shdfnd@2@@shdfnd@physx@@IEAAXI@Z 0000000180052204     RTreeCooking.obj
 0002:0000d214       $unwind$?resize@?$Array@VHalfEdge@ConvexHull@physx@@VNamedAllocator@shdfnd@3@@shdfnd@physx@@QEAAXIAEBVHalfEdge@ConvexHull@3@@Z 0000000180052214     ConvexHullUtils.obj
 0002:0000d214       $unwind$??_GQuickHullConvexHullLib@physx@@UEAAPEAXI@Z 0000000180052214     QuickHullConvexHullLib.obj
 0002:0000d214       $unwind$?resize@?$Array@IVNamedAllocator@shdfnd@physx@@@shdfnd@physx@@QEAAXIAEBI@Z 0000000180052214     RTreeCooking.obj
 0002:0000d214       $unwind$__scrt_dllmain_exception_filter 0000000180052214     LIBCMT:utility.obj
 0002:0000d214       $unwind$?Is_bad_exception_allowed@@YAEPEBU_s_ESTypeList@@@Z 0000000180052214     libvcruntime:frame.obj
 0002:0000d214       $unwind$_ischartype_l      0000000180052214     libucrt:atox.obj
 0002:0000d214       $unwind$_recalloc_base     0000000180052214     libucrt:recalloc.obj
 0002:0000d214       $unwind$__acrt_free_locale 0000000180052214     libucrt:locale_refcounting.obj
 0002:0000d214       $unwind$__acrt_lowio_create_handle_array 0000000180052214     libucrt:osfinfo.obj
 0002:0000d214       $unwind$?setSBCS@@YAXPEAU__crt_multibyte_data@@@Z 0000000180052214     libucrt:mbctype.obj
 0002:0000d214       $unwind$_seh_filter_exe    0000000180052214     libucrt:exception_filter.obj
 0002:0000d214       $unwind$_initterm          0000000180052214     libucrt:initterm.obj
 0002:0000d214       $unwind$??$ensure_buffer_is_big_enough@D@formatting_buffer@__crt_stdio_output@@QEAA_N_K@Z 0000000180052214     libucrt:output.obj
 0002:0000d228       $chain$0$?growAndPushBack@?$Array@VHalfEdge@ConvexHull@physx@@VNamedAllocator@shdfnd@3@@shdfnd@physx@@IEAAAEAVHalfEdge@ConvexHull@3@AEBV453@@Z 0000000180052228     ConvexHullUtils.obj
 0002:0000d228       $chain$0$?growAndPushBack@?$Array@IVNamedAllocator@shdfnd@physx@@@shdfnd@physx@@IEAAAEAIAEBI@Z 0000000180052228     RTreeCooking.obj
 0002:0000d23c       $chain$1$?growAndPushBack@?$Array@VHalfEdge@ConvexHull@physx@@VNamedAllocator@shdfnd@3@@shdfnd@physx@@IEAAAEAVHalfEdge@ConvexHull@3@AEBV453@@Z 000000018005223c     ConvexHullUtils.obj
 0002:0000d23c       $chain$1$?growAndPushBack@?$Array@IVNamedAllocator@shdfnd@physx@@@shdfnd@physx@@IEAAAEAIAEBI@Z 000000018005223c     RTreeCooking.obj
 0002:0000d250       $chain$2$?growAndPushBack@?$Array@VHalfEdge@ConvexHull@physx@@VNamedAllocator@shdfnd@3@@shdfnd@physx@@IEAAAEAVHalfEdge@ConvexHull@3@AEBV453@@Z 0000000180052250     ConvexHullUtils.obj
 0002:0000d250       $chain$2$?growAndPushBack@?$Array@IVNamedAllocator@shdfnd@physx@@@shdfnd@physx@@IEAAAEAIAEBI@Z 0000000180052250     RTreeCooking.obj
 0002:0000d260       $chain$3$?growAndPushBack@?$Array@VHalfEdge@ConvexHull@physx@@VNamedAllocator@shdfnd@3@@shdfnd@physx@@IEAAAEAVHalfEdge@ConvexHull@3@AEBV453@@Z 0000000180052260     ConvexHullUtils.obj
 0002:0000d260       $chain$3$?growAndPushBack@?$Array@IVNamedAllocator@shdfnd@physx@@@shdfnd@physx@@IEAAAEAIAEBI@Z 0000000180052260     RTreeCooking.obj
 0002:0000d270       $chain$0$?recreate@?$Array@VHalfEdge@ConvexHull@physx@@VNamedAllocator@shdfnd@3@@shdfnd@physx@@IEAAXI@Z 0000000180052270     ConvexHullUtils.obj
 0002:0000d270       $chain$0$?recreate@?$Array@IVNamedAllocator@shdfnd@physx@@@shdfnd@physx@@IEAAXI@Z 0000000180052270     RTreeCooking.obj
 0002:0000d284       $chain$1$?recreate@?$Array@VHalfEdge@ConvexHull@physx@@VNamedAllocator@shdfnd@3@@shdfnd@physx@@IEAAXI@Z 0000000180052284     ConvexHullUtils.obj
 0002:0000d284       $chain$1$?recreate@?$Array@IVNamedAllocator@shdfnd@physx@@@shdfnd@physx@@IEAAXI@Z 0000000180052284     RTreeCooking.obj
 0002:0000d294       $chain$0$?recreate@?$Array@VPxVec3@physx@@VNamedAllocator@shdfnd@2@@shdfnd@physx@@IEAAXI@Z 0000000180052294     RTreeCooking.obj
 0002:0000d2a8       $chain$1$?recreate@?$Array@VPxVec3@physx@@VNamedAllocator@shdfnd@2@@shdfnd@physx@@IEAAXI@Z 00000001800522a8     RTreeCooking.obj
 0002:0000d2b8       $unwind$?sort4@SubSortQuick@physx@@QEAAXPEIAIIAEAV?$Array@URTreeNodeNQ@physx@@VNamedAllocator@shdfnd@2@@shdfnd@2@AEAIAEAUPxBounds3V@2@I@Z 00000001800522b8     RTreeCooking.obj
 0002:0000d2d0       $chain$0$?growAndPushBack@?$Array@URTreeNodeNQ@physx@@VNamedAllocator@shdfnd@2@@shdfnd@physx@@IEAAAEAURTreeNodeNQ@3@AEBU43@@Z 00000001800522d0     RTreeCooking.obj
 0002:0000d2e4       $chain$1$?growAndPushBack@?$Array@URTreeNodeNQ@physx@@VNamedAllocator@shdfnd@2@@shdfnd@physx@@IEAAAEAURTreeNodeNQ@3@AEBU43@@Z 00000001800522e4     RTreeCooking.obj
 0002:0000d2f8       $chain$2$?growAndPushBack@?$Array@URTreeNodeNQ@physx@@VNamedAllocator@shdfnd@2@@shdfnd@physx@@IEAAAEAURTreeNodeNQ@3@AEBU43@@Z 00000001800522f8     RTreeCooking.obj
 0002:0000d308       $chain$3$?growAndPushBack@?$Array@URTreeNodeNQ@physx@@VNamedAllocator@shdfnd@2@@shdfnd@physx@@IEAAAEAURTreeNodeNQ@3@AEBU43@@Z 0000000180052308     RTreeCooking.obj
 0002:0000d318       $chain$0$?recreate@?$Array@URTreeNodeNQ@physx@@VNamedAllocator@shdfnd@2@@shdfnd@physx@@IEAAXI@Z 0000000180052318     RTreeCooking.obj
 0002:0000d32c       $chain$1$?recreate@?$Array@URTreeNodeNQ@physx@@VNamedAllocator@shdfnd@2@@shdfnd@physx@@IEAAXI@Z 000000018005232c     RTreeCooking.obj
 0002:0000d33c       $unwind$??$quickSelectFirstK@UBoundsLTE@physx@@@quickSelect@physx@@YAXPEIAIIIIAEBUBoundsLTE@1@@Z 000000018005233c     RTreeCooking.obj
 0002:0000d354       $unwind$?split@SubSortSAH@physx@@QEAAIPEAII@Z 0000000180052354     RTreeCooking.obj
 0002:0000d360       $chain$5$?split@SubSortSAH@physx@@QEAAIPEAII@Z 0000000180052360     RTreeCooking.obj
 0002:0000d388       $chain$6$?split@SubSortSAH@physx@@QEAAIPEAII@Z 0000000180052388     RTreeCooking.obj
 0002:0000d39c       $chain$7$?split@SubSortSAH@physx@@QEAAIPEAII@Z 000000018005239c     RTreeCooking.obj
 0002:0000d39c       $chain$9$?split@SubSortSAH@physx@@QEAAIPEAII@Z 000000018005239c     RTreeCooking.obj
 0002:0000d3ac       $chain$8$?split@SubSortSAH@physx@@QEAAIPEAII@Z 00000001800523ac     RTreeCooking.obj
 0002:0000d3c0       $chain$10$?split@SubSortSAH@physx@@QEAAIPEAII@Z 00000001800523c0     RTreeCooking.obj
 0002:0000d3d4       $unwind$?sort4@SubSortSAH@physx@@QEAAXPEAIIAEAV?$Array@URTreeNodeNQ@physx@@VNamedAllocator@shdfnd@2@@shdfnd@2@AEAIIPEAURTreeNodeNQ@2@@Z 00000001800523d4     RTreeCooking.obj
 0002:0000d400       $unwind$??0?$InlineArray@UInterval@physx@@$0EAA@VNamedAllocator@shdfnd@2@@shdfnd@physx@@QEAA@AEBVNamedAllocator@12@@Z 0000000180052400     RTreeCooking.obj
 0002:0000d410       $unwind$?growAndPushBack@?$Array@UExpandPoint@local@@VNamedAllocator@shdfnd@physx@@@shdfnd@physx@@IEAAAEAUExpandPoint@local@@AEBU45@@Z 0000000180052410     QuickHullConvexHullLib.obj
 0002:0000d410       $unwind$?growAndPushBack@?$Array@URTreeNodeQ@Gu@physx@@VNamedAllocator@shdfnd@3@@shdfnd@physx@@IEAAAEAURTreeNodeQ@Gu@3@AEBU453@@Z 0000000180052410     RTreeCooking.obj
 0002:0000d420       $chain$0$?growAndPushBack@?$Array@URTreeNodeQ@Gu@physx@@VNamedAllocator@shdfnd@3@@shdfnd@physx@@IEAAAEAURTreeNodeQ@Gu@3@AEBU453@@Z 0000000180052420     RTreeCooking.obj
 0002:0000d434       $chain$1$?growAndPushBack@?$Array@URTreeNodeQ@Gu@physx@@VNamedAllocator@shdfnd@3@@shdfnd@physx@@IEAAAEAURTreeNodeQ@Gu@3@AEBU453@@Z 0000000180052434     RTreeCooking.obj
 0002:0000d448       $chain$2$?growAndPushBack@?$Array@URTreeNodeQ@Gu@physx@@VNamedAllocator@shdfnd@3@@shdfnd@physx@@IEAAAEAURTreeNodeQ@Gu@3@AEBU453@@Z 0000000180052448     RTreeCooking.obj
 0002:0000d458       $chain$3$?growAndPushBack@?$Array@URTreeNodeQ@Gu@physx@@VNamedAllocator@shdfnd@3@@shdfnd@physx@@IEAAAEAURTreeNodeQ@Gu@3@AEBU453@@Z 0000000180052458     RTreeCooking.obj
 0002:0000d468       $chain$0$?recreate@?$Array@URTreeNodeQ@Gu@physx@@VNamedAllocator@shdfnd@3@@shdfnd@physx@@IEAAXI@Z 0000000180052468     RTreeCooking.obj
 0002:0000d47c       $chain$1$?recreate@?$Array@URTreeNodeQ@Gu@physx@@VNamedAllocator@shdfnd@3@@shdfnd@physx@@IEAAXI@Z 000000018005247c     RTreeCooking.obj
 0002:0000d48c       $unwind$??$sort@IU?$Less@I@shdfnd@physx@@VNamedAllocator@23@@shdfnd@physx@@YAXPEAIIAEBU?$Less@I@01@AEBVNamedAllocator@01@I@Z 000000018005248c     RTreeCooking.obj
 0002:0000d4ac       $unwind$??$sort@IUSortBoundsPredicate@physx@@VNamedAllocator@shdfnd@2@@shdfnd@physx@@YAXPEAIIAEBUSortBoundsPredicate@1@AEBVNamedAllocator@01@I@Z 00000001800524ac     RTreeCooking.obj
 0002:0000d4cc       $unwind$??$smallSort@I$$CBUSortBoundsPredicate@physx@@@internal@shdfnd@physx@@YAXPEAIHHAEBUSortBoundsPredicate@2@@Z 00000001800524cc     RTreeCooking.obj
 0002:0000d4d8       $chain$6$??$smallSort@I$$CBUSortBoundsPredicate@physx@@@internal@shdfnd@physx@@YAXPEAIHHAEBUSortBoundsPredicate@2@@Z 00000001800524d8     RTreeCooking.obj
 0002:0000d504       $chain$7$??$smallSort@I$$CBUSortBoundsPredicate@physx@@@internal@shdfnd@physx@@YAXPEAIHHAEBUSortBoundsPredicate@2@@Z 0000000180052504     RTreeCooking.obj
 0002:0000d514       $unwind$?preallocate@QuickHull@local@@QEAAXI@Z 0000000180052514     QuickHullConvexHullLib.obj
 0002:0000d514       $unwind$?allocateVertices@MeshDataBase@Gu@physx@@QEAAPEAVPxVec3@3@I@Z 0000000180052514     TriangleMeshBuilder.obj
 0002:0000d524       $unwind$?allocateTriangles@TriangleMeshData@Gu@physx@@QEAAPEAXI_NI@Z 0000000180052524     TriangleMeshBuilder.obj
 0002:0000d538       $chain$0$??$?_UG@@YAPEAX_KV?$ReflectionAllocator@G@shdfnd@physx@@PEBDH@Z 0000000180052538     TriangleMeshBuilder.obj
 0002:0000d54c       $chain$1$??$?_UG@@YAPEAX_KV?$ReflectionAllocator@G@shdfnd@physx@@PEBDH@Z 000000018005254c     TriangleMeshBuilder.obj
 0002:0000d55c       $chain$0$??1RTreeTriangleData@Gu@physx@@UEAA@XZ 000000018005255c     TriangleMeshBuilder.obj
 0002:0000d570       $chain$1$??1RTreeTriangleData@Gu@physx@@UEAA@XZ 0000000180052570     TriangleMeshBuilder.obj
 0002:0000d580       $unwind$?cleanMesh@TriangleMeshBuilder@physx@@QEAA_N_NPEAW4Enum@PxTriangleMeshCookingResult@2@@Z 0000000180052580     TriangleMeshBuilder.obj
 0002:0000d594       $chain$1$?cleanMesh@TriangleMeshBuilder@physx@@QEAA_N_NPEAW4Enum@PxTriangleMeshCookingResult@2@@Z 0000000180052594     TriangleMeshBuilder.obj
 0002:0000d5ac       $chain$2$?cleanMesh@TriangleMeshBuilder@physx@@QEAA_N_NPEAW4Enum@PxTriangleMeshCookingResult@2@@Z 00000001800525ac     TriangleMeshBuilder.obj
 0002:0000d5c0       $chain$3$?cleanMesh@TriangleMeshBuilder@physx@@QEAA_N_NPEAW4Enum@PxTriangleMeshCookingResult@2@@Z 00000001800525c0     TriangleMeshBuilder.obj
 0002:0000d5d0       $chain$7$?cleanMesh@TriangleMeshBuilder@physx@@QEAA_N_NPEAW4Enum@PxTriangleMeshCookingResult@2@@Z 00000001800525d0     TriangleMeshBuilder.obj
 0002:0000d5ec       $chain$4$?cleanMesh@TriangleMeshBuilder@physx@@QEAA_N_NPEAW4Enum@PxTriangleMeshCookingResult@2@@Z 00000001800525ec     TriangleMeshBuilder.obj
 0002:0000d600       $chain$8$?cleanMesh@TriangleMeshBuilder@physx@@QEAA_N_NPEAW4Enum@PxTriangleMeshCookingResult@2@@Z 0000000180052600     TriangleMeshBuilder.obj
 0002:0000d610       $unwind$?remapTopology@TriangleMeshBuilder@physx@@QEAAXPEBI@Z 0000000180052610     TriangleMeshBuilder.obj
 0002:0000d61c       $chain$3$?remapTopology@TriangleMeshBuilder@physx@@QEAAXPEBI@Z 000000018005261c     TriangleMeshBuilder.obj
 0002:0000d63c       $chain$4$?remapTopology@TriangleMeshBuilder@physx@@QEAAXPEBI@Z 000000018005263c     TriangleMeshBuilder.obj
 0002:0000d650       $chain$5$?remapTopology@TriangleMeshBuilder@physx@@QEAAXPEBI@Z 0000000180052650     TriangleMeshBuilder.obj
 0002:0000d660       $chain$6$?remapTopology@TriangleMeshBuilder@physx@@QEAAXPEBI@Z 0000000180052660     TriangleMeshBuilder.obj
 0002:0000d670       $unwind$?createSharedEdgeData@TriangleMeshBuilder@physx@@QEAAX_N0@Z 0000000180052670     TriangleMeshBuilder.obj
 0002:0000d67c       $chain$3$?createSharedEdgeData@TriangleMeshBuilder@physx@@QEAAX_N0@Z 000000018005267c     TriangleMeshBuilder.obj
 0002:0000d69c       $chain$4$?createSharedEdgeData@TriangleMeshBuilder@physx@@QEAAX_N0@Z 000000018005269c     TriangleMeshBuilder.obj
 0002:0000d6b0       $chain$5$?createSharedEdgeData@TriangleMeshBuilder@physx@@QEAAX_N0@Z 00000001800526b0     TriangleMeshBuilder.obj
 0002:0000d6c0       $chain$6$?createSharedEdgeData@TriangleMeshBuilder@physx@@QEAAX_N0@Z 00000001800526c0     TriangleMeshBuilder.obj
 0002:0000d6d0       $unwind$?createGRBMidPhaseAndData@TriangleMeshBuilder@physx@@QEAAXI@Z 00000001800526d0     TriangleMeshBuilder.obj
 0002:0000d6dc       $chain$0$?createGRBMidPhaseAndData@TriangleMeshBuilder@physx@@QEAAXI@Z 00000001800526dc     TriangleMeshBuilder.obj
 0002:0000d6f0       $chain$1$?createGRBMidPhaseAndData@TriangleMeshBuilder@physx@@QEAAXI@Z 00000001800526f0     TriangleMeshBuilder.obj
 0002:0000d704       $chain$4$?createGRBMidPhaseAndData@TriangleMeshBuilder@physx@@QEAAXI@Z 0000000180052704     TriangleMeshBuilder.obj
 0002:0000d720       $chain$5$?createGRBMidPhaseAndData@TriangleMeshBuilder@physx@@QEAAXI@Z 0000000180052720     TriangleMeshBuilder.obj
 0002:0000d738       $chain$6$?createGRBMidPhaseAndData@TriangleMeshBuilder@physx@@QEAAXI@Z 0000000180052738     TriangleMeshBuilder.obj
 0002:0000d748       $chain$7$?createGRBMidPhaseAndData@TriangleMeshBuilder@physx@@QEAAXI@Z 0000000180052748     TriangleMeshBuilder.obj
 0002:0000d758       $chain$8$?createGRBMidPhaseAndData@TriangleMeshBuilder@physx@@QEAAXI@Z 0000000180052758     TriangleMeshBuilder.obj
 0002:0000d768       $unwind$?loadFromDesc@TriangleMeshBuilder@physx@@QEAA_NAEBVPxTriangleMeshDesc@2@PEAW4Enum@PxTriangleMeshCookingResult@2@_N@Z 0000000180052768     TriangleMeshBuilder.obj
 0002:0000d778       $chain$1$?loadFromDesc@TriangleMeshBuilder@physx@@QEAA_NAEBVPxTriangleMeshDesc@2@PEAW4Enum@PxTriangleMeshCookingResult@2@_N@Z 0000000180052778     TriangleMeshBuilder.obj
 0002:0000d790       $chain$2$?loadFromDesc@TriangleMeshBuilder@physx@@QEAA_NAEBVPxTriangleMeshDesc@2@PEAW4Enum@PxTriangleMeshCookingResult@2@_N@Z 0000000180052790     TriangleMeshBuilder.obj
 0002:0000d7a4       $chain$3$?loadFromDesc@TriangleMeshBuilder@physx@@QEAA_NAEBVPxTriangleMeshDesc@2@PEAW4Enum@PxTriangleMeshCookingResult@2@_N@Z 00000001800527a4     TriangleMeshBuilder.obj
 0002:0000d7b4       $chain$5$?loadFromDesc@TriangleMeshBuilder@physx@@QEAA_NAEBVPxTriangleMeshDesc@2@PEAW4Enum@PxTriangleMeshCookingResult@2@_N@Z 00000001800527b4     TriangleMeshBuilder.obj
 0002:0000d7cc       $chain$6$?loadFromDesc@TriangleMeshBuilder@physx@@QEAA_NAEBVPxTriangleMeshDesc@2@PEAW4Enum@PxTriangleMeshCookingResult@2@_N@Z 00000001800527cc     TriangleMeshBuilder.obj
 0002:0000d7dc       $unwind$?save@TriangleMeshBuilder@physx@@QEBA_NAEAVPxOutputStream@2@_NAEBUPxCookingParams@2@@Z 00000001800527dc     TriangleMeshBuilder.obj
 0002:0000d7f8       $chain$3$?save@TriangleMeshBuilder@physx@@QEBA_NAEAVPxOutputStream@2@_NAEBUPxCookingParams@2@@Z 00000001800527f8     TriangleMeshBuilder.obj
 0002:0000d80c       $unwind$?checkMeshIndicesSize@TriangleMeshBuilder@physx@@QEAAXXZ 000000018005280c     TriangleMeshBuilder.obj
 0002:0000d818       $chain$1$?checkMeshIndicesSize@TriangleMeshBuilder@physx@@QEAAXXZ 0000000180052818     TriangleMeshBuilder.obj
 0002:0000d830       $chain$2$?checkMeshIndicesSize@TriangleMeshBuilder@physx@@QEAAXXZ 0000000180052830     TriangleMeshBuilder.obj
 0002:0000d844       $chain$3$?checkMeshIndicesSize@TriangleMeshBuilder@physx@@QEAAXXZ 0000000180052844     TriangleMeshBuilder.obj
 0002:0000d854       $chain$4$?checkMeshIndicesSize@TriangleMeshBuilder@physx@@QEAAXXZ 0000000180052854     TriangleMeshBuilder.obj
 0002:0000d864       $unwind$?importMesh@TriangleMeshBuilder@physx@@IEAA_NAEBVPxTriangleMeshDesc@2@AEBUPxCookingParams@2@PEAW4Enum@PxTriangleMeshCookingResult@2@_N@Z 0000000180052864     TriangleMeshBuilder.obj
 0002:0000d880       $unwind$?createMidPhaseStructure@RTreeTriangleMeshBuilder@physx@@UEAAXXZ 0000000180052880     TriangleMeshBuilder.obj
 0002:0000d894       $unwind$?saveMidPhaseStructure@RTreeTriangleMeshBuilder@physx@@UEBAXAEAVPxOutputStream@2@_N@Z 0000000180052894     TriangleMeshBuilder.obj
 0002:0000d8a4       $chain$0$?saveMidPhaseStructure@RTreeTriangleMeshBuilder@physx@@UEBAXAEAVPxOutputStream@2@_N@Z 00000001800528a4     TriangleMeshBuilder.obj
 0002:0000d8b8       $chain$1$?saveMidPhaseStructure@RTreeTriangleMeshBuilder@physx@@UEBAXAEAVPxOutputStream@2@_N@Z 00000001800528b8     TriangleMeshBuilder.obj
 0002:0000d8c8       $unwind$?createMidPhaseStructure@BV4TriangleMeshBuilder@physx@@UEAAXXZ 00000001800528c8     TriangleMeshBuilder.obj
 0002:0000d8d4       $chain$2$?createMidPhaseStructure@BV4TriangleMeshBuilder@physx@@UEAAXXZ 00000001800528d4     TriangleMeshBuilder.obj
 0002:0000d8f0       $chain$3$?createMidPhaseStructure@BV4TriangleMeshBuilder@physx@@UEAAXXZ 00000001800528f0     TriangleMeshBuilder.obj
 0002:0000d904       $chain$4$?createMidPhaseStructure@BV4TriangleMeshBuilder@physx@@UEAAXXZ 0000000180052904     TriangleMeshBuilder.obj
 0002:0000d914       $chain$5$?createMidPhaseStructure@BV4TriangleMeshBuilder@physx@@UEAAXXZ 0000000180052914     TriangleMeshBuilder.obj
 0002:0000d928       $unwind$?saveMidPhaseStructure@BV4TriangleMeshBuilder@physx@@UEBAXAEAVPxOutputStream@2@_N@Z 0000000180052928     TriangleMeshBuilder.obj
 0002:0000d934       $unwind$?findAdjacent@physx@@YAIPEBVPxVec3@1@0PEBUuint3@1@IIIAEBVPxPlane@1@PEAUEdgeTriLookup@1@I@Z 0000000180052934     TriangleMeshBuilder.obj
 0002:0000d958       $unwind$?buildAdjacencies@physx@@YAXPEAUuint4@1@PEAVPxVec3@1@PEBV31@PEBUuint3@1@I@Z 0000000180052958     TriangleMeshBuilder.obj
 0002:0000d964       $chain$6$?buildAdjacencies@physx@@YAXPEAUuint4@1@PEAVPxVec3@1@PEBV31@PEBUuint3@1@I@Z 0000000180052964     TriangleMeshBuilder.obj
 0002:0000d990       $chain$10$?buildAdjacencies@physx@@YAXPEAUuint4@1@PEAVPxVec3@1@PEBV31@PEBUuint3@1@I@Z 0000000180052990     TriangleMeshBuilder.obj
 0002:0000d9b0       $chain$11$?buildAdjacencies@physx@@YAXPEAUuint4@1@PEAVPxVec3@1@PEBV31@PEBUuint3@1@I@Z 00000001800529b0     TriangleMeshBuilder.obj
 0002:0000d9c0       $chain$12$?buildAdjacencies@physx@@YAXPEAUuint4@1@PEAVPxVec3@1@PEBV31@PEBUuint3@1@I@Z 00000001800529c0     TriangleMeshBuilder.obj
 0002:0000d9d4       $chain$13$?buildAdjacencies@physx@@YAXPEAUuint4@1@PEAVPxVec3@1@PEBV31@PEBUuint3@1@I@Z 00000001800529d4     TriangleMeshBuilder.obj
 0002:0000d9e4       $chain$14$?buildAdjacencies@physx@@YAXPEAUuint4@1@PEAVPxVec3@1@PEBV31@PEBUuint3@1@I@Z 00000001800529e4     TriangleMeshBuilder.obj
 0002:0000d9f4       $unwind$??$sort@UEdgeTriLookup@physx@@U?$Less@UEdgeTriLookup@physx@@@shdfnd@2@VNamedAllocator@42@@shdfnd@physx@@YAXPEAUEdgeTriLookup@1@IAEBU?$Less@UEdgeTriLookup@physx@@@01@AEBVNamedAllocator@01@I@Z 00000001800529f4     TriangleMeshBuilder.obj
 0002:0000da14       $unwind$?precompute@BigConvexDataBuilder@physx@@QEAA_NI@Z 0000000180052a14     BigConvexDataBuilder.obj
 0002:0000da2c       $chain$10$?precompute@BigConvexDataBuilder@physx@@QEAA_NI@Z 0000000180052a2c     BigConvexDataBuilder.obj
 0002:0000da68       $chain$11$?precompute@BigConvexDataBuilder@physx@@QEAA_NI@Z 0000000180052a68     BigConvexDataBuilder.obj
 0002:0000da78       $unwind$?save@BigConvexDataBuilder@physx@@QEBA_NAEAVPxOutputStream@2@_N@Z 0000000180052a78     BigConvexDataBuilder.obj
 0002:0000da88       $chain$0$?save@BigConvexDataBuilder@physx@@QEBA_NAEAVPxOutputStream@2@_N@Z 0000000180052a88     BigConvexDataBuilder.obj
 0002:0000da9c       $chain$1$?save@BigConvexDataBuilder@physx@@QEBA_NAEAVPxOutputStream@2@_N@Z 0000000180052a9c     BigConvexDataBuilder.obj
 0002:0000dab0       $chain$2$?save@BigConvexDataBuilder@physx@@QEBA_NAEAVPxOutputStream@2@_N@Z 0000000180052ab0     BigConvexDataBuilder.obj
 0002:0000dac0       $chain$3$?save@BigConvexDataBuilder@physx@@QEBA_NAEAVPxOutputStream@2@_N@Z 0000000180052ac0     BigConvexDataBuilder.obj
 0002:0000dad0       $unwind$?computeValencies@BigConvexDataBuilder@physx@@QEAA_NAEBVConvexHullBuilder@2@@Z 0000000180052ad0     BigConvexDataBuilder.obj
 0002:0000dae4       $chain$2$?computeValencies@BigConvexDataBuilder@physx@@QEAA_NAEBVConvexHullBuilder@2@@Z 0000000180052ae4     BigConvexDataBuilder.obj
 0002:0000db00       $chain$3$?computeValencies@BigConvexDataBuilder@physx@@QEAA_NAEBVConvexHullBuilder@2@@Z 0000000180052b00     BigConvexDataBuilder.obj
 0002:0000db10       $unwind$?init@ConvexHullBuilder@physx@@QEAA_NIPEBVPxVec3@2@PEBIIIPEBUPxHullPolygon@2@_NPEAVConvexHullLib@2@@Z 0000000180052b10     ConvexHullBuilder.obj
 0002:0000db28       $chain$0$?init@ConvexHullBuilder@physx@@QEAA_NIPEBVPxVec3@2@PEBIIIPEBUPxHullPolygon@2@_NPEAVConvexHullLib@2@@Z 0000000180052b28     ConvexHullBuilder.obj
 0002:0000db3c       $chain$2$?init@ConvexHullBuilder@physx@@QEAA_NIPEBVPxVec3@2@PEBIIIPEBUPxHullPolygon@2@_NPEAVConvexHullLib@2@@Z 0000000180052b3c     ConvexHullBuilder.obj
 0002:0000db54       $chain$7$?init@ConvexHullBuilder@physx@@QEAA_NIPEBVPxVec3@2@PEBIIIPEBUPxHullPolygon@2@_NPEAVConvexHullLib@2@@Z 0000000180052b54     ConvexHullBuilder.obj
 0002:0000db78       $chain$9$?init@ConvexHullBuilder@physx@@QEAA_NIPEBVPxVec3@2@PEBIIIPEBUPxHullPolygon@2@_NPEAVConvexHullLib@2@@Z 0000000180052b78     ConvexHullBuilder.obj
 0002:0000db90       $chain$10$?init@ConvexHullBuilder@physx@@QEAA_NIPEBVPxVec3@2@PEBIIIPEBUPxHullPolygon@2@_NPEAVConvexHullLib@2@@Z 0000000180052b90     ConvexHullBuilder.obj
 0002:0000dba4       $chain$11$?init@ConvexHullBuilder@physx@@QEAA_NIPEBVPxVec3@2@PEBIIIPEBUPxHullPolygon@2@_NPEAVConvexHullLib@2@@Z 0000000180052ba4     ConvexHullBuilder.obj
 0002:0000dbb4       $chain$12$?init@ConvexHullBuilder@physx@@QEAA_NIPEBVPxVec3@2@PEBIIIPEBUPxHullPolygon@2@_NPEAVConvexHullLib@2@@Z 0000000180052bb4     ConvexHullBuilder.obj
 0002:0000dbc4       $chain$13$?init@ConvexHullBuilder@physx@@QEAA_NIPEBVPxVec3@2@PEBIIIPEBUPxHullPolygon@2@_NPEAVConvexHullLib@2@@Z 0000000180052bc4     ConvexHullBuilder.obj
 0002:0000dbd4       $chain$14$?init@ConvexHullBuilder@physx@@QEAA_NIPEBVPxVec3@2@PEBIIIPEBUPxHullPolygon@2@_NPEAVConvexHullLib@2@@Z 0000000180052bd4     ConvexHullBuilder.obj
 0002:0000dbe4       $chain$15$?init@ConvexHullBuilder@physx@@QEAA_NIPEBVPxVec3@2@PEBIIIPEBUPxHullPolygon@2@_NPEAVConvexHullLib@2@@Z 0000000180052be4     ConvexHullBuilder.obj
 0002:0000dbf4       $chain$16$?init@ConvexHullBuilder@physx@@QEAA_NIPEBVPxVec3@2@PEBIIIPEBUPxHullPolygon@2@_NPEAVConvexHullLib@2@@Z 0000000180052bf4     ConvexHullBuilder.obj
 0002:0000dc10       $chain$17$?init@ConvexHullBuilder@physx@@QEAA_NIPEBVPxVec3@2@PEBIIIPEBUPxHullPolygon@2@_NPEAVConvexHullLib@2@@Z 0000000180052c10     ConvexHullBuilder.obj
 0002:0000dc24       $unwind$?save@ConvexHullBuilder@physx@@QEBA_NAEAVPxOutputStream@2@_N@Z 0000000180052c24     ConvexHullBuilder.obj
 0002:0000dc34       $chain$0$?save@ConvexHullBuilder@physx@@QEBA_NAEAVPxOutputStream@2@_N@Z 0000000180052c34     ConvexHullBuilder.obj
 0002:0000dc48       $chain$3$?save@ConvexHullBuilder@physx@@QEBA_NAEAVPxOutputStream@2@_N@Z 0000000180052c48     ConvexHullBuilder.obj
 0002:0000dc64       $chain$4$?save@ConvexHullBuilder@physx@@QEBA_NAEAVPxOutputStream@2@_N@Z 0000000180052c64     ConvexHullBuilder.obj
 0002:0000dc78       $chain$5$?save@ConvexHullBuilder@physx@@QEBA_NAEAVPxOutputStream@2@_N@Z 0000000180052c78     ConvexHullBuilder.obj
 0002:0000dc88       $unwind$?copy@ConvexHullBuilder@physx@@QEAA_NAEAUConvexHullData@Gu@2@AEAI@Z 0000000180052c88     ConvexHullBuilder.obj
 0002:0000dca4       $unwind$?createEdgeList@ConvexHullBuilder@physx@@QEAA_N_NI@Z 0000000180052ca4     ConvexHullBuilder.obj
 0002:0000dcb4       $chain$4$?createEdgeList@ConvexHullBuilder@physx@@QEAA_N_NI@Z 0000000180052cb4     ConvexHullBuilder.obj
 0002:0000dcd8       $chain$6$?createEdgeList@ConvexHullBuilder@physx@@QEAA_N_NI@Z 0000000180052cd8     ConvexHullBuilder.obj
 0002:0000dcfc       $unwind$?checkHullPolygons@ConvexHullBuilder@physx@@QEBA_NXZ 0000000180052cfc     ConvexHullBuilder.obj
 0002:0000dd08       $chain$14$?checkHullPolygons@ConvexHullBuilder@physx@@QEBA_NXZ 0000000180052d08     ConvexHullBuilder.obj
 0002:0000dd54       $chain$16$?checkHullPolygons@ConvexHullBuilder@physx@@QEBA_NXZ 0000000180052d54     ConvexHullBuilder.obj
 0002:0000dda0       $chain$17$?checkHullPolygons@ConvexHullBuilder@physx@@QEBA_NXZ 0000000180052da0     ConvexHullBuilder.obj
 0002:0000ddb0       $unwind$?calculateVertexMapTable@ConvexHullBuilder@physx@@QEAA_NI_N@Z 0000000180052db0     ConvexHullBuilder.obj
 0002:0000ddcc       $unwind$?computeGeomCenter@ConvexHullBuilder@physx@@IEBA_NAEAVPxVec3@2@IPEAUHullTriangleData@2@@Z 0000000180052dcc     ConvexHullBuilder.obj
 0002:0000ddd4       $chain$1$?computeGeomCenter@ConvexHullBuilder@physx@@IEBA_NAEAVPxVec3@2@IPEAUHullTriangleData@2@@Z 0000000180052dd4     ConvexHullBuilder.obj
 0002:0000ddec       $chain$10$?computeGeomCenter@ConvexHullBuilder@physx@@IEBA_NAEAVPxVec3@2@IPEAUHullTriangleData@2@@Z 0000000180052dec     ConvexHullBuilder.obj
 0002:0000de20       $chain$11$?computeGeomCenter@ConvexHullBuilder@physx@@IEBA_NAEAVPxVec3@2@IPEAUHullTriangleData@2@@Z 0000000180052e20     ConvexHullBuilder.obj
 0002:0000de30       $chain$12$?computeGeomCenter@ConvexHullBuilder@physx@@IEBA_NAEAVPxVec3@2@IPEAUHullTriangleData@2@@Z 0000000180052e30     ConvexHullBuilder.obj
 0002:0000de40       $chain$0$??$?_UE@@YAPEAX_KV?$ReflectionAllocator@E@shdfnd@physx@@PEBDH@Z 0000000180052e40     ConvexHullBuilder.obj
 0002:0000de54       $chain$1$??$?_UE@@YAPEAX_KV?$ReflectionAllocator@E@shdfnd@physx@@PEBDH@Z 0000000180052e54     ConvexHullBuilder.obj
 0002:0000de64       $unwind$?cleanupVertices@ConvexHullLib@physx@@IEAA_NIPEBVPxVec3@2@IAEAIPEAV32@AEAV32@3@Z 0000000180052e64     ConvexHullLib.obj
 0002:0000de8c       $chain$6$?cleanupVertices@ConvexHullLib@physx@@IEAA_NIPEBVPxVec3@2@IAEAIPEAV32@AEAV32@3@Z 0000000180052e8c     ConvexHullLib.obj
 0002:0000dea4       $chain$12$?cleanupVertices@ConvexHullLib@physx@@IEAA_NIPEBVPxVec3@2@IAEAIPEAV32@AEAV32@3@Z 0000000180052ea4     ConvexHullLib.obj
 0002:0000decc       $chain$13$?cleanupVertices@ConvexHullLib@physx@@IEAA_NIPEBVPxVec3@2@IAEAIPEAV32@AEAV32@3@Z 0000000180052ecc     ConvexHullLib.obj
 0002:0000dedc       $chain$14$?cleanupVertices@ConvexHullLib@physx@@IEAA_NIPEBVPxVec3@2@IAEAIPEAV32@AEAV32@3@Z 0000000180052edc     ConvexHullLib.obj
 0002:0000deec       $unwind$?shiftAndcleanupVertices@ConvexHullLib@physx@@IEAA_NIPEBVPxVec3@2@IAEAIPEAV32@AEAV32@3@Z 0000000180052eec     ConvexHullLib.obj
 0002:0000defc       $chain$6$?shiftAndcleanupVertices@ConvexHullLib@physx@@IEAA_NIPEBVPxVec3@2@IAEAIPEAV32@AEAV32@3@Z 0000000180052efc     ConvexHullLib.obj
 0002:0000df28       $chain$7$?shiftAndcleanupVertices@ConvexHullLib@physx@@IEAA_NIPEBVPxVec3@2@IAEAIPEAV32@AEAV32@3@Z 0000000180052f28     ConvexHullLib.obj
 0002:0000df4c       $chain$12$?shiftAndcleanupVertices@ConvexHullLib@physx@@IEAA_NIPEBVPxVec3@2@IAEAIPEAV32@AEAV32@3@Z 0000000180052f4c     ConvexHullLib.obj
 0002:0000df70       $chain$13$?shiftAndcleanupVertices@ConvexHullLib@physx@@IEAA_NIPEBVPxVec3@2@IAEAIPEAV32@AEAV32@3@Z 0000000180052f70     ConvexHullLib.obj
 0002:0000df80       $chain$14$?shiftAndcleanupVertices@ConvexHullLib@physx@@IEAA_NIPEBVPxVec3@2@IAEAIPEAV32@AEAV32@3@Z 0000000180052f80     ConvexHullLib.obj
 0002:0000df90       $unwind$?swapLargestFace@ConvexHullLib@physx@@IEAAXAEAVPxConvexMeshDesc@2@@Z 0000000180052f90     ConvexHullLib.obj
 0002:0000dfa0       $chain$1$?swapLargestFace@ConvexHullLib@physx@@IEAAXAEAVPxConvexMeshDesc@2@@Z 0000000180052fa0     ConvexHullLib.obj
 0002:0000dfb8       $chain$2$?swapLargestFace@ConvexHullLib@physx@@IEAAXAEAVPxConvexMeshDesc@2@@Z 0000000180052fb8     ConvexHullLib.obj
 0002:0000dfcc       $chain$3$?swapLargestFace@ConvexHullLib@physx@@IEAAXAEAVPxConvexMeshDesc@2@@Z 0000000180052fcc     ConvexHullLib.obj
 0002:0000dfdc       $chain$4$?swapLargestFace@ConvexHullLib@physx@@IEAAXAEAVPxConvexMeshDesc@2@@Z 0000000180052fdc     ConvexHullLib.obj
 0002:0000dfec       $unwind$?checkPointsAABBValidity@local@@YA_NIPEBVPxVec3@physx@@IMMAEAV23@1AEAIPEAV23@_N@Z 0000000180052fec     ConvexHullLib.obj
 0002:0000e008       $chain$5$?checkPointsAABBValidity@local@@YA_NIPEBVPxVec3@physx@@IMMAEAV23@1AEAIPEAV23@_N@Z 0000000180053008     ConvexHullLib.obj
 0002:0000e030       $chain$6$?checkPointsAABBValidity@local@@YA_NIPEBVPxVec3@physx@@IMMAEAV23@1AEAIPEAV23@_N@Z 0000000180053030     ConvexHullLib.obj
 0002:0000e040       $unwind$??0PxQuat@physx@@QEAA@AEBVPxMat33@1@@Z 0000000180053040     ConvexHullUtils.obj
 0002:0000e040       $unwind$?UScore@UnDecorator@@SA?AUStringLiteral@@W4Tokens@@@Z 0000000180053040     libvcruntime:undname.obj
 0002:0000e048       $chain$0$??0PxQuat@physx@@QEAA@AEBVPxMat33@1@@Z 0000000180053048     ConvexHullUtils.obj
 0002:0000e05c       $chain$1$??0PxQuat@physx@@QEAA@AEBVPxMat33@1@@Z 000000018005305c     ConvexHullUtils.obj
 0002:0000e06c       $unwind$?getInverse@PxMat33@physx@@QEBA?BV12@XZ 000000018005306c     ConvexHullUtils.obj
 0002:0000e08c       $chain$1$?getInverse@PxMat33@physx@@QEBA?BV12@XZ 000000018005308c     ConvexHullUtils.obj
 0002:0000e0a4       $chain$2$?getInverse@PxMat33@physx@@QEBA?BV12@XZ 00000001800530a4     ConvexHullUtils.obj
 0002:0000e0b4       $unwind$??0ConvexHull@physx@@QEAA@AEBVPxVec3@1@AEBVPxTransform@1@AEBV?$Array@VPxPlane@physx@@VNamedAllocator@shdfnd@2@@shdfnd@1@@Z 00000001800530b4     ConvexHullUtils.obj
 0002:0000e0f4       $unwind$?findCandidatePlane@ConvexHull@physx@@QEBAHMM@Z 00000001800530f4     ConvexHullUtils.obj
 0002:0000e10c       $chain$11$?findCandidatePlane@ConvexHull@physx@@QEBAHMM@Z 000000018005310c     ConvexHullUtils.obj
 0002:0000e14c       $chain$12$?findCandidatePlane@ConvexHull@physx@@QEBAHMM@Z 000000018005314c     ConvexHullUtils.obj
 0002:0000e15c       $chain$13$?findCandidatePlane@ConvexHull@physx@@QEBAHMM@Z 000000018005315c     ConvexHullUtils.obj
 0002:0000e19c       $unwind$?assertIntact@ConvexHull@physx@@QEBA_NM@Z 000000018005319c     ConvexHullUtils.obj
 0002:0000e1e0       $unwind$?maxNumVertsPerFace@ConvexHull@physx@@QEBAIXZ 00000001800531e0     ConvexHullUtils.obj
 0002:0000e1ec       $chain$0$?maxNumVertsPerFace@ConvexHull@physx@@QEBAIXZ 00000001800531ec     ConvexHullUtils.obj
 0002:0000e200       $chain$1$?maxNumVertsPerFace@ConvexHull@physx@@QEBAIXZ 0000000180053200     ConvexHullUtils.obj
 0002:0000e210       $chain$0$?growAndPushBack@?$Array@VPxPlane@physx@@VNamedAllocator@shdfnd@2@@shdfnd@physx@@IEAAAEAVPxPlane@3@AEBV43@@Z 0000000180053210     ConvexHullUtils.obj
 0002:0000e224       $chain$1$?growAndPushBack@?$Array@VPxPlane@physx@@VNamedAllocator@shdfnd@2@@shdfnd@physx@@IEAAAEAVPxPlane@3@AEBV43@@Z 0000000180053224     ConvexHullUtils.obj
 0002:0000e238       $chain$2$?growAndPushBack@?$Array@VPxPlane@physx@@VNamedAllocator@shdfnd@2@@shdfnd@physx@@IEAAAEAVPxPlane@3@AEBV43@@Z 0000000180053238     ConvexHullUtils.obj
 0002:0000e248       $chain$3$?growAndPushBack@?$Array@VPxPlane@physx@@VNamedAllocator@shdfnd@2@@shdfnd@physx@@IEAAAEAVPxPlane@3@AEBV43@@Z 0000000180053248     ConvexHullUtils.obj
 0002:0000e258       $chain$0$?recreate@?$Array@VPxPlane@physx@@VNamedAllocator@shdfnd@2@@shdfnd@physx@@IEAAXI@Z 0000000180053258     ConvexHullUtils.obj
 0002:0000e26c       $chain$1$?recreate@?$Array@VPxPlane@physx@@VNamedAllocator@shdfnd@2@@shdfnd@physx@@IEAAXI@Z 000000018005326c     ConvexHullUtils.obj
 0002:0000e27c       $unwind$?convexHullCrop@physx@@YAPEAVConvexHull@1@AEBV21@AEBVPxPlane@1@M@Z 000000018005327c     ConvexHullUtils.obj
 0002:0000e288       $chain$7$?convexHullCrop@physx@@YAPEAVConvexHull@1@AEBV21@AEBVPxPlane@1@M@Z 0000000180053288     ConvexHullUtils.obj
 0002:0000e2b8       $chain$8$?convexHullCrop@physx@@YAPEAVConvexHull@1@AEBV21@AEBVPxPlane@1@M@Z 00000001800532b8     ConvexHullUtils.obj
 0002:0000e2cc       $chain$11$?convexHullCrop@physx@@YAPEAVConvexHull@1@AEBV21@AEBVPxPlane@1@M@Z 00000001800532cc     ConvexHullUtils.obj
 0002:0000e2cc       $chain$9$?convexHullCrop@physx@@YAPEAVConvexHull@1@AEBV21@AEBVPxPlane@1@M@Z 00000001800532cc     ConvexHullUtils.obj
 0002:0000e2dc       $chain$10$?convexHullCrop@physx@@YAPEAVConvexHull@1@AEBV21@AEBVPxPlane@1@M@Z 00000001800532dc     ConvexHullUtils.obj
 0002:0000e2f0       $chain$12$?convexHullCrop@physx@@YAPEAVConvexHull@1@AEBV21@AEBVPxPlane@1@M@Z 00000001800532f0     ConvexHullUtils.obj
 0002:0000e300       $unwind$?computeOBBFromConvex@physx@@YA_NAEBVPxConvexMeshDesc@1@AEAVPxVec3@1@AEAVPxTransform@1@@Z 0000000180053300     ConvexHullUtils.obj
 0002:0000e324       $chain$4$?computeOBBFromConvex@physx@@YA_NAEBVPxConvexMeshDesc@1@AEAVPxVec3@1@AEAVPxTransform@1@@Z 0000000180053324     ConvexHullUtils.obj
 0002:0000e348       $chain$5$?computeOBBFromConvex@physx@@YA_NAEBVPxConvexMeshDesc@1@AEAVPxVec3@1@AEAVPxTransform@1@@Z 0000000180053348     ConvexHullUtils.obj
 0002:0000e358       $unwind$?rotate@Box@Gu@physx@@QEBA?AVPxVec3@3@AEBV43@@Z 0000000180053358     ConvexHullUtils.obj
 0002:0000e364       $unwind$?rotateInv@Box@Gu@physx@@QEBA?AVPxVec3@3@AEBV43@@Z 0000000180053364     ConvexHullUtils.obj
 0002:0000e364       $unwind$?transform@Box@Gu@physx@@QEBA?AVPxVec3@3@AEBV43@@Z 0000000180053364     ConvexHullUtils.obj
 0002:0000e370       $unwind$?computeAABBExtent@Box@Gu@physx@@QEBA?AVPxVec3@3@XZ 0000000180053370     ConvexHullUtils.obj
 0002:0000e37c       $unwind$?computeBoxPoints@Box@Gu@physx@@QEBAXPEIAVPxVec3@3@@Z 000000018005337c     ConvexHullUtils.obj
 0002:0000e37c       $unwind$atol               000000018005337c     libucrt:atox.obj
 0002:0000e37c       $unwind$strtol             000000018005337c     libucrt:strtox.obj
 0002:0000e37c       $unwind$_invalid_parameter_noinfo 000000018005337c     libucrt:invalid_parameter.obj
 0002:0000e37c       $unwind$_log10_special     000000018005337c     libucrt:log_special.obj
 0002:0000e384       $unwind$?computeOBBSIMD@local@@YAXIPEBT__m128@@AEAT2@AEBT2@1@Z 0000000180053384     ConvexHullUtils.obj
 0002:0000e3b0       $chain$1$?computeOBBSIMD@local@@YAXIPEBT__m128@@AEAT2@AEBT2@1@Z 00000001800533b0     ConvexHullUtils.obj
 0002:0000e3c8       $chain$2$?computeOBBSIMD@local@@YAXIPEBT__m128@@AEAT2@AEBT2@1@Z 00000001800533c8     ConvexHullUtils.obj
 0002:0000e3d8       $unwind$?build@ConvexMeshBuilder@physx@@QEAA_NAEBVPxConvexMeshDesc@2@I_NPEAVConvexHullLib@2@@Z 00000001800533d8     ConvexMeshBuilder.obj
 0002:0000e3e8       $chain$0$?build@ConvexMeshBuilder@physx@@QEAA_NAEBVPxConvexMeshDesc@2@I_NPEAVConvexHullLib@2@@Z 00000001800533e8     ConvexMeshBuilder.obj
 0002:0000e3fc       $chain$2$?build@ConvexMeshBuilder@physx@@QEAA_NAEBVPxConvexMeshDesc@2@I_NPEAVConvexHullLib@2@@Z 00000001800533fc     ConvexMeshBuilder.obj
 0002:0000e414       $chain$3$?build@ConvexMeshBuilder@physx@@QEAA_NAEBVPxConvexMeshDesc@2@I_NPEAVConvexHullLib@2@@Z 0000000180053414     ConvexMeshBuilder.obj
 0002:0000e424       $chain$4$?build@ConvexMeshBuilder@physx@@QEAA_NAEBVPxConvexMeshDesc@2@I_NPEAVConvexHullLib@2@@Z 0000000180053424     ConvexMeshBuilder.obj
 0002:0000e434       $unwind$?save@ConvexMeshBuilder@physx@@QEBA_NAEAVPxOutputStream@2@_N@Z 0000000180053434     ConvexMeshBuilder.obj
 0002:0000e444       $chain$0$?save@ConvexMeshBuilder@physx@@QEBA_NAEAVPxOutputStream@2@_N@Z 0000000180053444     ConvexMeshBuilder.obj
 0002:0000e458       $chain$1$?save@ConvexMeshBuilder@physx@@QEBA_NAEAVPxOutputStream@2@_N@Z 0000000180053458     ConvexMeshBuilder.obj
 0002:0000e468       $unwind$?loadConvexHull@ConvexMeshBuilder@physx@@QEAA_NAEBVPxConvexMeshDesc@2@PEAVConvexHullLib@2@@Z 0000000180053468     ConvexMeshBuilder.obj
 0002:0000e488       $unwind$?computeHullPolygons@ConvexMeshBuilder@physx@@QEAA_NAEBIPEBVPxVec3@2@0PEBIAEAVPxAllocatorCallback@2@AEAIAEAPEAV32@4AEAPEAI4AEAPEAUPxHullPolygon@2@@Z 0000000180053488     ConvexMeshBuilder.obj
 0002:0000e494       $chain$3$?computeHullPolygons@ConvexMeshBuilder@physx@@QEAA_NAEBIPEBVPxVec3@2@0PEBIAEAVPxAllocatorCallback@2@AEAIAEAPEAV32@4AEAPEAI4AEAPEAUPxHullPolygon@2@@Z 0000000180053494     ConvexMeshBuilder.obj
 0002:0000e4b0       $chain$4$?computeHullPolygons@ConvexMeshBuilder@physx@@QEAA_NAEBIPEBVPxVec3@2@0PEBIAEAVPxAllocatorCallback@2@AEAIAEAPEAV32@4AEAPEAI4AEAPEAUPxHullPolygon@2@@Z 00000001800534b0     ConvexMeshBuilder.obj
 0002:0000e4c4       $unwind$?computeMassInfo@ConvexMeshBuilder@physx@@QEAAX_N@Z 00000001800534c4     ConvexMeshBuilder.obj
 0002:0000e4d4       $chain$0$?computeMassInfo@ConvexMeshBuilder@physx@@QEAAX_N@Z 00000001800534d4     ConvexMeshBuilder.obj
 0002:0000e4e8       $chain$1$?computeMassInfo@ConvexMeshBuilder@physx@@QEAAX_N@Z 00000001800534e8     ConvexMeshBuilder.obj
 0002:0000e4fc       $chain$5$?computeMassInfo@ConvexMeshBuilder@physx@@QEAAX_N@Z 00000001800534fc     ConvexMeshBuilder.obj
 0002:0000e51c       $chain$6$?computeMassInfo@ConvexMeshBuilder@physx@@QEAAX_N@Z 000000018005351c     ConvexMeshBuilder.obj
 0002:0000e52c       $chain$7$?computeMassInfo@ConvexMeshBuilder@physx@@QEAAX_N@Z 000000018005352c     ConvexMeshBuilder.obj
 0002:0000e53c       $chain$8$?computeMassInfo@ConvexMeshBuilder@physx@@QEAAX_N@Z 000000018005353c     ConvexMeshBuilder.obj
 0002:0000e54c       $unwind$?ComputeInternalExtent@@YAXAEAUConvexHullData@Gu@physx@@PEBUHullPolygonData@23@@Z 000000018005354c     ConvexMeshBuilder.obj
 0002:0000e578       $chain$0$?ComputeInternalExtent@@YAXAEAUConvexHullData@Gu@physx@@PEBUHullPolygonData@23@@Z 0000000180053578     ConvexMeshBuilder.obj
 0002:0000e58c       $chain$1$?ComputeInternalExtent@@YAXAEAUConvexHullData@Gu@physx@@PEBUHullPolygonData@23@@Z 000000018005358c     ConvexMeshBuilder.obj
 0002:0000e59c       $unwind$?computeHullPolygons@ConvexPolygonsBuilder@physx@@QEAA_NAEBIPEBVPxVec3@2@0PEBI@Z 000000018005359c     ConvexPolygonsBuilder.obj
 0002:0000e5c0       $chain$0$?computeHullPolygons@ConvexPolygonsBuilder@physx@@QEAA_NAEBIPEBVPxVec3@2@0PEBI@Z 00000001800535c0     ConvexPolygonsBuilder.obj
 0002:0000e5d4       $chain$8$?computeHullPolygons@ConvexPolygonsBuilder@physx@@QEAA_NAEBIPEBVPxVec3@2@0PEBI@Z 00000001800535d4     ConvexPolygonsBuilder.obj
 0002:0000e604       $chain$9$?computeHullPolygons@ConvexPolygonsBuilder@physx@@QEAA_NAEBIPEBVPxVec3@2@0PEBI@Z 0000000180053604     ConvexPolygonsBuilder.obj
 0002:0000e634       $unwind$?createPolygonData@ConvexPolygonsBuilder@physx@@AEAA_NXZ 0000000180053634     ConvexPolygonsBuilder.obj
 0002:0000e640       $chain$7$?createPolygonData@ConvexPolygonsBuilder@physx@@AEAA_NXZ 0000000180053640     ConvexPolygonsBuilder.obj
 0002:0000e670       $chain$8$?createPolygonData@ConvexPolygonsBuilder@physx@@AEAA_NXZ 0000000180053670     ConvexPolygonsBuilder.obj
 0002:0000e680       $chain$9$?createPolygonData@ConvexPolygonsBuilder@physx@@AEAA_NXZ 0000000180053680     ConvexPolygonsBuilder.obj
 0002:0000e6b0       $chain$17$?createPolygonData@ConvexPolygonsBuilder@physx@@AEAA_NXZ 00000001800536b0     ConvexPolygonsBuilder.obj
 0002:0000e6e0       $chain$18$?createPolygonData@ConvexPolygonsBuilder@physx@@AEAA_NXZ 00000001800536e0     ConvexPolygonsBuilder.obj
 0002:0000e6f0       $unwind$?createTrianglesFromPolygons@ConvexPolygonsBuilder@physx@@AEAA_NXZ 00000001800536f0     ConvexPolygonsBuilder.obj
 0002:0000e714       $chain$3$?createTrianglesFromPolygons@ConvexPolygonsBuilder@physx@@AEAA_NXZ 0000000180053714     ConvexPolygonsBuilder.obj
 0002:0000e734       $chain$4$?createTrianglesFromPolygons@ConvexPolygonsBuilder@physx@@AEAA_NXZ 0000000180053734     ConvexPolygonsBuilder.obj
 0002:0000e744       $unwind$?findLineStrip@@YA_NAEAV?$Array@IVNamedAllocator@shdfnd@physx@@@shdfnd@physx@@AEBV?$Array@VPair@@VNamedAllocator@shdfnd@physx@@@23@@Z 0000000180053744     ConvexPolygonsBuilder.obj
 0002:0000e75c       $chain$1$?allocate@?$Array@VPair@@VNamedAllocator@shdfnd@physx@@@shdfnd@physx@@IEAAPEAVPair@@I@Z 000000018005375c     ConvexPolygonsBuilder.obj
 0002:0000e774       $chain$2$?allocate@?$Array@VPair@@VNamedAllocator@shdfnd@physx@@@shdfnd@physx@@IEAAPEAVPair@@I@Z 0000000180053774     ConvexPolygonsBuilder.obj
 0002:0000e784       $chain$0$?growAndPushBack@?$Array@VPair@@VNamedAllocator@shdfnd@physx@@@shdfnd@physx@@IEAAAEAVPair@@AEBV4@@Z 0000000180053784     ConvexPolygonsBuilder.obj
 0002:0000e798       $chain$1$?growAndPushBack@?$Array@VPair@@VNamedAllocator@shdfnd@physx@@@shdfnd@physx@@IEAAAEAVPair@@AEBV4@@Z 0000000180053798     ConvexPolygonsBuilder.obj
 0002:0000e7ac       $chain$2$?growAndPushBack@?$Array@VPair@@VNamedAllocator@shdfnd@physx@@@shdfnd@physx@@IEAAAEAVPair@@AEBV4@@Z 00000001800537ac     ConvexPolygonsBuilder.obj
 0002:0000e7bc       $chain$3$?growAndPushBack@?$Array@VPair@@VNamedAllocator@shdfnd@physx@@@shdfnd@physx@@IEAAAEAVPair@@AEBV4@@Z 00000001800537bc     ConvexPolygonsBuilder.obj
 0002:0000e7cc       $unwind$?TestDuplicateTriangles@@YA_NAEAIPEAU?$TriangleT@I@Gu@physx@@_N@Z 00000001800537cc     ConvexPolygonsBuilder.obj
 0002:0000e7e8       $unwind$?checkRedundantVertices@@YAXAEAIAEAV?$Array@IVNamedAllocator@shdfnd@physx@@@shdfnd@physx@@AEBVConvexPolygonsBuilder@3@11@Z 00000001800537e8     ConvexPolygonsBuilder.obj
 0002:0000e804       $unwind$?extractHullPolygons@@YA_NAEAIAEAV?$Array@IVNamedAllocator@shdfnd@physx@@@shdfnd@physx@@AEBVConvexPolygonsBuilder@3@PEAV123@1@Z 0000000180053804     ConvexPolygonsBuilder.obj
 0002:0000e820       $unwind$?FloodFill@Local@?7??extractHullPolygons@@YA_NAEAIAEAV?$Array@IVNamedAllocator@shdfnd@physx@@@shdfnd@physx@@AEBVConvexPolygonsBuilder@5@PEAV345@1@Z@SAX1PEBVAdjTriangle@5@IPEA_N@Z 0000000180053820     ConvexPolygonsBuilder.obj
 0002:0000e830       $chain$0$?FloodFill@Local@?7??extractHullPolygons@@YA_NAEAIAEAV?$Array@IVNamedAllocator@shdfnd@physx@@@shdfnd@physx@@AEBVConvexPolygonsBuilder@5@PEAV345@1@Z@SAX1PEBVAdjTriangle@5@IPEA_N@Z 0000000180053830     ConvexPolygonsBuilder.obj
 0002:0000e844       $chain$1$?FloodFill@Local@?7??extractHullPolygons@@YA_NAEAIAEAV?$Array@IVNamedAllocator@shdfnd@physx@@@shdfnd@physx@@AEBVConvexPolygonsBuilder@5@PEAV345@1@Z@SAX1PEBVAdjTriangle@5@IPEA_N@Z 0000000180053844     ConvexPolygonsBuilder.obj
 0002:0000e854       $unwind$?CheckFloodFillFace@Local@?7??extractHullPolygons@@YA_NAEAIAEAV?$Array@IVNamedAllocator@shdfnd@physx@@@shdfnd@physx@@AEBVConvexPolygonsBuilder@5@PEAV345@1@Z@SA_NIPEBVAdjTriangle@5@PEBI@Z 0000000180053854     ConvexPolygonsBuilder.obj
 0002:0000e86c       $unwind$??0QuickHullConvexHullLib@physx@@QEAA@AEBVPxConvexMeshDesc@1@AEBUPxCookingParams@1@@Z 000000018005386c     QuickHullConvexHullLib.obj
 0002:0000e884       $unwind$?createConvexHull@QuickHullConvexHullLib@physx@@UEAA?AW4Enum@PxConvexMeshCookingResult@2@XZ 0000000180053884     QuickHullConvexHullLib.obj
 0002:0000e898       $unwind$?createEdgeList@QuickHullConvexHullLib@physx@@UEAA_NIPEBEPEAPEAEPEAPEAG2@Z 0000000180053898     QuickHullConvexHullLib.obj
 0002:0000e8b8       $chain$5$?expandHullOBB@QuickHullConvexHullLib@physx@@IEAA?AW4Enum@PxConvexMeshCookingResult@2@XZ 00000001800538b8     QuickHullConvexHullLib.obj
 0002:0000e8e0       $chain$6$?expandHullOBB@QuickHullConvexHullLib@physx@@IEAA?AW4Enum@PxConvexMeshCookingResult@2@XZ 00000001800538e0     QuickHullConvexHullLib.obj
 0002:0000e8f4       $chain$7$?expandHullOBB@QuickHullConvexHullLib@physx@@IEAA?AW4Enum@PxConvexMeshCookingResult@2@XZ 00000001800538f4     QuickHullConvexHullLib.obj
 0002:0000e904       $chain$8$?expandHullOBB@QuickHullConvexHullLib@physx@@IEAA?AW4Enum@PxConvexMeshCookingResult@2@XZ 0000000180053904     QuickHullConvexHullLib.obj
 0002:0000e914       $unwind$?expandHull@QuickHullConvexHullLib@physx@@IEAA?AW4Enum@PxConvexMeshCookingResult@2@XZ 0000000180053914     QuickHullConvexHullLib.obj
 0002:0000e93c       $unwind$?cleanupForSimplex@QuickHullConvexHullLib@physx@@IEAA_NPEAVPxVec3@2@IPEAUQuickHullVertex@local@@1AEAM2@Z 000000018005393c     QuickHullConvexHullLib.obj
 0002:0000e960       $chain$4$?cleanupForSimplex@QuickHullConvexHullLib@physx@@IEAA_NPEAVPxVec3@2@IPEAUQuickHullVertex@local@@1AEAM2@Z 0000000180053960     QuickHullConvexHullLib.obj
 0002:0000e984       $chain$6$?cleanupForSimplex@QuickHullConvexHullLib@physx@@IEAA_NPEAVPxVec3@2@IPEAUQuickHullVertex@local@@1AEAM2@Z 0000000180053984     QuickHullConvexHullLib.obj
 0002:0000e99c       $chain$7$?cleanupForSimplex@QuickHullConvexHullLib@physx@@IEAA_NPEAVPxVec3@2@IPEAUQuickHullVertex@local@@1AEAM2@Z 000000018005399c     QuickHullConvexHullLib.obj
 0002:0000e9b0       $chain$8$?cleanupForSimplex@QuickHullConvexHullLib@physx@@IEAA_NPEAVPxVec3@2@IPEAUQuickHullVertex@local@@1AEAM2@Z 00000001800539b0     QuickHullConvexHullLib.obj
 0002:0000e9c4       $chain$9$?cleanupForSimplex@QuickHullConvexHullLib@physx@@IEAA_NPEAVPxVec3@2@IPEAUQuickHullVertex@local@@1AEAM2@Z 00000001800539c4     QuickHullConvexHullLib.obj
 0002:0000e9d4       $chain$10$?cleanupForSimplex@QuickHullConvexHullLib@physx@@IEAA_NPEAVPxVec3@2@IPEAUQuickHullVertex@local@@1AEAM2@Z 00000001800539d4     QuickHullConvexHullLib.obj
 0002:0000e9e4       $chain$11$?cleanupForSimplex@QuickHullConvexHullLib@physx@@IEAA_NPEAVPxVec3@2@IPEAUQuickHullVertex@local@@1AEAM2@Z 00000001800539e4     QuickHullConvexHullLib.obj
 0002:0000e9f4       $chain$12$?cleanupForSimplex@QuickHullConvexHullLib@physx@@IEAA_NPEAVPxVec3@2@IPEAUQuickHullVertex@local@@1AEAM2@Z 00000001800539f4     QuickHullConvexHullLib.obj
 0002:0000ea04       $unwind$?fillConvexMeshDescFromQuickHull@QuickHullConvexHullLib@physx@@IEAAXAEAVPxConvexMeshDesc@2@@Z 0000000180053a04     QuickHullConvexHullLib.obj
 0002:0000ea1c       $unwind$?fillConvexMeshDescFromCroppedHull@QuickHullConvexHullLib@physx@@IEAAXAEAVPxConvexMeshDesc@2@@Z 0000000180053a1c     QuickHullConvexHullLib.obj
 0002:0000ea34       $unwind$?mergeAdjacentFace@QuickHullFace@local@@QEAA_NPEAUQuickHullHalfEdge@2@AEAV?$Array@PEAUQuickHullFace@local@@VNamedAllocator@shdfnd@physx@@@shdfnd@physx@@@Z 0000000180053a34     QuickHullConvexHullLib.obj
 0002:0000ea4c       $chain$4$?mergeAdjacentFace@QuickHullFace@local@@QEAA_NPEAUQuickHullHalfEdge@2@AEAV?$Array@PEAUQuickHullFace@local@@VNamedAllocator@shdfnd@physx@@@shdfnd@physx@@@Z 0000000180053a4c     QuickHullConvexHullLib.obj
 0002:0000ea70       $chain$5$?mergeAdjacentFace@QuickHullFace@local@@QEAA_NPEAUQuickHullHalfEdge@2@AEAV?$Array@PEAUQuickHullFace@local@@VNamedAllocator@shdfnd@physx@@@shdfnd@physx@@@Z 0000000180053a70     QuickHullConvexHullLib.obj
 0002:0000ea70       $chain$8$?mergeAdjacentFace@QuickHullFace@local@@QEAA_NPEAUQuickHullHalfEdge@2@AEAV?$Array@PEAUQuickHullFace@local@@VNamedAllocator@shdfnd@physx@@@shdfnd@physx@@@Z 0000000180053a70     QuickHullConvexHullLib.obj
 0002:0000ea80       $chain$6$?mergeAdjacentFace@QuickHullFace@local@@QEAA_NPEAUQuickHullHalfEdge@2@AEAV?$Array@PEAUQuickHullFace@local@@VNamedAllocator@shdfnd@physx@@@shdfnd@physx@@@Z 0000000180053a80     QuickHullConvexHullLib.obj
 0002:0000eaa4       $chain$7$?mergeAdjacentFace@QuickHullFace@local@@QEAA_NPEAUQuickHullHalfEdge@2@AEAV?$Array@PEAUQuickHullFace@local@@VNamedAllocator@shdfnd@physx@@@shdfnd@physx@@@Z 0000000180053aa4     QuickHullConvexHullLib.obj
 0002:0000eab8       $unwind$?connectHalfEdges@QuickHullFace@local@@AEAAPEAU12@PEAUQuickHullHalfEdge@2@0@Z 0000000180053ab8     QuickHullConvexHullLib.obj
 0002:0000eac0       $chain$0$?connectHalfEdges@QuickHullFace@local@@AEAAPEAU12@PEAUQuickHullHalfEdge@2@0@Z 0000000180053ac0     QuickHullConvexHullLib.obj
 0002:0000ead4       $chain$4$?connectHalfEdges@QuickHullFace@local@@AEAAPEAU12@PEAUQuickHullHalfEdge@2@0@Z 0000000180053ad4     QuickHullConvexHullLib.obj
 0002:0000eaf4       $chain$5$?connectHalfEdges@QuickHullFace@local@@AEAAPEAU12@PEAUQuickHullHalfEdge@2@0@Z 0000000180053af4     QuickHullConvexHullLib.obj
 0002:0000eb04       $chain$6$?connectHalfEdges@QuickHullFace@local@@AEAAPEAU12@PEAUQuickHullHalfEdge@2@0@Z 0000000180053b04     QuickHullConvexHullLib.obj
 0002:0000eb14       $unwind$?parseInputVertices@QuickHull@local@@QEAAXPEBVPxVec3@physx@@I@Z 0000000180053b14     QuickHullConvexHullLib.obj
 0002:0000eb24       $chain$0$?parseInputVertices@QuickHull@local@@QEAAXPEBVPxVec3@physx@@I@Z 0000000180053b24     QuickHullConvexHullLib.obj
 0002:0000eb38       $chain$1$?parseInputVertices@QuickHull@local@@QEAAXPEBVPxVec3@physx@@I@Z 0000000180053b38     QuickHullConvexHullLib.obj
 0002:0000eb48       $unwind$?buildHull@QuickHull@local@@QEAA?AW4Enum@QuickHullResult@2@XZ 0000000180053b48     QuickHullConvexHullLib.obj
 0002:0000eb5c       $unwind$?computeMinMaxVerts@QuickHull@local@@IEAAXXZ 0000000180053b5c     QuickHullConvexHullLib.obj
 0002:0000eb68       $unwind$?findSimplex@QuickHull@local@@IEAA_NXZ 0000000180053b68     QuickHullConvexHullLib.obj
 0002:0000eb7c       $chain$8$?findSimplex@QuickHull@local@@IEAA_NXZ 0000000180053b7c     QuickHullConvexHullLib.obj
 0002:0000ebb0       $chain$12$?findSimplex@QuickHull@local@@IEAA_NXZ 0000000180053bb0     QuickHullConvexHullLib.obj
 0002:0000ebd0       $chain$13$?findSimplex@QuickHull@local@@IEAA_NXZ 0000000180053bd0     QuickHullConvexHullLib.obj
 0002:0000ebd0       $chain$15$?findSimplex@QuickHull@local@@IEAA_NXZ 0000000180053bd0     QuickHullConvexHullLib.obj
 0002:0000ec04       $chain$14$?findSimplex@QuickHull@local@@IEAA_NXZ 0000000180053c04     QuickHullConvexHullLib.obj
 0002:0000ec48       $chain$16$?findSimplex@QuickHull@local@@IEAA_NXZ 0000000180053c48     QuickHullConvexHullLib.obj
 0002:0000ec58       $unwind$?addSimplex@QuickHull@local@@IEAAXPEAUQuickHullVertex@2@_N@Z 0000000180053c58     QuickHullConvexHullLib.obj
 0002:0000ec6c       $chain$2$?addSimplex@QuickHull@local@@IEAAXPEAUQuickHullVertex@2@_N@Z 0000000180053c6c     QuickHullConvexHullLib.obj
 0002:0000ec88       $chain$8$?addSimplex@QuickHull@local@@IEAAXPEAUQuickHullVertex@2@_N@Z 0000000180053c88     QuickHullConvexHullLib.obj
 0002:0000ecac       $chain$3$?addSimplex@QuickHull@local@@IEAAXPEAUQuickHullVertex@2@_N@Z 0000000180053cac     QuickHullConvexHullLib.obj
 0002:0000ecbc       $unwind$?nextPointToAdd@QuickHull@local@@IEAAPEAUQuickHullVertex@2@AEAPEAUQuickHullFace@2@@Z 0000000180053cbc     QuickHullConvexHullLib.obj
 0002:0000ecd0       $unwind$?addPointToHull@QuickHull@local@@IEAA_NPEBUQuickHullVertex@2@AEAUQuickHullFace@2@AEA_N@Z 0000000180053cd0     QuickHullConvexHullLib.obj
 0002:0000ece4       $chain$1$?addPointToHull@QuickHull@local@@IEAA_NPEBUQuickHullVertex@2@AEAUQuickHullFace@2@AEA_N@Z 0000000180053ce4     QuickHullConvexHullLib.obj
 0002:0000ecfc       $chain$2$?addPointToHull@QuickHull@local@@IEAA_NPEBUQuickHullVertex@2@AEAUQuickHullFace@2@AEA_N@Z 0000000180053cfc     QuickHullConvexHullLib.obj
 0002:0000ed10       $unwind$?createTriangle@QuickHull@local@@IEAAPEAUQuickHullFace@2@AEBUQuickHullVertex@2@00@Z 0000000180053d10     QuickHullConvexHullLib.obj
 0002:0000ed38       $unwind$?calculateHorizon@QuickHull@local@@IEAAXAEBVPxVec3@physx@@PEAUQuickHullHalfEdge@2@AEAUQuickHullFace@2@AEAV?$Array@PEAUQuickHullHalfEdge@local@@VNamedAllocator@shdfnd@physx@@@shdfnd@4@AEAV?$Array@PEAUQuickHullFace@local@@VNamedAllocator@shdfnd@physx@@@84@@Z 0000000180053d38     QuickHullConvexHullLib.obj
 0002:0000ed50       $unwind$?doAdjacentMerge@QuickHull@local@@IEAA_NAEAUQuickHullFace@2@_NAEA_N@Z 0000000180053d50     QuickHullConvexHullLib.obj
 0002:0000ed60       $chain$1$?doAdjacentMerge@QuickHull@local@@IEAA_NAEAUQuickHullFace@2@_NAEA_N@Z 0000000180053d60     QuickHullConvexHullLib.obj
 0002:0000ed78       $chain$2$?doAdjacentMerge@QuickHull@local@@IEAA_NAEAUQuickHullFace@2@_NAEA_N@Z 0000000180053d78     QuickHullConvexHullLib.obj
 0002:0000ed8c       $chain$3$?doAdjacentMerge@QuickHull@local@@IEAA_NAEAUQuickHullFace@2@_NAEA_N@Z 0000000180053d8c     QuickHullConvexHullLib.obj
 0002:0000ed9c       $unwind$?resolveUnclaimedPoints@QuickHull@local@@IEAAXAEBV?$Array@PEAUQuickHullFace@local@@VNamedAllocator@shdfnd@physx@@@shdfnd@physx@@@Z 0000000180053d9c     QuickHullConvexHullLib.obj
 0002:0000edac       $chain$1$?resolveUnclaimedPoints@QuickHull@local@@IEAAXAEBV?$Array@PEAUQuickHullFace@local@@VNamedAllocator@shdfnd@physx@@@shdfnd@physx@@@Z 0000000180053dac     QuickHullConvexHullLib.obj
 0002:0000edc4       $chain$2$?resolveUnclaimedPoints@QuickHull@local@@IEAAXAEBV?$Array@PEAUQuickHullFace@local@@VNamedAllocator@shdfnd@physx@@@shdfnd@physx@@@Z 0000000180053dc4     QuickHullConvexHullLib.obj
 0002:0000edd4       $unwind$?postMergeHull@QuickHull@local@@IEAAXXZ 0000000180053dd4     QuickHullConvexHullLib.obj
 0002:0000ede0       $chain$4$?postMergeHull@QuickHull@local@@IEAAXXZ 0000000180053de0     QuickHullConvexHullLib.obj
 0002:0000ee04       $chain$5$?postMergeHull@QuickHull@local@@IEAAXXZ 0000000180053e04     QuickHullConvexHullLib.obj
 0002:0000ee14       $chain$6$?postMergeHull@QuickHull@local@@IEAAXXZ 0000000180053e14     QuickHullConvexHullLib.obj
 0002:0000ee38       $unwind$?canMergeFaces@QuickHull@local@@IEAA_NAEBUQuickHullHalfEdge@2@@Z 0000000180053e38     QuickHullConvexHullLib.obj
 0002:0000ee7c       $unwind$?init@?$MemBlock@UQuickHullFace@local@@$00@local@@QEAAXI@Z 0000000180053e7c     QuickHullConvexHullLib.obj
 0002:0000ee7c       $unwind$?init@?$MemBlock@UQuickHullHalfEdge@local@@$0A@@local@@QEAAXI@Z 0000000180053e7c     QuickHullConvexHullLib.obj
 0002:0000ee88       $unwind$??1?$MemBlock@UQuickHullFace@local@@$00@local@@QEAA@XZ 0000000180053e88     QuickHullConvexHullLib.obj
 0002:0000ee88       $unwind$??1?$MemBlock@UQuickHullHalfEdge@local@@$0A@@local@@QEAA@XZ 0000000180053e88     QuickHullConvexHullLib.obj
 0002:0000ee90       $chain$0$??1?$MemBlock@UQuickHullFace@local@@$00@local@@QEAA@XZ 0000000180053e90     QuickHullConvexHullLib.obj
 0002:0000ee90       $chain$0$??1?$MemBlock@UQuickHullHalfEdge@local@@$0A@@local@@QEAA@XZ 0000000180053e90     QuickHullConvexHullLib.obj
 0002:0000eea4       $chain$1$??1?$MemBlock@UQuickHullFace@local@@$00@local@@QEAA@XZ 0000000180053ea4     QuickHullConvexHullLib.obj
 0002:0000eea4       $chain$1$??1?$MemBlock@UQuickHullHalfEdge@local@@$0A@@local@@QEAA@XZ 0000000180053ea4     QuickHullConvexHullLib.obj
 0002:0000eeb8       $chain$2$??1?$MemBlock@UQuickHullFace@local@@$00@local@@QEAA@XZ 0000000180053eb8     QuickHullConvexHullLib.obj
 0002:0000eeb8       $chain$2$??1?$MemBlock@UQuickHullHalfEdge@local@@$0A@@local@@QEAA@XZ 0000000180053eb8     QuickHullConvexHullLib.obj
 0002:0000eec8       $chain$3$??1?$MemBlock@UQuickHullFace@local@@$00@local@@QEAA@XZ 0000000180053ec8     QuickHullConvexHullLib.obj
 0002:0000eec8       $chain$3$??1?$MemBlock@UQuickHullHalfEdge@local@@$0A@@local@@QEAA@XZ 0000000180053ec8     QuickHullConvexHullLib.obj
 0002:0000eed8       $unwind$?getFreeItem@?$MemBlock@UQuickHullHalfEdge@local@@$0A@@local@@QEAAPEAUQuickHullHalfEdge@2@XZ 0000000180053ed8     QuickHullConvexHullLib.obj
 0002:0000eee8       $chain$0$?growAndPushBack@?$Array@PEAUQuickHullFace@local@@VNamedAllocator@shdfnd@physx@@@shdfnd@physx@@IEAAAEAPEAUQuickHullFace@local@@AEBQEAU45@@Z 0000000180053ee8     QuickHullConvexHullLib.obj
 0002:0000eee8       $chain$0$?growAndPushBack@?$Array@PEAUQuickHullHalfEdge@local@@VNamedAllocator@shdfnd@physx@@@shdfnd@physx@@IEAAAEAPEAUQuickHullHalfEdge@local@@AEBQEAU45@@Z 0000000180053ee8     QuickHullConvexHullLib.obj
 0002:0000eee8       $chain$0$?growAndPushBack@?$Array@PEAUQuickHullVertex@local@@VNamedAllocator@shdfnd@physx@@@shdfnd@physx@@IEAAAEAPEAUQuickHullVertex@local@@AEBQEAU45@@Z 0000000180053ee8     QuickHullConvexHullLib.obj
 0002:0000eefc       $chain$1$?growAndPushBack@?$Array@PEAUQuickHullFace@local@@VNamedAllocator@shdfnd@physx@@@shdfnd@physx@@IEAAAEAPEAUQuickHullFace@local@@AEBQEAU45@@Z 0000000180053efc     QuickHullConvexHullLib.obj
 0002:0000eefc       $chain$1$?growAndPushBack@?$Array@PEAUQuickHullHalfEdge@local@@VNamedAllocator@shdfnd@physx@@@shdfnd@physx@@IEAAAEAPEAUQuickHullHalfEdge@local@@AEBQEAU45@@Z 0000000180053efc     QuickHullConvexHullLib.obj
 0002:0000eefc       $chain$1$?growAndPushBack@?$Array@PEAUQuickHullVertex@local@@VNamedAllocator@shdfnd@physx@@@shdfnd@physx@@IEAAAEAPEAUQuickHullVertex@local@@AEBQEAU45@@Z 0000000180053efc     QuickHullConvexHullLib.obj
 0002:0000ef10       $chain$2$?growAndPushBack@?$Array@PEAUQuickHullFace@local@@VNamedAllocator@shdfnd@physx@@@shdfnd@physx@@IEAAAEAPEAUQuickHullFace@local@@AEBQEAU45@@Z 0000000180053f10     QuickHullConvexHullLib.obj
 0002:0000ef10       $chain$2$?growAndPushBack@?$Array@PEAUQuickHullHalfEdge@local@@VNamedAllocator@shdfnd@physx@@@shdfnd@physx@@IEAAAEAPEAUQuickHullHalfEdge@local@@AEBQEAU45@@Z 0000000180053f10     QuickHullConvexHullLib.obj
 0002:0000ef10       $chain$2$?growAndPushBack@?$Array@PEAUQuickHullVertex@local@@VNamedAllocator@shdfnd@physx@@@shdfnd@physx@@IEAAAEAPEAUQuickHullVertex@local@@AEBQEAU45@@Z 0000000180053f10     QuickHullConvexHullLib.obj
 0002:0000ef20       $chain$3$?growAndPushBack@?$Array@PEAUQuickHullFace@local@@VNamedAllocator@shdfnd@physx@@@shdfnd@physx@@IEAAAEAPEAUQuickHullFace@local@@AEBQEAU45@@Z 0000000180053f20     QuickHullConvexHullLib.obj
 0002:0000ef20       $chain$3$?growAndPushBack@?$Array@PEAUQuickHullHalfEdge@local@@VNamedAllocator@shdfnd@physx@@@shdfnd@physx@@IEAAAEAPEAUQuickHullHalfEdge@local@@AEBQEAU45@@Z 0000000180053f20     QuickHullConvexHullLib.obj
 0002:0000ef20       $chain$3$?growAndPushBack@?$Array@PEAUQuickHullVertex@local@@VNamedAllocator@shdfnd@physx@@@shdfnd@physx@@IEAAAEAPEAUQuickHullVertex@local@@AEBQEAU45@@Z 0000000180053f20     QuickHullConvexHullLib.obj
 0002:0000ef30       $chain$0$?recreate@?$Array@PEAUQuickHullFace@local@@VNamedAllocator@shdfnd@physx@@@shdfnd@physx@@IEAAXI@Z 0000000180053f30     QuickHullConvexHullLib.obj
 0002:0000ef30       $chain$0$?recreate@?$Array@PEAUQuickHullHalfEdge@local@@VNamedAllocator@shdfnd@physx@@@shdfnd@physx@@IEAAXI@Z 0000000180053f30     QuickHullConvexHullLib.obj
 0002:0000ef30       $chain$0$?recreate@?$Array@PEAUQuickHullVertex@local@@VNamedAllocator@shdfnd@physx@@@shdfnd@physx@@IEAAXI@Z 0000000180053f30     QuickHullConvexHullLib.obj
 0002:0000ef44       $chain$1$?recreate@?$Array@PEAUQuickHullFace@local@@VNamedAllocator@shdfnd@physx@@@shdfnd@physx@@IEAAXI@Z 0000000180053f44     QuickHullConvexHullLib.obj
 0002:0000ef44       $chain$1$?recreate@?$Array@PEAUQuickHullHalfEdge@local@@VNamedAllocator@shdfnd@physx@@@shdfnd@physx@@IEAAXI@Z 0000000180053f44     QuickHullConvexHullLib.obj
 0002:0000ef44       $chain$1$?recreate@?$Array@PEAUQuickHullVertex@local@@VNamedAllocator@shdfnd@physx@@@shdfnd@physx@@IEAAXI@Z 0000000180053f44     QuickHullConvexHullLib.obj
 0002:0000ef54       $unwind$?getFreeItem@?$MemBlock@UQuickHullFace@local@@$00@local@@QEAAPEAUQuickHullFace@2@XZ 0000000180053f54     QuickHullConvexHullLib.obj
 0002:0000ef68       $chain$0$?growAndPushBack@?$Array@UExpandPoint@local@@VNamedAllocator@shdfnd@physx@@@shdfnd@physx@@IEAAAEAUExpandPoint@local@@AEBU45@@Z 0000000180053f68     QuickHullConvexHullLib.obj
 0002:0000ef7c       $chain$1$?growAndPushBack@?$Array@UExpandPoint@local@@VNamedAllocator@shdfnd@physx@@@shdfnd@physx@@IEAAAEAUExpandPoint@local@@AEBU45@@Z 0000000180053f7c     QuickHullConvexHullLib.obj
 0002:0000ef90       $chain$2$?growAndPushBack@?$Array@UExpandPoint@local@@VNamedAllocator@shdfnd@physx@@@shdfnd@physx@@IEAAAEAUExpandPoint@local@@AEBU45@@Z 0000000180053f90     QuickHullConvexHullLib.obj
 0002:0000efa0       $chain$3$?growAndPushBack@?$Array@UExpandPoint@local@@VNamedAllocator@shdfnd@physx@@@shdfnd@physx@@IEAAAEAUExpandPoint@local@@AEBU45@@Z 0000000180053fa0     QuickHullConvexHullLib.obj
 0002:0000efb0       $chain$0$?recreate@?$Array@UExpandPoint@local@@VNamedAllocator@shdfnd@physx@@@shdfnd@physx@@IEAAXI@Z 0000000180053fb0     QuickHullConvexHullLib.obj
 0002:0000efc4       $chain$1$?recreate@?$Array@UExpandPoint@local@@VNamedAllocator@shdfnd@physx@@@shdfnd@physx@@IEAAXI@Z 0000000180053fc4     QuickHullConvexHullLib.obj
 0002:0000efd4       $unwind$?computeVolumeIntegralsEberly@physx@@YA_NAEBVPxConvexMeshDesc@1@MAEAUPxIntegrals@1@AEBVPxVec3@1@@Z 0000000180053fd4     VolumeIntegration.obj
 0002:0000efd4       $unwind$?computeVolumeIntegralsEberlySIMD@physx@@YA_NAEBVPxConvexMeshDesc@1@MAEAUPxIntegrals@1@AEBVPxVec3@1@@Z 0000000180053fd4     VolumeIntegration.obj
 0002:0000efd4       $unwind$__unDName          0000000180053fd4     libvcruntime:undname.obj
 0002:0000efd4       $unwind$_raise_exc         0000000180053fd4     libucrt:fpexcept.obj
 0002:0000efd4       $unwind$_raise_excf        0000000180053fd4     libucrt:fpexcept.obj
 0002:0000efdc       $unwind$?computeVolumeIntegralsSIMD@VolumeIntegratorEberly@?A0x54712ab8@physx@@QEAA_NAEAUPxIntegrals@3@AEBVPxVec3@3@@Z 0000000180053fdc     VolumeIntegration.obj
 0002:0000f014       $chain$1$?computeVolumeIntegralsSIMD@VolumeIntegratorEberly@?A0x54712ab8@physx@@QEAA_NAEAUPxIntegrals@3@AEBVPxVec3@3@@Z 0000000180054014     VolumeIntegration.obj
 0002:0000f02c       $chain$2$?computeVolumeIntegralsSIMD@VolumeIntegratorEberly@?A0x54712ab8@physx@@QEAA_NAEAUPxIntegrals@3@AEBVPxVec3@3@@Z 000000018005402c     VolumeIntegration.obj
 0002:0000f03c       $unwind$?computeVolumeIntegrals@VolumeIntegratorEberly@?A0x54712ab8@physx@@QEAA_NAEAUPxIntegrals@3@AEBVPxVec3@3@@Z 000000018005403c     VolumeIntegration.obj
 0002:0000f074       $chain$0$?computeVolumeIntegrals@VolumeIntegratorEberly@?A0x54712ab8@physx@@QEAA_NAEAUPxIntegrals@3@AEBVPxVec3@3@@Z 0000000180054074     VolumeIntegration.obj
 0002:0000f088       $chain$3$?computeVolumeIntegrals@VolumeIntegratorEberly@?A0x54712ab8@physx@@QEAA_NAEAUPxIntegrals@3@AEBVPxVec3@3@@Z 0000000180054088     VolumeIntegration.obj
 0002:0000f0a4       $chain$4$?computeVolumeIntegrals@VolumeIntegratorEberly@?A0x54712ab8@physx@@QEAA_NAEAUPxIntegrals@3@AEBVPxVec3@3@@Z 00000001800540a4     VolumeIntegration.obj
 0002:0000f0b4       $chain$5$?computeVolumeIntegrals@VolumeIntegratorEberly@?A0x54712ab8@physx@@QEAA_NAEAUPxIntegrals@3@AEBVPxVec3@3@@Z 00000001800540b4     VolumeIntegration.obj
 0002:0000f0c4       $chain$1$?cookingDelayHook@@YAP6A_JXZIPEAUDelayLoadInfo@@@Z 00000001800540c4     WindowsCookingDelayLoadHook.obj
 0002:0000f0dc       $chain$3$?cookingDelayHook@@YAP6A_JXZIPEAUDelayLoadInfo@@@Z 00000001800540dc     WindowsCookingDelayLoadHook.obj
 0002:0000f0dc       $chain$5$?cookingDelayHook@@YAP6A_JXZIPEAUDelayLoadInfo@@@Z 00000001800540dc     WindowsCookingDelayLoadHook.obj
 0002:0000f0f4       $chain$6$?cookingDelayHook@@YAP6A_JXZIPEAUDelayLoadInfo@@@Z 00000001800540f4     WindowsCookingDelayLoadHook.obj
 0002:0000f104       xdata                      0000000180054104     PhysXCommon_64:PhysXCommon_64.dll
 0002:0000f10c       xdata                      000000018005410c     PhysXFoundation_64:PhysXFoundation_64.dll
 0002:0000f114       $unwind$?DloadObtainSection@@YAPEAXPEAK0@Z 0000000180054114     Delayimp:delayhlp.obj
 0002:0000f114       $unwind$strstr             0000000180054114     libvcruntime:strstr.obj
 0002:0000f124       $unwind$?DloadMakePermanentImageCommit@@YAXPEAX_K@Z 0000000180054124     Delayimp:delayhlp.obj
 0002:0000f130       $unwind$?DloadProtectSection@@YAXKPEAK@Z 0000000180054130     Delayimp:delayhlp.obj
 0002:0000f140       $unwind$__delayLoadHelper2 0000000180054140     Delayimp:delayhlp.obj
 0002:0000f160       $xdatasym                  0000000180054160     LIBCMT:chkstk.obj
 0002:0000f168       $unwind$?dllmain_crt_process_attach@@YAHQEAUHINSTANCE__@@QEAX@Z 0000000180054168     LIBCMT:dll_dllmain.obj
 0002:0000f1a4       $unwind$?fin$0@?0??dllmain_crt_process_attach@@YAHQEAUHINSTANCE__@@QEAX@Z@4HA 00000001800541a4     LIBCMT:dll_dllmain.obj
 0002:0000f1a4       $unwind$?fin$0@?0??dllmain_crt_process_detach@@YAH_N@Z@4HA 00000001800541a4     LIBCMT:dll_dllmain.obj
 0002:0000f1a4       $unwind$?fin$1@?0??dllmain_crt_process_detach@@YAH_N@Z@4HA 00000001800541a4     LIBCMT:dll_dllmain.obj
 0002:0000f1a4       $unwind$_IsNonwritableInCurrentImage$filt$0 00000001800541a4     LIBCMT:pesect.obj
 0002:0000f1a4       $unwind$?filt$0@?0??CxxCallCatchBlock@__FrameHandler4@@SAPEAXPEAU_EXCEPTION_RECORD@@@Z@4HA 00000001800541a4     libvcruntime:frame.obj
 0002:0000f1a4       $unwind$__unDNameEx$fin$0  00000001800541a4     libvcruntime:undname.obj
 0002:0000f1a4       $unwind$_query_new_handler$fin$0 00000001800541a4     libucrt:new_handler.obj
 0002:0000f1a4       $unwind$?fin$0@?0???$?RV<lambda_0ae27a3a962d80f24befdcbee591983d>@@AEAV<lambda_8d0ee55de4b1038c4002e0adecdf1839>@@V<lambda_dc504788e8f1664fe9b84e20bfb512f2>@@@?$__crt_seh_guarded_call@X@@QEAAX$$QEAV<lambda_0ae27a3a962d80f24befdcbee591983d>@@AEAV<lambda_8d0ee55de4b1038c4002e0adecdf1839>@@$$QEAV<lambda_dc504788e8f1664fe9b84e20bfb512f2>@@@Z@4HA 00000001800541a4     libucrt:per_thread_data.obj
 0002:0000f1a4       $unwind$?fin$0@?0???$?RV<lambda_2d41944a1d46af3157314b8a01080d33>@@AEAV<lambda_8f455de75cd7d7f24b4096f044d8b9e6>@@V<lambda_aa500f224e6afead328df44964fe2772>@@@?$__crt_seh_guarded_call@X@@QEAAX$$QEAV<lambda_2d41944a1d46af3157314b8a01080d33>@@AEAV<lambda_8f455de75cd7d7f24b4096f044d8b9e6>@@$$QEAV<lambda_aa500f224e6afead328df44964fe2772>@@@Z@4HA 00000001800541a4     libucrt:per_thread_data.obj
 0002:0000f1a4       $unwind$?fin$0@?0???$?RV<lambda_aa87e3671a710a21b5dc78c0bdf72e11>@@AEAV<lambda_92619d2358a28f41a33ba319515a20b9>@@V<lambda_6992ecaafeb10aed2b74cb1fae11a551>@@@?$__crt_seh_guarded_call@X@@QEAAX$$QEAV<lambda_aa87e3671a710a21b5dc78c0bdf72e11>@@AEAV<lambda_92619d2358a28f41a33ba319515a20b9>@@$$QEAV<lambda_6992ecaafeb10aed2b74cb1fae11a551>@@@Z@4HA 00000001800541a4     libucrt:per_thread_data.obj
 0002:0000f1a4       $unwind$?fin$0@?0???$?RV<lambda_f2e299630e499de9f9a165e60fcd3db5>@@AEAV<lambda_2ae9d31cdba2644fcbeaf08da7c24588>@@V<lambda_40d01ff24d0e7b3814fdbdcee8eab3c7>@@@?$__crt_seh_guarded_call@X@@QEAAX$$QEAV<lambda_f2e299630e499de9f9a165e60fcd3db5>@@AEAV<lambda_2ae9d31cdba2644fcbeaf08da7c24588>@@$$QEAV<lambda_40d01ff24d0e7b3814fdbdcee8eab3c7>@@@Z@4HA 00000001800541a4     libucrt:per_thread_data.obj
 0002:0000f1a4       $unwind$__acrt_update_thread_locale_data$fin$0 00000001800541a4     libucrt:locale_refcounting.obj
 0002:0000f1a4       $unwind$?fin$0@?0???$?RV<lambda_410d79af7f07d98d83a3f525b3859a53>@@AEAV<lambda_3e16ef9562a7dcce91392c22ab16ea36>@@V<lambda_38119f0e861e05405d8a144b9b982f0a>@@@?$__crt_seh_guarded_call@X@@QEAAX$$QEAV<lambda_410d79af7f07d98d83a3f525b3859a53>@@AEAV<lambda_3e16ef9562a7dcce91392c22ab16ea36>@@$$QEAV<lambda_38119f0e861e05405d8a144b9b982f0a>@@@Z@4HA 00000001800541a4     libucrt:wsetlocale.obj
 0002:0000f1a4       $unwind$?fin$0@?0???$?RV<lambda_751a882b2c74d4b022dec766aa51a29a>@@AEAV<lambda_628dfdc04ba53c8bfc02c9951375f3f5>@@V<lambda_f6c7be5f7998530c34de24c7437d6b54>@@@?$__crt_seh_guarded_call@H@@QEAAH$$QEAV<lambda_751a882b2c74d4b022dec766aa51a29a>@@AEAV<lambda_628dfdc04ba53c8bfc02c9951375f3f5>@@$$QEAV<lambda_f6c7be5f7998530c34de24c7437d6b54>@@@Z@4HA 00000001800541a4     libucrt:close.obj
 0002:0000f1a4       $unwind$?fin$0@?0???$?RV<lambda_a37b2b86f63e897a80ea819b0eb08c01>@@AEAV<lambda_38ce7e780aa69e748d6df282ebc68efe>@@V<lambda_99fb1378e971ab6e7edea83e3a7a83a2>@@@?$__crt_seh_guarded_call@H@@QEAAH$$QEAV<lambda_a37b2b86f63e897a80ea819b0eb08c01>@@AEAV<lambda_38ce7e780aa69e748d6df282ebc68efe>@@$$QEAV<lambda_99fb1378e971ab6e7edea83e3a7a83a2>@@@Z@4HA 00000001800541a4     libucrt:commit.obj
 0002:0000f1a4       $unwind$__acrt_initialize_lowio$fin$0 00000001800541a4     libucrt:ioinit.obj
 0002:0000f1a4       $unwind$__acrt_lowio_ensure_fh_exists$fin$0 00000001800541a4     libucrt:osfinfo.obj
 0002:0000f1a4       $unwind$_write$fin$0       00000001800541a4     libucrt:write.obj
 0002:0000f1a4       $unwind$?fin$0@?0???$?RV<lambda_efdfa57d1f175319df784efa44bb7b81>@@AEAV<lambda_5f0a4c1567f8adc6734073e5d1e1b35c>@@V<lambda_2e8a7d3640ea6ccb4c2413664c2db6fd>@@@?$__crt_seh_guarded_call@X@@QEAAX$$QEAV<lambda_efdfa57d1f175319df784efa44bb7b81>@@AEAV<lambda_5f0a4c1567f8adc6734073e5d1e1b35c>@@$$QEAV<lambda_2e8a7d3640ea6ccb4c2413664c2db6fd>@@@Z@4HA 00000001800541a4     libucrt:mbctype.obj
 0002:0000f1a4       $unwind$?fin$0@?0??update_thread_multibyte_data_internal@@YAPEAU__crt_multibyte_data@@QEAU__acrt_ptd@@QEAPEAU1@@Z@4HA 00000001800541a4     libucrt:mbctype.obj
 0002:0000f1a4       $unwind$?fin$0@?0???$?RV<lambda_450d765d439847d4c735a33c368b5fc0>@@AEAV<lambda_44731a7d0e6d81c3e6aa82d741081786>@@V<lambda_601a2a7da3b7a96e9554ac7215c4b07c>@@@?$__crt_seh_guarded_call@P6AXH@Z@@QEAAP6AXH@Z$$QEAV<lambda_450d765d439847d4c735a33c368b5fc0>@@AEAV<lambda_44731a7d0e6d81c3e6aa82d741081786>@@$$QEAV<lambda_601a2a7da3b7a96e9554ac7215c4b07c>@@@Z@4HA 00000001800541a4     libucrt:signal.obj
 0002:0000f1a4       $unwind$raise$fin$0        00000001800541a4     libucrt:signal.obj
 0002:0000f1a4       $unwind$?filt$0@?0???R<lambda_6e4b09c48022b2350581041d5f6b0c4c>@@QEBA@XZ@4HA 00000001800541a4     libucrt:exit.obj
 0002:0000f1a4       $unwind$?fin$0@?0???$?RV<lambda_d80eeec6fff315bfe5c115232f3240e3>@@AEAV<lambda_6e4b09c48022b2350581041d5f6b0c4c>@@V<lambda_2358e3775559c9db80273638284d5e45>@@@?$__crt_seh_guarded_call@X@@QEAAX$$QEAV<lambda_d80eeec6fff315bfe5c115232f3240e3>@@AEAV<lambda_6e4b09c48022b2350581041d5f6b0c4c>@@$$QEAV<lambda_2358e3775559c9db80273638284d5e45>@@@Z@4HA 00000001800541a4     libucrt:exit.obj
 0002:0000f1a4       $unwind$?fin$0@?0???$?RV<lambda_7777bce6b2f8c936911f934f8298dc43>@@AEAV<lambda_f03950bc5685219e0bcd2087efbe011e>@@V<lambda_3883c3dff614d5e0c5f61bb1ac94921c>@@@?$__crt_seh_guarded_call@H@@QEAAH$$QEAV<lambda_7777bce6b2f8c936911f934f8298dc43>@@AEAV<lambda_f03950bc5685219e0bcd2087efbe011e>@@$$QEAV<lambda_3883c3dff614d5e0c5f61bb1ac94921c>@@@Z@4HA 00000001800541a4     libucrt:onexit.obj
 0002:0000f1a4       $unwind$_fcloseall$fin$0   00000001800541a4     libucrt:closeall.obj
 0002:0000f1a4       $unwind$fclose$fin$0       00000001800541a4     libucrt:fclose.obj
 0002:0000f1a4       $unwind$?fin$0@?0???$?RV<lambda_842d9ff0dc9ef11c61343bbaebe7f885>@@AEAV<lambda_c5860995281e5c4ce005b3de8f5874ee>@@V<lambda_d90129c13df834fdcbf8d2b88dafcf2d>@@@?$__crt_seh_guarded_call@X@@QEAAX$$QEAV<lambda_842d9ff0dc9ef11c61343bbaebe7f885>@@AEAV<lambda_c5860995281e5c4ce005b3de8f5874ee>@@$$QEAV<lambda_d90129c13df834fdcbf8d2b88dafcf2d>@@@Z@4HA 00000001800541a4     libucrt:fflush.obj
 0002:0000f1a4       $unwind$?fin$0@?0???$?RV<lambda_886d6c58226a84441f68b9f2b8217b83>@@AEAV<lambda_ab61a845afdef5b7c387490eaf3616ee>@@V<lambda_f7f22ab5edc0698d5f6905b0d3f44752>@@@?$__crt_seh_guarded_call@X@@QEAAX$$QEAV<lambda_886d6c58226a84441f68b9f2b8217b83>@@AEAV<lambda_ab61a845afdef5b7c387490eaf3616ee>@@$$QEAV<lambda_f7f22ab5edc0698d5f6905b0d3f44752>@@@Z@4HA 00000001800541a4     libucrt:fflush.obj
 0002:0000f1a4       $unwind$_ctrlfp$filt$0     00000001800541a4     libucrt:fpctrl.obj
 0002:0000f1a4       $unwind$common_control87$filt$0 00000001800541a4     libucrt:ieee.obj
 0002:0000f1ac       $unwind$?dllmain_crt_process_detach@@YAH_N@Z 00000001800541ac     LIBCMT:dll_dllmain.obj
 0002:0000f200       $unwind$?dllmain_dispatch@@YAHQEAUHINSTANCE__@@KQEAX@Z 0000000180054200     LIBCMT:dll_dllmain.obj
 0002:0000f228       $unwind$?filt$0@?0??dllmain_dispatch@@YAHQEAUHINSTANCE__@@KQEAX@Z@4HA 0000000180054228     LIBCMT:dll_dllmain.obj
 0002:0000f228       $unwind$?filt$0@?0??FrameUnwindToState@__FrameHandler4@@SAXPEA_KPEAU_xDISPATCHER_CONTEXT@@PEAUFuncInfo4@FH4@@H@Z@4HA 0000000180054228     libvcruntime:frame.obj
 0002:0000f228       $unwind$?fin$1@?0??FrameUnwindToState@__FrameHandler4@@SAXPEA_KPEAU_xDISPATCHER_CONTEXT@@PEAUFuncInfo4@FH4@@H@Z@4HA 0000000180054228     libvcruntime:frame.obj
 0002:0000f230       $unwind$__isa_available_init 0000000180054230     LIBCMT:cpu_disp.obj
 0002:0000f240       $xdatasym                  0000000180054240     LIBCMT:svml_ssinf4_sse2.obj
 0002:0000f278       $xdatasym                  0000000180054278     LIBCMT:svml_ssinf4_sse4.obj
 0002:0000f2ac       $unwind$__security_init_cookie 00000001800542ac     LIBCMT:gs_support.obj
 0002:0000f2b8       $unwind$__scrt_is_nonwritable_in_current_image 00000001800542b8     LIBCMT:utility.obj
 0002:0000f2d8       $unwind$__scrt_is_nonwritable_in_current_image$filt$0 00000001800542d8     LIBCMT:utility.obj
 0002:0000f2e0       $unwind$__scrt_fastfail    00000001800542e0     LIBCMT:utility_desktop.obj
 0002:0000f2f0       $xdatasym                  00000001800542f0     LIBCMT:guard_dispatch.obj
 0002:0000f2f8       $xdatasym                  00000001800542f8     LIBCMT:guard_xfg_dispatch.obj
 0002:0000f300       $xdatasym                  0000000180054300     LIBCMT:svml_s_sin_cout.obj
 0002:0000f308       $unwind$__C_specific_handler 0000000180054308     libvcruntime:riscchandler.obj
 0002:0000f308       $unwind$__std_type_info_name 0000000180054308     libvcruntime:std_type_info.obj
 0002:0000f328       $xdatasym                  0000000180054328     libvcruntime:memset.obj
 0002:0000f338       $xdatasym                  0000000180054338     libvcruntime:memcpy.obj
 0002:0000f348       $unwind$__DestructExceptionObject 0000000180054348     libvcruntime:ehhelpers.obj
 0002:0000f368       $unwind$__DestructExceptionObject$filt$0 0000000180054368     libvcruntime:ehhelpers.obj
 0002:0000f368       $unwind$?fin$1@?0??CxxCallCatchBlock@__FrameHandler4@@SAPEAXPEAU_EXCEPTION_RECORD@@@Z@4HA 0000000180054368     libvcruntime:frame.obj
 0002:0000f374       $unwind$__unDNameEx        0000000180054374     libvcruntime:undname.obj
 0002:0000f3a4       $unwind$sprintf_s          00000001800543a4     libvcruntime:undname.obj
 0002:0000f3b4       $unwind$??0DName@@QEAA@_J@Z 00000001800543b4     libvcruntime:undname.obj
 0002:0000f3b4       $unwind$??0DName@@QEAA@_K@Z 00000001800543b4     libvcruntime:undname.obj
 0002:0000f3c4       $unwind$?doPchar@DName@@AEAAXD@Z 00000001800543c4     libvcruntime:undname.obj
 0002:0000f3d0       $unwind$?getDecoratedName@UnDecorator@@CA?AVDName@@XZ 00000001800543d0     libvcruntime:undname.obj
 0002:0000f3f0       $cppxdata$?getDecoratedName@UnDecorator@@CA?AVDName@@XZ 00000001800543f0     libvcruntime:undname.obj
 0002:0000f3f9       $stateUnwindMap$?getDecoratedName@UnDecorator@@CA?AVDName@@XZ 00000001800543f9     libvcruntime:undname.obj
 0002:0000f400       $ip2state$?getDecoratedName@UnDecorator@@CA?AVDName@@XZ 0000000180054400     libvcruntime:undname.obj
 0002:0000f408       $unwind$?getZName@UnDecorator@@CA?AVDName@@_N0@Z 0000000180054408     libvcruntime:undname.obj
 0002:0000f42c       $unwind$?getOperatorName@UnDecorator@@CA?AVDName@@_NPEA_N@Z 000000018005442c     libvcruntime:undname.obj
 0002:0000f448       $unwind$?getScope@UnDecorator@@CA?AVDName@@XZ 0000000180054448     libvcruntime:undname.obj
 0002:0000f464       $unwind$?getScopedName@UnDecorator@@CA?AVDName@@XZ 0000000180054464     libvcruntime:undname.obj
 0002:0000f474       $unwind$?getSignedDimension@UnDecorator@@CA?AVDName@@XZ 0000000180054474     libvcruntime:undname.obj
 0002:0000f474       $unwind$_mbsdec_l          0000000180054474     libucrt:mbsdec.obj
 0002:0000f480       $unwind$?getDimension@UnDecorator@@CA?AVDName@@_N@Z 0000000180054480     libvcruntime:undname.obj
 0002:0000f498       $unwind$?getFloatingPoint@UnDecorator@@CA?AVDName@@H@Z 0000000180054498     libvcruntime:undname.obj
 0002:0000f4b4       $unwind$?getValueObject@UnDecorator@@CA?AVDName@@XZ 00000001800544b4     libvcruntime:undname.obj
 0002:0000f4c0       $unwind$?getPointerToMember@UnDecorator@@CA?AVDName@@XZ 00000001800544c0     libvcruntime:undname.obj
 0002:0000f4cc       $unwind$?getTemplateName@UnDecorator@@CA?AVDName@@_N@Z 00000001800544cc     libvcruntime:undname.obj
 0002:0000f4e8       $unwind$?getTemplateArgumentList@UnDecorator@@CA?AVDName@@XZ 00000001800544e8     libvcruntime:undname.obj
 0002:0000f508       $unwind$?getTemplateNonTypeArgument@UnDecorator@@CA?AVDName@@XZ 0000000180054508     libvcruntime:undname.obj
 0002:0000f528       $unwind$?getTemplateTypeArgument@UnDecorator@@CA?AVDName@@XZ 0000000180054528     libvcruntime:undname.obj
 0002:0000f540       $unwind$?composeDeclaration@UnDecorator@@CA?AVDName@@AEBV2@@Z 0000000180054540     libvcruntime:undname.obj
 0002:0000f55c       $unwind$?getArgumentTypes@UnDecorator@@CA?AVDName@@XZ 000000018005455c     libvcruntime:undname.obj
 0002:0000f55c       $unwind$?getBasedType@UnDecorator@@CA?AVDName@@XZ 000000018005455c     libvcruntime:undname.obj
 0002:0000f55c       $unwind$?getEnumType@UnDecorator@@CA?AVDName@@XZ 000000018005455c     libvcruntime:undname.obj
 0002:0000f568       $unwind$?getCallingConvention@UnDecorator@@CA?AVDName@@XZ 0000000180054568     libvcruntime:undname.obj
 0002:0000f578       $unwind$?getDataType@UnDecorator@@CA?AVDName@@PEAV2@@Z 0000000180054578     libvcruntime:undname.obj
 0002:0000f584       $unwind$?getExtendedDataIndirectType@UnDecorator@@CA?AVDName@@AEAW4IndirectionKind@@AEA_NH@Z 0000000180054584     libvcruntime:undname.obj
 0002:0000f584       $unwind$?getPrimaryDataType@UnDecorator@@CA?AVDName@@AEBV2@@Z 0000000180054584     libvcruntime:undname.obj
 0002:0000f584       $unwind$?getPtrRefDataType@UnDecorator@@CA?AVDName@@AEBV2@H@Z 0000000180054584     libvcruntime:undname.obj
 0002:0000f594       $unwind$?getDataIndirectType@UnDecorator@@CA?AVDName@@AEBV2@W4IndirectionKind@@0H@Z 0000000180054594     libvcruntime:undname.obj
 0002:0000f5b4       $unwind$?getBasicDataType@UnDecorator@@CA?AVDName@@AEBV2@@Z 00000001800545b4     libvcruntime:undname.obj
 0002:0000f5cc       $unwind$?getECSUDataType@UnDecorator@@CA?AVDName@@XZ 00000001800545cc     libvcruntime:undname.obj
 0002:0000f5dc       $unwind$?getPtrRefType@UnDecorator@@CA?AVDName@@AEBV2@0W4IndirectionKind@@@Z 00000001800545dc     libvcruntime:undname.obj
 0002:0000f5f4       $unwind$?getArrayType@UnDecorator@@CA?AVDName@@AEBV2@@Z 00000001800545f4     libvcruntime:undname.obj
 0002:0000f60c       $unwind$?getFunctionIndirectType@UnDecorator@@CA?AVDName@@AEBV2@@Z 000000018005460c     libvcruntime:undname.obj
 0002:0000f62c       $unwind$?getArgumentList@UnDecorator@@CA?AVDName@@XZ 000000018005462c     libvcruntime:undname.obj
 0002:0000f62c       $unwind$?fp_format_e@@YAHQEBNQEAD_K12H_NIQEAU__crt_locale_pointers@@W4__acrt_rounding_mode@@@Z 000000018005462c     libucrt:cvt.obj
 0002:0000f62c       $unwind$_mbtowc_l          000000018005462c     libucrt:mbtowc.obj
 0002:0000f62c       $unwind$__acrt_LCMapStringEx 000000018005462c     libucrt:winapi_thunks.obj
 0002:0000f640       $unwind$?getNoexcept@UnDecorator@@CA?AVDName@@XZ 0000000180054640     libvcruntime:undname.obj
 0002:0000f640       $unwind$?getVCallThunkType@UnDecorator@@CA?AVDName@@XZ 0000000180054640     libvcruntime:undname.obj
 0002:0000f640       $unwind$?getVdispMapType@UnDecorator@@CA?AVDName@@AEBV2@@Z 0000000180054640     libvcruntime:undname.obj
 0002:0000f640       $unwind$?__mbrtowc_utf8@__crt_mbstring@@YA_KPEA_WPEBD_KPEAU_Mbstatet@@@Z 0000000180054640     libucrt:mbrtowc.obj
 0002:0000f640       $unwind$?type_case_c_tchar@?$output_processor@DV?$string_output_adapter@D@__crt_stdio_output@@V?$format_validation_base@DV?$string_output_adapter@D@__crt_stdio_output@@@2@@__crt_stdio_output@@AEAA_ND@Z 0000000180054640     libucrt:output.obj
 0002:0000f640       $unwind$__stdio_common_vsprintf_s 0000000180054640     libucrt:output.obj
 0002:0000f648       $unwind$?getRestrictionSpec@UnDecorator@@CA?AVDName@@XZ 0000000180054648     libvcruntime:undname.obj
 0002:0000f65c       $unwind$?getLexicalFrame@UnDecorator@@CA?AVDName@@XZ 000000018005465c     libvcruntime:undname.obj
 0002:0000f65c       $unwind$?parseDecoratedName@UnDecorator@@CA?AVDName@@XZ 000000018005465c     libvcruntime:undname.obj
 0002:0000f668       $unwind$?getExternalDataType@UnDecorator@@CA?AVDName@@AEBV2@@Z 0000000180054668     libvcruntime:undname.obj
 0002:0000f678       $unwind$?getVfTableType@UnDecorator@@CA?AVDName@@AEBV2@@Z 0000000180054678     libvcruntime:undname.obj
 0002:0000f690       $xdatasym                  0000000180054690     libvcruntime:notify.obj
 0002:0000f69c       $unwind$?DecompFuncInfo@FH4@@YA_JPEAEAEAUFuncInfo4@1@_KH_N@Z 000000018005469c     libvcruntime:risctrnsctrl.obj
 0002:0000f6b4       $unwind$?UnwindNestedFrames@__FrameHandler4@@SAXPEA_KPEAUEHExceptionRecord@@PEAU_CONTEXT@@0PEAXPEAUFuncInfo4@FH4@@HHPEAUHandlerType4@5@PEAU_xDISPATCHER_CONTEXT@@E@Z 00000001800546b4     libvcruntime:risctrnsctrl.obj
 0002:0000f6c8       $unwind$?GetRangeOfTrysToCheck@__FrameHandler4@@SA?AU?$pair@Viterator@TryBlockMap4@FH4@@V123@@std@@AEAVTryBlockMap4@FH4@@HPEAU_xDISPATCHER_CONTEXT@@PEAUFuncInfo4@5@H@Z 00000001800546c8     libvcruntime:risctrnsctrl.obj
 0002:0000f6e4       $unwind$__CxxFrameHandler4 00000001800546e4     libvcruntime:risctrnsctrl.obj
 0002:0000f6f8       $unwind$??$_CallSETranslator@V__FrameHandler4@@@@YAHPEAUEHExceptionRecord@@PEA_KPEAU_CONTEXT@@PEAU_xDISPATCHER_CONTEXT@@PEAUFuncInfo4@FH4@@K1H@Z 00000001800546f8     libvcruntime:risctrnsctrl.obj
 0002:0000f718       $unwind$?filt$0@?0???$_CallSETranslator@V__FrameHandler4@@@@YAHPEAUEHExceptionRecord@@PEA_KPEAU_CONTEXT@@PEAU_xDISPATCHER_CONTEXT@@PEAUFuncInfo4@FH4@@K1H@Z@4HA 0000000180054718     libvcruntime:risctrnsctrl.obj
 0002:0000f724       $unwind$?try_get_function@@YAPEAXW4function_id@?A0x6b2bd6b2@@QEBDQEBW4module_id@2@2@Z 0000000180054724     libvcruntime:winapi_downlevel.obj
 0002:0000f724       $unwind$?try_get_function@@YAPEAXW4function_id@?A0x391cf84c@@QEBDQEBW4module_id@2@2@Z 0000000180054724     libucrt:winapi_thunks.obj
 0002:0000f740       $unwind$?StateFromIp@__FrameHandler4@@SAHPEAUFuncInfo4@FH4@@PEAU_xDISPATCHER_CONTEXT@@_K@Z 0000000180054740     libvcruntime:ehstate.obj
 0002:0000f754       $unwind$?getStartStop@UWMap4@FH4@@QEAAXHHAEAViterator@12@0@Z 0000000180054754     libvcruntime:frame.obj
 0002:0000f76c       $unwind$?FrameUnwindToState@__FrameHandler4@@SAXPEA_KPEAU_xDISPATCHER_CONTEXT@@PEAUFuncInfo4@FH4@@H@Z 000000018005476c     libvcruntime:frame.obj
 0002:0000f7b4       $unwind$?CxxCallCatchBlock@__FrameHandler4@@SAPEAXPEAU_EXCEPTION_RECORD@@@Z 00000001800547b4     libvcruntime:frame.obj
 0002:0000f810       $unwind$?IsInExceptionSpec@@YAEPEAUEHExceptionRecord@@PEBU_s_ESTypeList@@@Z 0000000180054810     libvcruntime:frame.obj
 0002:0000f82c       $unwind$??$__InternalCxxFrameHandler@V__FrameHandler4@@@@YA?AW4_EXCEPTION_DISPOSITION@@PEAUEHExceptionRecord@@PEA_KPEAU_CONTEXT@@PEAU_xDISPATCHER_CONTEXT@@PEAUFuncInfo4@FH4@@H1E@Z 000000018005482c     libvcruntime:frame.obj
 0002:0000f844       $unwind$__GSHandlerCheck_SEH 0000000180054844     LIBCMT:gshandlerseh.obj
 0002:0000f844       $unwind$??$TypeMatchHelper@V__FrameHandler3@@@@YAHPEBU_s_HandlerType@@PEBU_s_CatchableType@@PEBU_s_ThrowInfo@@@Z 0000000180054844     libvcruntime:frame.obj
 0002:0000f844       $unwind$??$TypeMatchHelper@V__FrameHandler4@@@@YAHPEAUHandlerType4@FH4@@PEBU_s_CatchableType@@PEBU_s_ThrowInfo@@@Z 0000000180054844     libvcruntime:frame.obj
 0002:0000f844       $unwind$?initialize_stdio_handles_nolock@@YAXXZ 0000000180054844     libucrt:ioinit.obj
 0002:0000f844       $unwind$__acrt_initialize_stdio 0000000180054844     libucrt:_file.obj
 0002:0000f844       $unwind$?type_case_integer@?$output_processor@DV?$string_output_adapter@D@__crt_stdio_output@@V?$format_validation_base@DV?$string_output_adapter@D@__crt_stdio_output@@@2@@__crt_stdio_output@@AEAA_NI_N@Z 0000000180054844     libucrt:output.obj
 0002:0000f85c       $unwind$??$BuildCatchObjectHelperInternal@V__FrameHandler4@@@@YAHPEAUEHExceptionRecord@@PEAXPEAUHandlerType4@FH4@@PEBU_s_CatchableType@@@Z 000000018005485c     libvcruntime:frame.obj
 0002:0000f89c       $unwind$??$BuildCatchObjectInternal@V__FrameHandler4@@@@YAXPEAUEHExceptionRecord@@PEAXPEAUHandlerType4@FH4@@PEBU_s_CatchableType@@@Z 000000018005489c     libvcruntime:frame.obj
 0002:0000f8c8       $unwind$??$FindHandler@V__FrameHandler4@@@@YAXPEAUEHExceptionRecord@@PEA_KPEAU_CONTEXT@@PEAU_xDISPATCHER_CONTEXT@@PEAUFuncInfo4@FH4@@EH1@Z 00000001800548c8     libvcruntime:frame.obj
 0002:0000f8e8       $unwind$??$CatchIt@V__FrameHandler4@@@@YAXPEAUEHExceptionRecord@@PEA_KPEAU_CONTEXT@@PEAU_xDISPATCHER_CONTEXT@@PEAUFuncInfo4@FH4@@PEAUHandlerType4@4@PEBU_s_CatchableType@@PEAUTryBlockMapEntry4@4@H1EE@Z 00000001800548e8     libvcruntime:frame.obj
 0002:0000f900       $unwind$??$FindHandlerForForeignException@V__FrameHandler4@@@@YAXPEAUEHExceptionRecord@@PEA_KPEAU_CONTEXT@@PEAU_xDISPATCHER_CONTEXT@@PEAUFuncInfo4@FH4@@HH1@Z 0000000180054900     libvcruntime:frame.obj
 0002:0000f920       $xdatasym                  0000000180054920     libvcruntime:handlers.obj
 0002:0000f940       $unwind$_CxxThrowException 0000000180054940     libvcruntime:throw.obj
 0002:0000f950       $xdatasym                  0000000180054950     libucrt:strcmp.obj
 0002:0000f954       $unwind$atan2f             0000000180054954     libucrt:atan2f.obj
 0002:0000f978       $xdatasym                  0000000180054978     libucrt:cosf.obj
 0002:0000f980       $xdatasym                  0000000180054980     libucrt:sinf.obj
 0002:0000f988       $unwind$?common_exit@@YAXHW4_crt_exit_cleanup_mode@@W4_crt_exit_return_mode@@@Z 0000000180054988     libucrt:exit.obj
 0002:0000f994       $unwind$??R<lambda_6e4b09c48022b2350581041d5f6b0c4c>@@QEBA@XZ 0000000180054994     libucrt:exit.obj
 0002:0000f9b4       $unwind$??$?RV<lambda_d80eeec6fff315bfe5c115232f3240e3>@@AEAV<lambda_6e4b09c48022b2350581041d5f6b0c4c>@@V<lambda_2358e3775559c9db80273638284d5e45>@@@?$__crt_seh_guarded_call@X@@QEAAX$$QEAV<lambda_d80eeec6fff315bfe5c115232f3240e3>@@AEAV<lambda_6e4b09c48022b2350581041d5f6b0c4c>@@$$QEAV<lambda_2358e3775559c9db80273638284d5e45>@@@Z 00000001800549b4     libucrt:exit.obj
 0002:0000f9d8       $unwind$_configure_narrow_argv 00000001800549d8     libucrt:argv_parsing.obj
 0002:0000f9ec       $unwind$?should_round_up@@YA_NQEBN_KFW4__acrt_rounding_mode@@@Z 00000001800549ec     libucrt:cvt.obj
 0002:0000f9ec       $unwind$??$parse_command_line@D@@YAXPEADPEAPEAD0PEA_K2@Z 00000001800549ec     libucrt:argv_parsing.obj
 0002:0000fa08       $unwind$??$free_environment@D@@YAXQEAPEAD@Z 0000000180054a08     libucrt:environment_initialization.obj
 0002:0000fa08       $unwind$??$free_environment@_W@@YAXQEAPEA_W@Z 0000000180054a08     libucrt:environment_initialization.obj
 0002:0000fa14       $unwind$??$create_environment@D@@YAQEAPEADQEAD@Z 0000000180054a14     libucrt:environment_initialization.obj
 0002:0000fa2c       $unwind$_execute_onexit_table 0000000180054a2c     libucrt:onexit.obj
 0002:0000fa34       $unwind$__acrt_fp_strflt_to_string 0000000180054a34     libucrt:_fptostr.obj
 0002:0000fa34       $unwind$__acrt_DownlevelLocaleNameToLCID 0000000180054a34     libucrt:lcidtoname_downlevel.obj
 0002:0000fa34       $unwind$??R<lambda_f03950bc5685219e0bcd2087efbe011e>@@QEBAHXZ 0000000180054a34     libucrt:onexit.obj
 0002:0000fa4c       $unwind$??$?RV<lambda_7777bce6b2f8c936911f934f8298dc43>@@AEAV<lambda_f03950bc5685219e0bcd2087efbe011e>@@V<lambda_3883c3dff614d5e0c5f61bb1ac94921c>@@@?$__crt_seh_guarded_call@H@@QEAAH$$QEAV<lambda_7777bce6b2f8c936911f934f8298dc43>@@AEAV<lambda_f03950bc5685219e0bcd2087efbe011e>@@$$QEAV<lambda_3883c3dff614d5e0c5f61bb1ac94921c>@@@Z 0000000180054a4c     libucrt:onexit.obj
 0002:0000fa70       $unwind$terminate          0000000180054a70     libucrt:terminate.obj
 0002:0000fa90       $unwind$?write_string@?$string_output_adapter@D@__crt_stdio_output@@QEBAXQEBDHQEAHAEAV__crt_deferred_errno_cache@@@Z 0000000180054a90     libucrt:output.obj
 0002:0000faa8       $unwind$??$common_vsprintf@Vformat_validation_base@__crt_stdio_output@@D@@YAH_KQEAD0QEBDQEAU__crt_locale_pointers@@1@Z 0000000180054aa8     libucrt:output.obj
 0002:0000fac8       $unwind$??$write_multiple_characters@V?$string_output_adapter@D@__crt_stdio_output@@D@__crt_stdio_output@@YAXAEBV?$string_output_adapter@D@0@DHQEAH@Z 0000000180054ac8     libucrt:output.obj
 0002:0000fad4       $unwind$?parse_int_from_format_string@?$output_processor@DV?$string_output_adapter@D@__crt_stdio_output@@V?$format_validation_base@DV?$string_output_adapter@D@__crt_stdio_output@@@2@@__crt_stdio_output@@AEAA_NQEAH@Z 0000000180054ad4     libucrt:output.obj
 0002:0000fae8       $unwind$?state_case_type@?$output_processor@DV?$string_output_adapter@D@__crt_stdio_output@@V?$format_validation_base@DV?$string_output_adapter@D@__crt_stdio_output@@@2@@__crt_stdio_output@@AEAA_NXZ 0000000180054ae8     libucrt:output.obj
 0002:0000fb00       $unwind$?type_case_a@?$output_processor@DV?$string_output_adapter@D@__crt_stdio_output@@V?$format_validation_base@DV?$string_output_adapter@D@__crt_stdio_output@@@2@@__crt_stdio_output@@AEAA_NXZ 0000000180054b00     libucrt:output.obj
 0002:0000fb0c       $unwind$?write_stored_string_tchar@?$output_processor@DV?$string_output_adapter@D@__crt_stdio_output@@V?$format_validation_base@DV?$string_output_adapter@D@__crt_stdio_output@@@2@@__crt_stdio_output@@AEAA_ND@Z 0000000180054b0c     libucrt:output.obj
 0002:0000fb24       $unwind$??$type_case_integer_parse_into_buffer@I@?$output_processor@DV?$string_output_adapter@D@__crt_stdio_output@@V?$format_validation_base@DV?$string_output_adapter@D@__crt_stdio_output@@@2@@__crt_stdio_output@@AEAAXII_N@Z 0000000180054b24     libucrt:output.obj
 0002:0000fb24       $unwind$??$type_case_integer_parse_into_buffer@_K@?$output_processor@DV?$string_output_adapter@D@__crt_stdio_output@@V?$format_validation_base@DV?$string_output_adapter@D@__crt_stdio_output@@@2@@__crt_stdio_output@@AEAAX_KI_N@Z 0000000180054b24     libucrt:output.obj
 0002:0000fb2c       $unwind$??$parse_integer@KV?$c_string_character_source@D@__crt_strtox@@@__crt_strtox@@YAKQEAU__crt_locale_pointers@@V?$c_string_character_source@D@0@H_N@Z 0000000180054b2c     libucrt:atox.obj
 0002:0000fb48       $xdatasym                  0000000180054b48     libucrt:strncmp.obj
 0002:0000fb4c       $unwind$_ctrlfp            0000000180054b4c     libucrt:fpctrl.obj
 0002:0000fb74       $unwind$_call_matherr      0000000180054b74     libucrt:libm_error.obj
 0002:0000fb7c       $unwind$_handle_error      0000000180054b7c     libucrt:libm_error.obj
 0002:0000fb7c       $unwind$_handle_errorf     0000000180054b7c     libucrt:libm_error.obj
 0002:0000fba0       $xdatasym                  0000000180054ba0     libucrt:remainder_piby2f_forasm.obj
 0002:0000fba8       $xdatasym                  0000000180054ba8     libucrt:remainder_piby2_forfma3.obj
 0002:0000fbb4       $unwind$_sincosf_special   0000000180054bb4     libucrt:sincos_special.obj
 0002:0000fbbc       $unwind$__acrt_initialize_fma3 0000000180054bbc     libucrt:fma3_available.obj
 0002:0000fbc8       $xdatasym                  0000000180054bc8     libucrt:remainder_piby2f_forc.obj
 0002:0000fbd8       $unwind$_free_base         0000000180054bd8     libucrt:free_base.obj
 0002:0000fbd8       $unwind$?destroy_fls@@YAXPEAX@Z 0000000180054bd8     libucrt:per_thread_data.obj
 0002:0000fbd8       $unwind$__acrt_locale_free_numeric 0000000180054bd8     libucrt:initnum.obj
 0002:0000fbd8       $unwind$__acrt_locale_free_lc_time_if_unreferenced 0000000180054bd8     libucrt:locale_refcounting.obj
 0002:0000fbe0       $unwind$?construct_ptd_array@@YAXQEAU__acrt_ptd@@@Z 0000000180054be0     libucrt:per_thread_data.obj
 0002:0000fbe8       $unwind$?destroy_ptd_array@@YAXQEAU__acrt_ptd@@@Z 0000000180054be8     libucrt:per_thread_data.obj
 0002:0000fbf0       $unwind$??$?RV<lambda_0ae27a3a962d80f24befdcbee591983d>@@AEAV<lambda_8d0ee55de4b1038c4002e0adecdf1839>@@V<lambda_dc504788e8f1664fe9b84e20bfb512f2>@@@?$__crt_seh_guarded_call@X@@QEAAX$$QEAV<lambda_0ae27a3a962d80f24befdcbee591983d>@@AEAV<lambda_8d0ee55de4b1038c4002e0adecdf1839>@@$$QEAV<lambda_dc504788e8f1664fe9b84e20bfb512f2>@@@Z 0000000180054bf0     libucrt:per_thread_data.obj
 0002:0000fc14       $unwind$??$?RV<lambda_aa87e3671a710a21b5dc78c0bdf72e11>@@AEAV<lambda_92619d2358a28f41a33ba319515a20b9>@@V<lambda_6992ecaafeb10aed2b74cb1fae11a551>@@@?$__crt_seh_guarded_call@X@@QEAAX$$QEAV<lambda_aa87e3671a710a21b5dc78c0bdf72e11>@@AEAV<lambda_92619d2358a28f41a33ba319515a20b9>@@$$QEAV<lambda_6992ecaafeb10aed2b74cb1fae11a551>@@@Z 0000000180054c14     libucrt:per_thread_data.obj
 0002:0000fc38       $unwind$??$?RV<lambda_f2e299630e499de9f9a165e60fcd3db5>@@AEAV<lambda_2ae9d31cdba2644fcbeaf08da7c24588>@@V<lambda_40d01ff24d0e7b3814fdbdcee8eab3c7>@@@?$__crt_seh_guarded_call@X@@QEAAX$$QEAV<lambda_f2e299630e499de9f9a165e60fcd3db5>@@AEAV<lambda_2ae9d31cdba2644fcbeaf08da7c24588>@@$$QEAV<lambda_40d01ff24d0e7b3814fdbdcee8eab3c7>@@@Z 0000000180054c38     libucrt:per_thread_data.obj
 0002:0000fc5c       $unwind$??$?RV<lambda_2d41944a1d46af3157314b8a01080d33>@@AEAV<lambda_8f455de75cd7d7f24b4096f044d8b9e6>@@V<lambda_aa500f224e6afead328df44964fe2772>@@@?$__crt_seh_guarded_call@X@@QEAAX$$QEAV<lambda_2d41944a1d46af3157314b8a01080d33>@@AEAV<lambda_8f455de75cd7d7f24b4096f044d8b9e6>@@$$QEAV<lambda_aa500f224e6afead328df44964fe2772>@@@Z 0000000180054c5c     libucrt:per_thread_data.obj
 0002:0000fc80       $unwind$__acrt_call_reportfault 0000000180054c80     libucrt:invalid_parameter.obj
 0002:0000fca0       $unwind$_invalid_parameter 0000000180054ca0     libucrt:invalid_parameter.obj
 0002:0000fcb4       $unwind$??$__acrt_mbs_to_wcs_cp@U__crt_win32_buffer_internal_dynamic_resizing@@@@YAHQEBDAEAV?$__crt_win32_buffer@_WU__crt_win32_buffer_internal_dynamic_resizing@@@@I@Z 0000000180054cb4     libucrt:argv_wildcards.obj
 0002:0000fccc       $unwind$__dcrt_get_narrow_environment_from_os 0000000180054ccc     libucrt:get_environment_from_os.obj
 0002:0000fccc       $unwind$?fp_format_f_internal@@YAHQEAD_KHQEAU_strflt@@_NQEAU__crt_locale_pointers@@@Z 0000000180054ccc     libucrt:cvt.obj
 0002:0000fccc       $unwind$??$__acrt_wcs_to_mbs_cp@U__crt_win32_buffer_internal_dynamic_resizing@@@@YAHQEB_WAEAV?$__crt_win32_buffer@DU__crt_win32_buffer_internal_dynamic_resizing@@@@I@Z 0000000180054ccc     libucrt:argv_wildcards.obj
 0002:0000fce4       $unwind$??$common_expand_argv_wildcards@D@@YAHQEAPEADQEAPEAPEAD@Z 0000000180054ce4     libucrt:argv_wildcards.obj
 0002:0000fcfc       $unwind$??$copy_and_add_argument_to_buffer@D@@YAHQEBD0_KAEAV?$argument_list@D@?A0x5f5c8891@@@Z 0000000180054cfc     libucrt:argv_wildcards.obj
 0002:0000fd18       $unwind$??$expand_argument_wildcards@D@@YAHQEAD0AEAV?$argument_list@D@?A0x5f5c8891@@@Z 0000000180054d18     libucrt:argv_wildcards.obj
 0002:0000fd3c       $unwind$__acrt_GetModuleFileNameA 0000000180054d3c     libucrt:getmodulefilenamea.obj
 0002:0000fd58       $unwind$__dcrt_write_console 0000000180054d58     libucrt:initcon.obj
 0002:0000fd58       $unwind$??$__acrt_wcs_to_mbs_cp@U__crt_win32_buffer_no_resizing@@@@YAHQEB_WAEAV?$__crt_win32_buffer@DU__crt_win32_buffer_no_resizing@@@@I@Z 0000000180054d58     libucrt:getmodulefilenamea.obj
 0002:0000fd6c       $unwind$_setmbcp_nolock    0000000180054d6c     libucrt:mbctype.obj
 0002:0000fd8c       $unwind$?update_thread_multibyte_data_internal@@YAPEAU__crt_multibyte_data@@QEAU__acrt_ptd@@QEAPEAU1@@Z 0000000180054d8c     libucrt:mbctype.obj
 0002:0000fdb4       $unwind$?setmbcp_internal@@YAHH_NQEAU__acrt_ptd@@QEAPEAU__crt_multibyte_data@@@Z 0000000180054db4     libucrt:mbctype.obj
 0002:0000fdc4       $unwind$?setSBUpLow@@YAXPEAU__crt_multibyte_data@@@Z 0000000180054dc4     libucrt:mbctype.obj
 0002:0000fde0       $unwind$??$?RV<lambda_efdfa57d1f175319df784efa44bb7b81>@@AEAV<lambda_5f0a4c1567f8adc6734073e5d1e1b35c>@@V<lambda_2e8a7d3640ea6ccb4c2413664c2db6fd>@@@?$__crt_seh_guarded_call@X@@QEAAX$$QEAV<lambda_efdfa57d1f175319df784efa44bb7b81>@@AEAV<lambda_5f0a4c1567f8adc6734073e5d1e1b35c>@@$$QEAV<lambda_2e8a7d3640ea6ccb4c2413664c2db6fd>@@@Z 0000000180054de0     libucrt:mbctype.obj
 0002:0000fe04       $unwind$?x_ismbbtype_l@@YAHPEAU__crt_locale_pointers@@IHH@Z 0000000180054e04     libucrt:ismbbyte.obj
 0002:0000fe14       $unwind$__acrt_WideCharToMultiByte 0000000180054e14     libucrt:widechartomultibyte.obj
 0002:0000fe20       $unwind$__acrt_initialize_winapi_thunks 0000000180054e20     libucrt:winapi_thunks.obj
 0002:0000fe28       $unwind$__acrt_initialize_lowio 0000000180054e28     libucrt:ioinit.obj
 0002:0000fe48       $unwind$?initialize_inherited_file_handles_nolock@@YAXXZ 0000000180054e48     libucrt:ioinit.obj
 0002:0000fe64       $unwind$_query_new_handler 0000000180054e64     libucrt:new_handler.obj
 0002:0000fe84       $unwind$__acrt_uninitialize_locale 0000000180054e84     libucrt:wsetlocale.obj
 0002:0000fe84       $unwind$__acrt_get_sigabrt_handler 0000000180054e84     libucrt:signal.obj
 0002:0000fe8c       $unwind$raise              0000000180054e8c     libucrt:signal.obj
 0002:0000fec8       $unwind$??$?RV<lambda_450d765d439847d4c735a33c368b5fc0>@@AEAV<lambda_44731a7d0e6d81c3e6aa82d741081786>@@V<lambda_601a2a7da3b7a96e9554ac7215c4b07c>@@@?$__crt_seh_guarded_call@P6AXH@Z@@QEAAP6AXH@Z$$QEAV<lambda_450d765d439847d4c735a33c368b5fc0>@@AEAV<lambda_44731a7d0e6d81c3e6aa82d741081786>@@$$QEAV<lambda_601a2a7da3b7a96e9554ac7215c4b07c>@@@Z 0000000180054ec8     libucrt:signal.obj
 0002:0000feec       $unwind$?common_flush_all@@YAH_N@Z 0000000180054eec     libucrt:fflush.obj
 0002:0000fef4       $unwind$??$?RV<lambda_842d9ff0dc9ef11c61343bbaebe7f885>@@AEAV<lambda_c5860995281e5c4ce005b3de8f5874ee>@@V<lambda_d90129c13df834fdcbf8d2b88dafcf2d>@@@?$__crt_seh_guarded_call@X@@QEAAX$$QEAV<lambda_842d9ff0dc9ef11c61343bbaebe7f885>@@AEAV<lambda_c5860995281e5c4ce005b3de8f5874ee>@@$$QEAV<lambda_d90129c13df834fdcbf8d2b88dafcf2d>@@@Z 0000000180054ef4     libucrt:fflush.obj
 0002:0000ff18       $unwind$??$?RV<lambda_886d6c58226a84441f68b9f2b8217b83>@@AEAV<lambda_ab61a845afdef5b7c387490eaf3616ee>@@V<lambda_f7f22ab5edc0698d5f6905b0d3f44752>@@@?$__crt_seh_guarded_call@X@@QEAAX$$QEAV<lambda_886d6c58226a84441f68b9f2b8217b83>@@AEAV<lambda_ab61a845afdef5b7c387490eaf3616ee>@@$$QEAV<lambda_f7f22ab5edc0698d5f6905b0d3f44752>@@@Z 0000000180054f18     libucrt:fflush.obj
 0002:0000ff40       $unwind$_wctomb_s_l        0000000180054f40     libucrt:wctomb.obj
 0002:0000ff50       $unwind$__acrt_fp_format   0000000180054f50     libucrt:cvt.obj
 0002:0000ff68       $unwind$?fp_format_e_internal@@YAHQEAD_KH_NIQEAU_strflt@@2QEAU__crt_locale_pointers@@@Z 0000000180054f68     libucrt:cvt.obj
 0002:0000ff80       $unwind$?fp_format_a@@YAHQEBNPEAD_KQEAD2H_NIQEAU__crt_locale_pointers@@W4__acrt_rounding_mode@@@Z 0000000180054f80     libucrt:cvt.obj
 0002:0000ff9c       $unwind$?fp_format_g@@YAHQEBNQEAD_K12H_NIW4__acrt_rounding_mode@@QEAU__crt_locale_pointers@@@Z 0000000180054f9c     libucrt:cvt.obj
 0002:0000ffb0       $unwind$??$?RV<lambda_410d79af7f07d98d83a3f525b3859a53>@@AEAV<lambda_3e16ef9562a7dcce91392c22ab16ea36>@@V<lambda_38119f0e861e05405d8a144b9b982f0a>@@@?$__crt_seh_guarded_call@X@@QEAAX$$QEAV<lambda_410d79af7f07d98d83a3f525b3859a53>@@AEAV<lambda_3e16ef9562a7dcce91392c22ab16ea36>@@$$QEAV<lambda_38119f0e861e05405d8a144b9b982f0a>@@@Z 0000000180054fb0     libucrt:wsetlocale.obj
 0002:0000ffd8       $unwind$_isctype_l         0000000180054fd8     libucrt:isctype.obj
 0002:0000fff8       $xdatasym                  0000000180054ff8     libucrt:fpsr.obj
 0002:00010000       $unwind$_raise_exc_ex      0000000180055000     libucrt:fpexcept.obj
 0002:00010014       $unwind$__acrt_update_thread_locale_data 0000000180055014     libucrt:locale_refcounting.obj
 0002:00010038       $unwind$qsort              0000000180055038     libucrt:qsort.obj
 0002:00010050       $chain$4$qsort             0000000180055050     libucrt:qsort.obj
 0002:00010074       $chain$5$qsort             0000000180055074     libucrt:qsort.obj
 0002:00010084       $unwind$strpbrk            0000000180055084     libucrt:strpbrk.obj
 0002:00010094       $unwind$fallbackMethod     0000000180055094     libucrt:strpbrk.obj
 0002:000100a4       $unwind$__acrt_GetStringTypeA 00000001800550a4     libucrt:getstringtypea.obj
 0002:000100cc       $unwind$?__acrt_LCMapStringA_stat@@YAHPEAU__crt_locale_pointers@@PEB_WKPEBDHPEADHHH@Z 00000001800550cc     libucrt:lcmapstringa.obj
 0002:000100f4       $unwind$__acrt_lowio_destroy_handle_array 00000001800550f4     libucrt:osfinfo.obj
 0002:00010104       $unwind$__acrt_lowio_ensure_fh_exists 0000000180055104     libucrt:osfinfo.obj
 0002:00010130       $unwind$_close             0000000180055130     libucrt:close.obj
 0002:00010130       $unwind$_commit            0000000180055130     libucrt:commit.obj
 0002:00010138       $unwind$??$?RV<lambda_a37b2b86f63e897a80ea819b0eb08c01>@@AEAV<lambda_38ce7e780aa69e748d6df282ebc68efe>@@V<lambda_99fb1378e971ab6e7edea83e3a7a83a2>@@@?$__crt_seh_guarded_call@H@@QEAAH$$QEAV<lambda_a37b2b86f63e897a80ea819b0eb08c01>@@AEAV<lambda_38ce7e780aa69e748d6df282ebc68efe>@@$$QEAV<lambda_99fb1378e971ab6e7edea83e3a7a83a2>@@@Z 0000000180055138     libucrt:commit.obj
 0002:0001015c       $unwind$_write             000000018005515c     libucrt:write.obj
 0002:0001018c       $unwind$_write_nolock      000000018005518c     libucrt:write.obj
 0002:000101a4       $unwind$?write_double_translated_ansi_nolock@@YA?AUwrite_result@?A0x17268360@@HQEBDI@Z 00000001800551a4     libucrt:write.obj
 0002:000101c8       $unwind$?write_text_ansi_nolock@@YA?AUwrite_result@?A0x17268360@@HQEBDI@Z 00000001800551c8     libucrt:write.obj
 0002:000101c8       $unwind$?write_text_utf16le_nolock@@YA?AUwrite_result@?A0x17268360@@HQEBDI@Z 00000001800551c8     libucrt:write.obj
 0002:000101e8       $unwind$?write_text_utf8_nolock@@YA?AUwrite_result@?A0x17268360@@HQEBDI@Z 00000001800551e8     libucrt:write.obj
 0002:0001020c       $unwind$_fcloseall         000000018005520c     libucrt:closeall.obj
 0002:00010230       $unwind$?__mbsrtowcs_utf8@__crt_mbstring@@YA_KPEA_WPEAPEBD_KPEAU_Mbstatet@@@Z 0000000180055230     libucrt:mbrtowc.obj
 0002:00010248       $unwind$__acrt_fltout      0000000180055248     libucrt:cfout.obj
 0002:00010268       $unwind$?divide@__crt_strtox@@YA_KAEAUbig_integer@1@AEBU21@@Z 0000000180055268     libucrt:cfout.obj
 0002:00010280       $chain$0$?divide@__crt_strtox@@YA_KAEAUbig_integer@1@AEBU21@@Z 0000000180055280     libucrt:cfout.obj
 0002:00010294       $chain$1$?divide@__crt_strtox@@YA_KAEAUbig_integer@1@AEBU21@@Z 0000000180055294     libucrt:cfout.obj
 0002:000102a4       $unwind$__acrt_locale_free_monetary 00000001800552a4     libucrt:initmon.obj
 0002:000102ac       $unwind$__acrt_locale_free_time 00000001800552ac     libucrt:inittime.obj
 0002:000102bc       $unwind$_putwch_nolock     00000001800552bc     libucrt:putwch.obj
 0002:000102c4       $unwind$fclose             00000001800552c4     libucrt:fclose.obj
 0002:000102e8       $unwind$?__mbrtoc32_utf8@__crt_mbstring@@YA_KPEA_UPEBD_KPEAU_Mbstatet@@@Z 00000001800552e8     libucrt:mbrtoc32.obj
 0002:00010308       $xdatasym                  0000000180055308     libucrt:log10.obj
 0002:00010314       $unwind$__acrt_fenv_set_control 0000000180055314     libucrt:_fenvutils.obj
 0002:00010324       $unwind$??$?RV<lambda_751a882b2c74d4b022dec766aa51a29a>@@AEAV<lambda_628dfdc04ba53c8bfc02c9951375f3f5>@@V<lambda_f6c7be5f7998530c34de24c7437d6b54>@@@?$__crt_seh_guarded_call@H@@QEAAH$$QEAV<lambda_751a882b2c74d4b022dec766aa51a29a>@@AEAV<lambda_628dfdc04ba53c8bfc02c9951375f3f5>@@$$QEAV<lambda_f6c7be5f7998530c34de24c7437d6b54>@@@Z 0000000180055324     libucrt:close.obj
 0002:00010348       $unwind$common_control87   0000000180055348     libucrt:ieee.obj
 0002:00010374       $unwind$_log_special_common 0000000180055374     libucrt:log_special.obj
 0002:00010380       $unwind$_IsNonwritableInCurrentImage 0000000180055380     LIBCMT:pesect.obj
 0002:000103a4       $unwind$__GSHandlerCheckCommon 00000001800553a4     LIBCMT:gshandler.obj
 0002:000103b0       $xdatasym                  00000001800553b0     LIBCMT:amdsecgs.obj
 0002:000103b4       $unwind$__report_securityfailure 00000001800553b4     LIBCMT:gs_report.obj
 0002:000103bc       $unwind$__report_gsfailure 00000001800553bc     LIBCMT:gs_report.obj
 0002:000103c4       $unwind$capture_current_context 00000001800553c4     LIBCMT:gs_report.obj
 0002:000103d0       $unwind$capture_previous_context 00000001800553d0     LIBCMT:gs_report.obj
 0002:000103e0       $xdatasym                  00000001800553e0     libvcruntime:memcmp.obj
 0002:00011280       .edata                     0000000180056280     PhysXCooking_64.exp
 0002:000112a8       rgpv                       00000001800562a8     PhysXCooking_64.exp
 0002:00011494       rgszName                   0000000180056494     PhysXCooking_64.exp
 0002:00011680       rgwOrd                     0000000180056680     PhysXCooking_64.exp
 0002:00011776       szName                     0000000180056776     PhysXCooking_64.exp
 0002:0001178a       $N00001                    000000018005678a     PhysXCooking_64.exp
 0002:000117b9       $N00002                    00000001800567b9     PhysXCooking_64.exp
 0002:000117e0       $N00003                    00000001800567e0     PhysXCooking_64.exp
 0002:0001181b       $N00004                    000000018005681b     PhysXCooking_64.exp
 0002:00011842       $N00005                    0000000180056842     PhysXCooking_64.exp
 0002:0001186e       $N00006                    000000018005686e     PhysXCooking_64.exp
 0002:0001188f       $N00007                    000000018005688f     PhysXCooking_64.exp
 0002:000118c4       $N00008                    00000001800568c4     PhysXCooking_64.exp
 0002:000118dd       $N00009                    00000001800568dd     PhysXCooking_64.exp
 0002:000118fd       $N00010                    00000001800568fd     PhysXCooking_64.exp
 0002:00011926       $N00011                    0000000180056926     PhysXCooking_64.exp
 0002:0001194d       $N00012                    000000018005694d     PhysXCooking_64.exp
 0002:0001197c       $N00013                    000000018005697c     PhysXCooking_64.exp
 0002:000119a9       $N00014                    00000001800569a9     PhysXCooking_64.exp
 0002:000119da       $N00015                    00000001800569da     PhysXCooking_64.exp
 0002:000119ff       $N00016                    00000001800569ff     PhysXCooking_64.exp
 0002:00011a2a       $N00017                    0000000180056a2a     PhysXCooking_64.exp
 0002:00011a50       $N00018                    0000000180056a50     PhysXCooking_64.exp
 0002:00011a6f       $N00019                    0000000180056a6f     PhysXCooking_64.exp
 0002:00011aa5       $N00020                    0000000180056aa5     PhysXCooking_64.exp
 0002:00011acf       $N00021                    0000000180056acf     PhysXCooking_64.exp
 0002:00011af6       $N00022                    0000000180056af6     PhysXCooking_64.exp
 0002:00011b1f       $N00023                    0000000180056b1f     PhysXCooking_64.exp
 0002:00011b38       $N00024                    0000000180056b38     PhysXCooking_64.exp
 0002:00011b5d       $N00025                    0000000180056b5d     PhysXCooking_64.exp
 0002:00011b7c       $N00026                    0000000180056b7c     PhysXCooking_64.exp
 0002:00011b9b       $N00027                    0000000180056b9b     PhysXCooking_64.exp
 0002:00011bbb       $N00028                    0000000180056bbb     PhysXCooking_64.exp
 0002:00011bf1       $N00029                    0000000180056bf1     PhysXCooking_64.exp
 0002:00011c29       $N00030                    0000000180056c29     PhysXCooking_64.exp
 0002:00011c5d       $N00031                    0000000180056c5d     PhysXCooking_64.exp
 0002:00011c8f       $N00032                    0000000180056c8f     PhysXCooking_64.exp
 0002:00011cbc       $N00033                    0000000180056cbc     PhysXCooking_64.exp
 0002:00011ce4       $N00034                    0000000180056ce4     PhysXCooking_64.exp
 0002:00011d15       $N00035                    0000000180056d15     PhysXCooking_64.exp
 0002:00011d44       $N00036                    0000000180056d44     PhysXCooking_64.exp
 0002:00011d74       $N00037                    0000000180056d74     PhysXCooking_64.exp
 0002:00011da2       $N00038                    0000000180056da2     PhysXCooking_64.exp
 0002:00011dd3       $N00039                    0000000180056dd3     PhysXCooking_64.exp
 0002:00011e09       $N00040                    0000000180056e09     PhysXCooking_64.exp
 0002:00011e3d       $N00041                    0000000180056e3d     PhysXCooking_64.exp
 0002:00011e6f       $N00042                    0000000180056e6f     PhysXCooking_64.exp
 0002:00011ea1       $N00043                    0000000180056ea1     PhysXCooking_64.exp
 0002:00011ecd       $N00044                    0000000180056ecd     PhysXCooking_64.exp
 0002:00011ee9       $N00045                    0000000180056ee9     PhysXCooking_64.exp
 0002:00011f13       $N00046                    0000000180056f13     PhysXCooking_64.exp
 0002:00011f37       $N00047                    0000000180056f37     PhysXCooking_64.exp
 0002:00011f60       $N00048                    0000000180056f60     PhysXCooking_64.exp
 0002:00011f92       $N00049                    0000000180056f92     PhysXCooking_64.exp
 0002:00011fb9       $N00050                    0000000180056fb9     PhysXCooking_64.exp
 0002:00011fe7       $N00051                    0000000180056fe7     PhysXCooking_64.exp
 0002:00012012       $N00052                    0000000180057012     PhysXCooking_64.exp
 0002:0001203f       $N00053                    000000018005703f     PhysXCooking_64.exp
 0002:00012068       $N00054                    0000000180057068     PhysXCooking_64.exp
 0002:00012097       $N00055                    0000000180057097     PhysXCooking_64.exp
 0002:000120c0       $N00056                    00000001800570c0     PhysXCooking_64.exp
 0002:000120e9       $N00057                    00000001800570e9     PhysXCooking_64.exp
 0002:00012117       $N00058                    0000000180057117     PhysXCooking_64.exp
 0002:0001213f       $N00059                    000000018005713f     PhysXCooking_64.exp
 0002:0001217a       $N00060                    000000018005717a     PhysXCooking_64.exp
 0002:000121a4       $N00061                    00000001800571a4     PhysXCooking_64.exp
 0002:000121d8       $N00062                    00000001800571d8     PhysXCooking_64.exp
 0002:0001220e       $N00063                    000000018005720e     PhysXCooking_64.exp
 0002:0001224a       $N00064                    000000018005724a     PhysXCooking_64.exp
 0002:00012292       $N00065                    0000000180057292     PhysXCooking_64.exp
 0002:000122e2       $N00066                    00000001800572e2     PhysXCooking_64.exp
 0002:00012316       $N00067                    0000000180057316     PhysXCooking_64.exp
 0002:0001234b       $N00068                    000000018005734b     PhysXCooking_64.exp
 0002:00012381       $N00069                    0000000180057381     PhysXCooking_64.exp
 0002:000123a8       $N00070                    00000001800573a8     PhysXCooking_64.exp
 0002:000123f0       $N00071                    00000001800573f0     PhysXCooking_64.exp
 0002:00012436       $N00072                    0000000180057436     PhysXCooking_64.exp
 0002:0001248e       $N00073                    000000018005748e     PhysXCooking_64.exp
 0002:000124d5       $N00074                    00000001800574d5     PhysXCooking_64.exp
 0002:00012500       $N00075                    0000000180057500     PhysXCooking_64.exp
 0002:00012530       $N00076                    0000000180057530     PhysXCooking_64.exp
 0002:00012580       $N00077                    0000000180057580     PhysXCooking_64.exp
 0002:0001262f       $N00078                    000000018005762f     PhysXCooking_64.exp
 0002:0001268d       $N00079                    000000018005768d     PhysXCooking_64.exp
 0002:000126b9       $N00080                    00000001800576b9     PhysXCooking_64.exp
 0002:000126e5       $N00081                    00000001800576e5     PhysXCooking_64.exp
 0002:0001271a       $N00082                    000000018005771a     PhysXCooking_64.exp
 0002:00012743       $N00083                    0000000180057743     PhysXCooking_64.exp
 0002:0001277f       $N00084                    000000018005777f     PhysXCooking_64.exp
 0002:000127ab       $N00085                    00000001800577ab     PhysXCooking_64.exp
 0002:000127de       $N00086                    00000001800577de     PhysXCooking_64.exp
 0002:0001282b       $N00087                    000000018005782b     PhysXCooking_64.exp
 0002:0001285e       $N00088                    000000018005785e     PhysXCooking_64.exp
 0002:00012898       $N00089                    0000000180057898     PhysXCooking_64.exp
 0002:000128d2       $N00090                    00000001800578d2     PhysXCooking_64.exp
 0002:0001290e       $N00091                    000000018005790e     PhysXCooking_64.exp
 0002:00012952       $N00092                    0000000180057952     PhysXCooking_64.exp
 0002:00012981       $N00093                    0000000180057981     PhysXCooking_64.exp
 0002:000129fb       $N00094                    00000001800579fb     PhysXCooking_64.exp
 0002:00012a58       $N00095                    0000000180057a58     PhysXCooking_64.exp
 0002:00012a84       $N00096                    0000000180057a84     PhysXCooking_64.exp
 0002:00012ab8       $N00097                    0000000180057ab8     PhysXCooking_64.exp
 0002:00012af1       $N00098                    0000000180057af1     PhysXCooking_64.exp
 0002:00012b2e       $N00099                    0000000180057b2e     PhysXCooking_64.exp
 0002:00012b64       $N00100                    0000000180057b64     PhysXCooking_64.exp
 0002:00012b91       $N00101                    0000000180057b91     PhysXCooking_64.exp
 0002:00012bbe       $N00102                    0000000180057bbe     PhysXCooking_64.exp
 0002:00012be9       $N00103                    0000000180057be9     PhysXCooking_64.exp
 0002:00012c15       $N00104                    0000000180057c15     PhysXCooking_64.exp
 0002:00012c42       $N00105                    0000000180057c42     PhysXCooking_64.exp
 0002:00012c62       $N00106                    0000000180057c62     PhysXCooking_64.exp
 0002:00012c9e       $N00107                    0000000180057c9e     PhysXCooking_64.exp
 0002:00012ccf       $N00108                    0000000180057ccf     PhysXCooking_64.exp
 0002:00012d01       $N00109                    0000000180057d01     PhysXCooking_64.exp
 0002:00012d43       $N00110                    0000000180057d43     PhysXCooking_64.exp
 0002:00012d70       $N00111                    0000000180057d70     PhysXCooking_64.exp
 0002:00012d94       $N00112                    0000000180057d94     PhysXCooking_64.exp
 0002:00012dc4       $N00113                    0000000180057dc4     PhysXCooking_64.exp
 0002:00012df7       $N00114                    0000000180057df7     PhysXCooking_64.exp
 0002:00012e1c       $N00115                    0000000180057e1c     PhysXCooking_64.exp
 0002:00012e4a       $N00116                    0000000180057e4a     PhysXCooking_64.exp
 0002:00012e72       $N00117                    0000000180057e72     PhysXCooking_64.exp
 0002:00012e92       $N00118                    0000000180057e92     PhysXCooking_64.exp
 0002:00012ed7       $N00119                    0000000180057ed7     PhysXCooking_64.exp
 0002:00012f14       $N00120                    0000000180057f14     PhysXCooking_64.exp
