 PhysX_64

 Timestamp is 61c61bf7 (Fri Dec 24 11:13:59 2021)

 Preferred load address is 0000000180000000

 Start         Length     Name                   Class
 0001:00000000 00002da0H .text$di                CODE
 0001:00002da0 00183f00H .text$mn                CODE
 0001:00186ca0 00000040H .text$mn$00             CODE
 0001:00186ce0 00000490H .text$x                 CODE
 0002:00000000 00000288H .idata$5                DATA
 0002:00000288 00000028H .00cfg                  DATA
 0002:000002b0 00000008H .CRT$XCA                DATA
 0002:000002b8 00001690H .CRT$XCU                DATA
 0002:00001948 00000008H .CRT$XCZ                DATA
 0002:00001950 00000008H .CRT$XIA                DATA
 0002:00001958 00000018H .CRT$XIC                DATA
 0002:00001970 00000008H .CRT$XIZ                DATA
 0002:00001978 00000008H .CRT$XPA                DATA
 0002:00001980 00000010H .CRT$XPX                DATA
 0002:00001990 00000008H .CRT$XPXA               DATA
 0002:00001998 00000008H .CRT$XPZ                DATA
 0002:000019a0 00000008H .CRT$XTA                DATA
 0002:000019a8 00000008H .CRT$XTZ                DATA
 0002:000019b0 00000000H .gehcont$y              DATA
 0002:000019b0 00000000H .gfids$y                DATA
 0002:000019b0 0001b8d0H .rdata                  DATA
 0002:0001d280 00000000H .rdata$CastGuardVftablesA DATA
 0002:0001d280 00000000H .rdata$CastGuardVftablesC DATA
 0002:0001d280 0000043cH .rdata$r                DATA
 0002:0001d6bc 0000092cH .rdata$voltmd           DATA
 0002:0001dfe8 00000420H .rdata$zzzdbg           DATA
 0002:0001e408 00000008H .rtc$IAA                DATA
 0002:0001e410 00000008H .rtc$IZZ                DATA
 0002:0001e418 00000008H .rtc$TAA                DATA
 0002:0001e420 00000008H .rtc$TZZ                DATA
 0002:0001e428 00016f88H .xdata                  DATA
 0002:000353b0 00000084H .xdata$x                DATA
 0002:00035434 00000040H .didat$2                DATA
 0002:00035474 00000024H .didat$3                DATA
 0002:00035498 00000670H .didat$4                DATA
 0002:00035b08 00004820H .didat$6                DATA
 0002:0003a328 00000678H .didat$7                DATA
 0002:0003a9a0 000028d8H .edata                  DATA
 0002:0003d278 00000014H .idata$2                DATA
 0002:0003d28c 00000014H .idata$3                DATA
 0002:0003d2a0 00000288H .idata$4                DATA
 0002:0003d528 000005f4H .idata$6                DATA
 0003:00000000 00001460H .data                   DATA
 0003:00001460 00002e90H .data$r                 DATA
 0003:000042f0 000000f0H .data$rs                DATA
 0003:000043e0 00000670H .didat$5                DATA
 0003:00004a50 000040e0H .bss                    DATA
 0004:00000000 000127d4H .pdata                  DATA
 0005:00000000 00002304H _RDATA                  DATA
 0006:00000000 000000a0H .rsrc$01                DATA
 0006:000000a0 00000488H .rsrc$02                DATA

  Address         Publics by Value              Rva+Base               Lib:Object

 0000:00000000       __x64_code_ranges_to_entry_points 0000000000000000     <absolute>
 0000:00000000       __dynamic_value_reloc_table 0000000000000000     <absolute>
 0000:00000000       __guard_longjmp_table      0000000000000000     <absolute>
 0000:00000000       __guard_fids_count         0000000000000000     <absolute>
 0000:00000000       __hybrid_auxiliary_iat     0000000000000000     <absolute>
 0000:00000000       __hybrid_auxiliary_iat_copy 0000000000000000     <absolute>
 0000:00000000       __arm64x_extra_rfe_table   0000000000000000     <absolute>
 0000:00000000       __hybrid_code_map          0000000000000000     <absolute>
 0000:00000000       __arm64x_extra_rfe_table_size 0000000000000000     <absolute>
 0000:00000000       __guard_iat_table          0000000000000000     <absolute>
 0000:00000000       __AbsoluteZero             0000000000000000     <absolute>
 0000:00000000       ___safe_se_handler_count   0000000000000000     <absolute>
 0000:00000000       __guard_iat_count          0000000000000000     <absolute>
 0000:00000000       __guard_check_icall_a64n_fptr 0000000000000000     <absolute>
 0000:00000000       __arm64x_redirection_metadata 0000000000000000     <absolute>
 0000:00000000       __guard_longjmp_count      0000000000000000     <absolute>
 0000:00000000       __guard_fids_table         0000000000000000     <absolute>
 0000:00000000       __guard_eh_cont_count      0000000000000000     <absolute>
 0000:00000000       __x64_code_ranges_to_entry_points_count 0000000000000000     <absolute>
 0000:00000000       __arm64x_redirection_metadata_count 0000000000000000     <absolute>
 0000:00000000       __enclave_config           0000000000000000     <absolute>
 0000:00000000       ___safe_se_handler_table   0000000000000000     <absolute>
 0000:00000000       __guard_eh_cont_table      0000000000000000     <absolute>
 0000:00000000       __arm64x_native_entrypoint 0000000000000000     <absolute>
 0000:00000000       __hybrid_code_map_count    0000000000000000     <absolute>
 0000:00000100       __guard_flags              0000000000000100     <absolute>
 0000:00000000       __ImageBase                0000000180000000     <linker-defined>
 0001:00002da0       ??0PxActorGeneratedInfo@physx@@QEAA@XZ 0000000180003da0 f   PxAutoGeneratedMetaDataObjects.obj
 0001:00002ed0       ??0PxActorGeneratedValues@physx@@QEAA@PEBVPxActor@1@@Z 0000000180003ed0 f   PxAutoGeneratedMetaDataObjects.obj
 0001:00002f50       ??0PxAggregateGeneratedInfo@physx@@QEAA@XZ 0000000180003f50 f   PxAutoGeneratedMetaDataObjects.obj
 0001:00002fe0       ??0PxAggregateGeneratedValues@physx@@QEAA@PEBVPxAggregate@1@@Z 0000000180003fe0 f   PxAutoGeneratedMetaDataObjects.obj
 0001:00003030       ??0PxArticulationBaseGeneratedInfo@physx@@QEAA@XZ 0000000180004030 f   PxAutoGeneratedMetaDataObjects.obj
 0001:00003200       ??0PxArticulationBaseGeneratedValues@physx@@QEAA@PEBVPxArticulationBase@1@@Z 0000000180004200 f   PxAutoGeneratedMetaDataObjects.obj
 0001:000032a0       ??0PxArticulationGeneratedInfo@physx@@QEAA@XZ 00000001800042a0 f   PxAutoGeneratedMetaDataObjects.obj
 0001:00003390       ??0PxArticulationGeneratedValues@physx@@QEAA@PEBVPxArticulation@1@@Z 0000000180004390 f   PxAutoGeneratedMetaDataObjects.obj
 0001:00003400       ??0PxArticulationJointBaseGeneratedInfo@physx@@QEAA@XZ 0000000180004400 f   PxAutoGeneratedMetaDataObjects.obj
 0001:00003460       ??0PxArticulationJointBaseGeneratedValues@physx@@QEAA@PEBVPxArticulationJointBase@1@@Z 0000000180004460 f   PxAutoGeneratedMetaDataObjects.obj
 0001:000034a0       ??0PxArticulationJointGeneratedInfo@physx@@QEAA@XZ 00000001800044a0 f   PxAutoGeneratedMetaDataObjects.obj
 0001:00003850       ??0PxArticulationJointGeneratedValues@physx@@QEAA@PEBVPxArticulationJoint@1@@Z 0000000180004850 f   PxAutoGeneratedMetaDataObjects.obj
 0001:000039a0       ??0PxArticulationJointReducedCoordinateGeneratedInfo@physx@@QEAA@XZ 00000001800049a0 f   PxAutoGeneratedMetaDataObjects.obj
 0001:00003ae0       ??0PxArticulationJointReducedCoordinateGeneratedValues@physx@@QEAA@PEBVPxArticulationJointReducedCoordinate@1@@Z 0000000180004ae0 f   PxAutoGeneratedMetaDataObjects.obj
 0001:00003ba0       ??0PxArticulationLinkGeneratedInfo@physx@@QEAA@XZ 0000000180004ba0 f   PxAutoGeneratedMetaDataObjects.obj
 0001:00003c90       ??0PxArticulationLinkGeneratedValues@physx@@QEAA@PEBVPxArticulationLink@1@@Z 0000000180004c90 f   PxAutoGeneratedMetaDataObjects.obj
 0001:00003d00       ??0PxArticulationReducedCoordinateGeneratedInfo@physx@@QEAA@XZ 0000000180004d00 f   PxAutoGeneratedMetaDataObjects.obj
 0001:00003dc0       ??0PxArticulationReducedCoordinateGeneratedValues@physx@@QEAA@PEBVPxArticulationReducedCoordinate@1@@Z 0000000180004dc0 f   PxAutoGeneratedMetaDataObjects.obj
 0001:00003e20       ??0PxBoxGeometryGeneratedInfo@physx@@QEAA@XZ 0000000180004e20 f   PxAutoGeneratedMetaDataObjects.obj
 0001:00003e50       ??0PxBoxGeometryGeneratedValues@physx@@QEAA@PEBVPxBoxGeometry@1@@Z 0000000180004e50 f   PxAutoGeneratedMetaDataObjects.obj
 0001:00003e50       ?getPxBoxGeometryHalfExtents@@YA?AVPxVec3@physx@@PEBVPxBoxGeometry@2@@Z 0000000180004e50 f   PxAutoGeneratedMetaDataObjects.obj
 0001:00003e70       ??0PxCapsuleGeometryGeneratedInfo@physx@@QEAA@XZ 0000000180004e70 f   PxAutoGeneratedMetaDataObjects.obj
 0001:00003ed0       ??0PxCapsuleGeometryGeneratedValues@physx@@QEAA@PEBVPxCapsuleGeometry@1@@Z 0000000180004ed0 f   PxAutoGeneratedMetaDataObjects.obj
 0001:00003ee0       ??0PxConstraintGeneratedInfo@physx@@QEAA@XZ 0000000180004ee0 f   PxAutoGeneratedMetaDataObjects.obj
 0001:00004030       ??0PxConstraintGeneratedValues@physx@@QEAA@PEBVPxConstraint@1@@Z 0000000180005030 f   PxAutoGeneratedMetaDataObjects.obj
 0001:000040c0       ??0PxConvexMeshGeometryGeneratedInfo@physx@@QEAA@XZ 00000001800050c0 f   PxAutoGeneratedMetaDataObjects.obj
 0001:00004140       ??0PxConvexMeshGeometryGeneratedValues@physx@@QEAA@PEBVPxConvexMeshGeometry@1@@Z 0000000180005140 f   PxAutoGeneratedMetaDataObjects.obj
 0001:00004180       ??0PxPlaneGeometryGeneratedValues@physx@@QEAA@PEBVPxPlaneGeometry@1@@Z 0000000180005180 f   PxAutoGeneratedMetaDataObjects.obj
 0001:00004180       ??0PxGeometryGeneratedValues@physx@@QEAA@PEBVPxGeometry@1@@Z 0000000180005180 f   PxAutoGeneratedMetaDataObjects.obj
 0001:00004180       ??4ThreadImpl@shdfnd@physx@@QEAAAEAV012@AEBV012@@Z 0000000180005180 f   NpActor.obj
 0001:00004180       ??$forward@_K@std@@YA$$QEA_KAEA_K@Z 0000000180005180 f   libvcruntime:undname.obj
 0001:00004180       ??4SyncImpl@shdfnd@physx@@QEAAAEAV012@AEBV012@@Z 0000000180005180 f   NpActor.obj
 0001:00004180       ??4PxFoundation@physx@@QEAAAEAV01@AEBV01@@Z 0000000180005180 f   PxMetaDataObjects.obj
 0001:00004180       ??0PxPlaneGeometryGeneratedInfo@physx@@QEAA@XZ 0000000180005180 f   PxAutoGeneratedMetaDataObjects.obj
 0001:00004180       ??4Allocator@shdfnd@physx@@QEAAAEAV012@AEBV012@@Z 0000000180005180 f   PxMetaDataObjects.obj
 0001:00004180       ??4Allocator@shdfnd@physx@@QEAAAEAV012@$$QEAV012@@Z 0000000180005180 f   PxMetaDataObjects.obj
 0001:00004180       ??0Allocator@shdfnd@physx@@QEAA@PEBD@Z 0000000180005180 f   PxMetaDataObjects.obj
 0001:00004180       ??4MutexImpl@shdfnd@physx@@QEAAAEAV012@AEBV012@@Z 0000000180005180 f   PxMetaDataObjects.obj
 0001:00004180       ??0PxGeometryGeneratedInfo@physx@@QEAA@XZ 0000000180005180 f   PxAutoGeneratedMetaDataObjects.obj
 0001:00004190       ??0PxHeightFieldDescGeneratedInfo@physx@@QEAA@XZ 0000000180005190 f   PxAutoGeneratedMetaDataObjects.obj
 0001:000042a0       ??0PxHeightFieldDescGeneratedValues@physx@@QEAA@PEBVPxHeightFieldDesc@1@@Z 00000001800052a0 f   PxAutoGeneratedMetaDataObjects.obj
 0001:000042d0       ??0PxHeightFieldGeometryGeneratedInfo@physx@@QEAA@XZ 00000001800052d0 f   PxAutoGeneratedMetaDataObjects.obj
 0001:000043b0       ??0PxHeightFieldGeometryGeneratedValues@physx@@QEAA@PEBVPxHeightFieldGeometry@1@@Z 00000001800053b0 f   PxAutoGeneratedMetaDataObjects.obj
 0001:000043e0       ??0PxMaterialGeneratedInfo@physx@@QEAA@XZ 00000001800053e0 f   PxAutoGeneratedMetaDataObjects.obj
 0001:00004570       ??0PxMaterialGeneratedValues@physx@@QEAA@PEBVPxMaterial@1@@Z 0000000180005570 f   PxAutoGeneratedMetaDataObjects.obj
 0001:00004610       ??0PxMeshScaleGeneratedInfo@physx@@QEAA@XZ 0000000180005610 f   PxAutoGeneratedMetaDataObjects.obj
 0001:00004670       ??0PxMeshScaleGeneratedValues@physx@@QEAA@PEBVPxMeshScale@1@@Z 0000000180005670 f   PxAutoGeneratedMetaDataObjects.obj
 0001:000046a0       ??0PxPhysicsGeneratedInfo@physx@@QEAA@XZ 00000001800056a0 f   PxAutoGeneratedMetaDataObjects.obj
 0001:00004850       ??0PxPhysicsGeneratedValues@physx@@QEAA@PEBVPxPhysics@1@@Z 0000000180005850 f   PxAutoGeneratedMetaDataObjects.obj
 0001:00004850       ?getPxPhysics_TolerancesScale@@YA?BVPxTolerancesScale@physx@@PEBVPxPhysics@2@@Z 0000000180005850 f   PxAutoGeneratedMetaDataObjects.obj
 0001:00004880       ??0PxPruningStructureGeneratedInfo@physx@@QEAA@XZ 0000000180005880 f   PxAutoGeneratedMetaDataObjects.obj
 0001:000048d0       ??0PxPruningStructureGeneratedValues@physx@@QEAA@PEBVPxPruningStructure@1@@Z 00000001800058d0 f   PxAutoGeneratedMetaDataObjects.obj
 0001:000048f0       ??0PxRigidActorGeneratedInfo@physx@@QEAA@XZ 00000001800058f0 f   PxAutoGeneratedMetaDataObjects.obj
 0001:000049b0       ??0PxRigidActorGeneratedValues@physx@@QEAA@PEBVPxRigidActor@1@@Z 00000001800059b0 f   PxAutoGeneratedMetaDataObjects.obj
 0001:000049f0       ??0PxRigidBodyGeneratedInfo@physx@@QEAA@XZ 00000001800059f0 f   PxAutoGeneratedMetaDataObjects.obj
 0001:00004d00       ??0PxRigidBodyGeneratedValues@physx@@QEAA@PEBVPxRigidBody@1@@Z 0000000180005d00 f   PxAutoGeneratedMetaDataObjects.obj
 0001:00004e50       ??0PxRigidDynamicGeneratedInfo@physx@@QEAA@XZ 0000000180005e50 f   PxAutoGeneratedMetaDataObjects.obj
 0001:00005010       ??0PxRigidDynamicGeneratedValues@physx@@QEAA@PEBVPxRigidDynamic@1@@Z 0000000180006010 f   PxAutoGeneratedMetaDataObjects.obj
 0001:000050e0       ??0PxRigidStaticGeneratedInfo@physx@@QEAA@XZ 00000001800060e0 f   PxAutoGeneratedMetaDataObjects.obj
 0001:00005120       ??0PxRigidStaticGeneratedValues@physx@@QEAA@PEBVPxRigidStatic@1@@Z 0000000180006120 f   PxAutoGeneratedMetaDataObjects.obj
 0001:00005160       ??0PxSceneDescGeneratedInfo@physx@@QEAA@XZ 0000000180006160 f   PxAutoGeneratedMetaDataObjects.obj
 0001:00005980       ??0PxSceneDescGeneratedValues@physx@@QEAA@PEBVPxSceneDesc@1@@Z 0000000180006980 f   PxAutoGeneratedMetaDataObjects.obj
 0001:00005b90       ??0PxSceneGeneratedInfo@physx@@QEAA@XZ 0000000180006b90 f   PxAutoGeneratedMetaDataObjects.obj
 0001:00006260       ??0PxSceneGeneratedValues@physx@@QEAA@PEBVPxScene@1@@Z 0000000180007260 f   PxAutoGeneratedMetaDataObjects.obj
 0001:00006580       ??0PxSceneLimitsGeneratedInfo@physx@@QEAA@XZ 0000000180007580 f   PxAutoGeneratedMetaDataObjects.obj
 0001:00006700       ??0PxSceneLimitsGeneratedValues@physx@@QEAA@PEBVPxSceneLimits@1@@Z 0000000180007700 f   PxAutoGeneratedMetaDataObjects.obj
 0001:00006700       ??0PxgDynamicsMemoryConfigGeneratedValues@physx@@QEAA@PEBUPxgDynamicsMemoryConfig@1@@Z 0000000180007700 f   PxAutoGeneratedMetaDataObjects.obj
 0001:00006740       ??0PxShapeGeneratedInfo@physx@@QEAA@XZ 0000000180007740 f   PxAutoGeneratedMetaDataObjects.obj
 0001:00006a10       ??0PxShapeGeneratedValues@physx@@QEAA@PEBVPxShape@1@@Z 0000000180007a10 f   PxAutoGeneratedMetaDataObjects.obj
 0001:00006b20       ??0PxSimulationStatisticsGeneratedInfo@physx@@QEAA@XZ 0000000180007b20 f   PxAutoGeneratedMetaDataObjects.obj
 0001:00006fc0       ??0PxSimulationStatisticsGeneratedValues@physx@@QEAA@PEBVPxSimulationStatistics@1@@Z 0000000180007fc0 f   PxAutoGeneratedMetaDataObjects.obj
 0001:000072a0       ??0PxSphereGeometryGeneratedInfo@physx@@QEAA@XZ 00000001800082a0 f   PxAutoGeneratedMetaDataObjects.obj
 0001:000072d0       ??0PxSphereGeometryGeneratedValues@physx@@QEAA@PEBVPxSphereGeometry@1@@Z 00000001800082d0 f   PxAutoGeneratedMetaDataObjects.obj
 0001:000072e0       ??0PxTolerancesScaleGeneratedInfo@physx@@QEAA@XZ 00000001800082e0 f   PxAutoGeneratedMetaDataObjects.obj
 0001:00007350       ??0PxTolerancesScaleGeneratedValues@physx@@QEAA@PEBVPxTolerancesScale@1@@Z 0000000180008350 f   PxAutoGeneratedMetaDataObjects.obj
 0001:00007370       ??0PxTriangleMeshGeometryGeneratedInfo@physx@@QEAA@XZ 0000000180008370 f   PxAutoGeneratedMetaDataObjects.obj
 0001:000073f0       ??0PxTriangleMeshGeometryGeneratedValues@physx@@QEAA@PEBVPxTriangleMeshGeometry@1@@Z 00000001800083f0 f   PxAutoGeneratedMetaDataObjects.obj
 0001:00007430       ??0PxgDynamicsMemoryConfigGeneratedInfo@physx@@QEAA@XZ 0000000180008430 f   PxAutoGeneratedMetaDataObjects.obj
 0001:000075b0       ?getPxActor_DominanceGroup@@YAEPEBVPxActor@physx@@@Z 00000001800085b0 f   PxAutoGeneratedMetaDataObjects.obj
 0001:000075b0       ?getPxArticulationBase_WakeCounter@@YAMPEBVPxArticulationBase@physx@@@Z 00000001800085b0 f   PxAutoGeneratedMetaDataObjects.obj
 0001:000075b0       ?createPxPhysics_BVHStructures@@YAPEAVPxBVHStructure@physx@@PEAVPxPhysics@2@AEAVPxInputStream@2@@Z 00000001800085b0 f   PxAutoGeneratedMetaDataObjects.obj
 0001:000075b0       ?setPxConstraint_BreakForce@@YAXPEAVPxConstraint@physx@@MM@Z 00000001800085b0 f   PxAutoGeneratedMetaDataObjects.obj
 0001:000075b0       ?getPxArticulationJointReducedCoordinate_JointType@@YA?AW4Enum@PxArticulationJointType@physx@@PEBVPxArticulationJointReducedCoordinate@3@@Z 00000001800085b0 f   PxAutoGeneratedMetaDataObjects.obj
 0001:000075c0       ?createPxPhysics_ConvexMeshes@@YAPEAVPxConvexMesh@physx@@PEAVPxPhysics@2@AEAVPxInputStream@2@@Z 00000001800085c0 f   PxAutoGeneratedMetaDataObjects.obj
 0001:000075c0       ?setPxMaterial_Restitution@@YAXPEAVPxMaterial@physx@@M@Z 00000001800085c0 f   PxAutoGeneratedMetaDataObjects.obj
 0001:000075c0       ?setPxArticulationBase_StabilizationThreshold@@YAXPEAVPxArticulationBase@physx@@M@Z 00000001800085c0 f   PxAutoGeneratedMetaDataObjects.obj
 0001:000075d0       ?getPxMaterial_DynamicFriction@@YAMPEBVPxMaterial@physx@@@Z 00000001800085d0 f   PxAutoGeneratedMetaDataObjects.obj
 0001:000075d0       ?createPxPhysics_HeightFields@@YAPEAVPxHeightField@physx@@PEAVPxPhysics@2@AEAVPxInputStream@2@@Z 00000001800085d0 f   PxAutoGeneratedMetaDataObjects.obj
 0001:000075d0       ?getPxActor_Name@@YAPEBDPEBVPxActor@physx@@@Z 00000001800085d0 f   PxAutoGeneratedMetaDataObjects.obj
 0001:000075d0       ?setPxShape_Geometry@@YAXPEAVPxShape@physx@@AEBVPxGeometry@2@@Z 00000001800085d0 f   PxAutoGeneratedMetaDataObjects.obj
 0001:000075d0       ?getPxArticulationBase_IsSleeping@@YA_NPEBVPxArticulationBase@physx@@@Z 00000001800085d0 f   PxAutoGeneratedMetaDataObjects.obj
 0001:000075e0       ?getPxMaterial_FrictionCombineMode@@YA?AW4Enum@PxCombineMode@physx@@PEBVPxMaterial@3@@Z 00000001800085e0 f   PxAutoGeneratedMetaDataObjects.obj
 0001:000075e0       ?getPxConstraint_MinResponseThreshold@@YAMPEBVPxConstraint@physx@@@Z 00000001800085e0 f   PxAutoGeneratedMetaDataObjects.obj
 0001:000075e0       ?getPxActor_Aggregate@@YAPEAVPxAggregate@physx@@PEBVPxActor@2@@Z 00000001800085e0 f   PxAutoGeneratedMetaDataObjects.obj
 0001:000075e0       ?createPxPhysics_Scenes@@YAPEAVPxScene@physx@@PEAVPxPhysics@2@AEBVPxSceneDesc@2@@Z 00000001800085e0 f   PxAutoGeneratedMetaDataObjects.obj
 0001:000075e0       ?setPxArticulationJoint_DriveType@@YAXPEAVPxArticulationJoint@physx@@W4Enum@PxArticulationJointDriveType@2@@Z 00000001800085e0 f   PxAutoGeneratedMetaDataObjects.obj
 0001:000075f0       ?getPxConstraint_Scene@@YAPEAVPxScene@physx@@PEBVPxConstraint@2@@Z 00000001800085f0 f   PxAutoGeneratedMetaDataObjects.obj
 0001:000075f0       ?getPxMaterial_ReferenceCount@@YAIPEBVPxMaterial@physx@@@Z 00000001800085f0 f   PxAutoGeneratedMetaDataObjects.obj
 0001:000075f0       ?getPxArticulationBase_Scene@@YAPEAVPxScene@physx@@PEBVPxArticulationBase@2@@Z 00000001800085f0 f   PxAutoGeneratedMetaDataObjects.obj
 0001:000075f0       ?getPxShape_ReferenceCount@@YAIPEBVPxShape@physx@@@Z 00000001800085f0 f   PxAutoGeneratedMetaDataObjects.obj
 0001:000075f0       ?createPxPhysics_TriangleMeshes@@YAPEAVPxTriangleMesh@physx@@PEAVPxPhysics@2@AEAVPxInputStream@2@@Z 00000001800085f0 f   PxAutoGeneratedMetaDataObjects.obj
 0001:00007600       ?setPxMaterial_StaticFriction@@YAXPEAVPxMaterial@physx@@M@Z 0000000180008600 f   PxAutoGeneratedMetaDataObjects.obj
 0001:00007600       ?setPxArticulationJointBase_ChildPose@@YAXPEAVPxArticulationJointBase@physx@@AEBVPxTransform@2@@Z 0000000180008600 f   PxAutoGeneratedMetaDataObjects.obj
 0001:00007600       ?getNbPxAggregate_Actors@@YAIPEBVPxAggregate@physx@@@Z 0000000180008600 f   PxAutoGeneratedMetaDataObjects.obj
 0001:00007600       ?setPxArticulationBase_SleepThreshold@@YAXPEAVPxArticulationBase@physx@@M@Z 0000000180008600 f   PxAutoGeneratedMetaDataObjects.obj
 0001:00007600       ?getNbPxPhysics_HeightFields@@YAIPEBVPxPhysics@physx@@@Z 0000000180008600 f   PxAutoGeneratedMetaDataObjects.obj
 0001:00007610       ?setPxShape_LocalPose@@YAXPEAVPxShape@physx@@AEBVPxTransform@2@@Z 0000000180008610 f   PxAutoGeneratedMetaDataObjects.obj
 0001:00007610       ?getNbPxPhysics_Scenes@@YAIPEBVPxPhysics@physx@@@Z 0000000180008610 f   PxAutoGeneratedMetaDataObjects.obj
 0001:00007610       ?getPxArticulationJoint_DriveType@@YA?AW4Enum@PxArticulationJointDriveType@physx@@PEBVPxArticulationJoint@3@@Z 0000000180008610 f   PxAutoGeneratedMetaDataObjects.obj
 0001:00007610       ?getNbPxArticulationBase_Links@@YAIPEBVPxArticulationBase@physx@@@Z 0000000180008610 f   PxAutoGeneratedMetaDataObjects.obj
 0001:00007610       ?setPxMaterial_RestitutionCombineMode@@YAXPEAVPxMaterial@physx@@W4Enum@PxCombineMode@2@@Z 0000000180008610 f   PxAutoGeneratedMetaDataObjects.obj
 0001:00007620       ?setPxRigidDynamic_SleepThreshold@@YAXPEAVPxRigidDynamic@physx@@M@Z 0000000180008620 f   PxAutoGeneratedMetaDataObjects.obj
 0001:00007620       ?getNbPxArticulationLink_Children@@YAIPEBVPxArticulationLink@physx@@@Z 0000000180008620 f   PxAutoGeneratedMetaDataObjects.obj
 0001:00007620       ?getPxScene_CCDMaxPasses@@YAIPEBVPxScene@physx@@@Z 0000000180008620 f   PxAutoGeneratedMetaDataObjects.obj
 0001:00007630       ?setPxArticulationJointReducedCoordinate_Motion@@YAXPEAVPxArticulationJointReducedCoordinate@physx@@W4Enum@PxArticulationAxis@2@W43PxArticulationMotion@2@@Z 0000000180008630 f   PxAutoGeneratedMetaDataObjects.obj
 0001:00007630       ?setPxArticulationJoint_TargetVelocity@@YAXPEAVPxArticulationJoint@physx@@AEBVPxVec3@2@@Z 0000000180008630 f   PxAutoGeneratedMetaDataObjects.obj
 0001:00007630       ?getPxConstraint_BreakForce@@YAXPEBVPxConstraint@physx@@AEAM1@Z 0000000180008630 f   PxAutoGeneratedMetaDataObjects.obj
 0001:00007630       ?getNbPxPhysics_BVHStructures@@YAIPEBVPxPhysics@physx@@@Z 0000000180008630 f   PxAutoGeneratedMetaDataObjects.obj
 0001:00007630       ?setPxActor_OwnerClient@@YAXPEAVPxActor@physx@@E@Z 0000000180008630 f   PxAutoGeneratedMetaDataObjects.obj
 0001:00007640       ?getPxArticulationBase_StabilizationThreshold@@YAMPEBVPxArticulationBase@physx@@@Z 0000000180008640 f   PxAutoGeneratedMetaDataObjects.obj
 0001:00007640       ?getNbPxPhysics_ConvexMeshes@@YAIPEBVPxPhysics@physx@@@Z 0000000180008640 f   PxAutoGeneratedMetaDataObjects.obj
 0001:00007640       ?getPxMaterial_Restitution@@YAMPEBVPxMaterial@physx@@@Z 0000000180008640 f   PxAutoGeneratedMetaDataObjects.obj
 0001:00007650       ?getPxRigidBody_InvMass@@YAMPEBVPxRigidBody@physx@@@Z 0000000180008650 f   PxAutoGeneratedMetaDataObjects.obj
 0001:00007650       ?getNbPxPhysics_Materials@@YAIPEBVPxPhysics@physx@@@Z 0000000180008650 f   PxAutoGeneratedMetaDataObjects.obj
 0001:00007650       ?setPxArticulation_SeparationTolerance@@YAXPEAVPxArticulation@physx@@M@Z 0000000180008650 f   PxAutoGeneratedMetaDataObjects.obj
 0001:00007650       ?getPxArticulationJoint_TangentialStiffness@@YAMPEBVPxArticulationJoint@physx@@@Z 0000000180008650 f   PxAutoGeneratedMetaDataObjects.obj
 0001:00007650       ?getPxScene_CudaContextManager@@YAPEAVPxCudaContextManager@physx@@PEBVPxScene@2@@Z 0000000180008650 f   PxAutoGeneratedMetaDataObjects.obj
 0001:00007650       ?setPxShape_RestOffset@@YAXPEAVPxShape@physx@@M@Z 0000000180008650 f   PxAutoGeneratedMetaDataObjects.obj
 0001:00007660       ?getNbPxRigidActor_Constraints@@YAIPEBVPxRigidActor@physx@@@Z 0000000180008660 f   PxAutoGeneratedMetaDataObjects.obj
 0001:00007660       ?getNbPxPhysics_Shapes@@YAIPEBVPxPhysics@physx@@@Z 0000000180008660 f   PxAutoGeneratedMetaDataObjects.obj
 0001:00007660       ?getPxArticulationJoint_InternalCompliance@@YAMPEBVPxArticulationJoint@physx@@@Z 0000000180008660 f   PxAutoGeneratedMetaDataObjects.obj
 0001:00007670       ?getPxConstraint_Actors@@YAXPEBVPxConstraint@physx@@AEAPEAVPxRigidActor@2@1@Z 0000000180008670 f   PxAutoGeneratedMetaDataObjects.obj
 0001:00007670       ?getPxActor_Scene@@YAPEAVPxScene@physx@@PEBVPxActor@2@@Z 0000000180008670 f   PxAutoGeneratedMetaDataObjects.obj
 0001:00007670       ?setPxArticulationBase_SolverIterationCounts@@YAXPEAVPxArticulationBase@physx@@II@Z 0000000180008670 f   PxAutoGeneratedMetaDataObjects.obj
 0001:00007670       ?getNbPxPhysics_TriangleMeshes@@YAIPEBVPxPhysics@physx@@@Z 0000000180008670 f   PxAutoGeneratedMetaDataObjects.obj
 0001:00007670       ?setPxArticulationJointBase_ParentPose@@YAXPEAVPxArticulationJointBase@physx@@AEBVPxTransform@2@@Z 0000000180008670 f   PxAutoGeneratedMetaDataObjects.obj
 0001:00007670       ?getNbPxPruningStructure_RigidActors@@YAIPEBVPxPruningStructure@physx@@@Z 0000000180008670 f   PxAutoGeneratedMetaDataObjects.obj
 0001:00007680       ?getNbPxRigidActor_Shapes@@YAIPEBVPxRigidActor@physx@@@Z 0000000180008680 f   PxAutoGeneratedMetaDataObjects.obj
 0001:00007680       ?getPxArticulationJoint_Damping@@YAMPEBVPxArticulationJoint@physx@@@Z 0000000180008680 f   PxAutoGeneratedMetaDataObjects.obj
 0001:00007680       ?setPxShape_QueryFilterData@@YAXPEAVPxShape@physx@@AEBUPxFilterData@2@@Z 0000000180008680 f   PxAutoGeneratedMetaDataObjects.obj
 0001:00007690       ?getNbPxScene_Actors@@YAIPEBVPxScene@physx@@V?$PxFlags@W4Enum@PxActorTypeFlag@physx@@G@2@@Z 0000000180008690 f   PxAutoGeneratedMetaDataObjects.obj
 0001:000076b0       ?setPxArticulationJoint_ExternalCompliance@@YAXPEAVPxArticulationJoint@physx@@M@Z 00000001800086b0 f   PxAutoGeneratedMetaDataObjects.obj
 0001:000076b0       ?setPxArticulationJointReducedCoordinate_FrictionCoefficient@@YAXPEAVPxArticulationJointReducedCoordinate@physx@@M@Z 00000001800086b0 f   PxAutoGeneratedMetaDataObjects.obj
 0001:000076b0       ?getNbPxScene_Aggregates@@YAIPEBVPxScene@physx@@@Z 00000001800086b0 f   PxAutoGeneratedMetaDataObjects.obj
 0001:000076c0       ?getPxArticulationBase_Name@@YAPEBDPEBVPxArticulationBase@physx@@@Z 00000001800086c0 f   PxAutoGeneratedMetaDataObjects.obj
 0001:000076c0       ?getNbPxScene_Articulations@@YAIPEBVPxScene@physx@@@Z 00000001800086c0 f   PxAutoGeneratedMetaDataObjects.obj
 0001:000076c0       ?setPxArticulationJoint_Damping@@YAXPEAVPxArticulationJoint@physx@@M@Z 00000001800086c0 f   PxAutoGeneratedMetaDataObjects.obj
 0001:000076d0       ?getNbPxScene_BroadPhaseRegions@@YAIPEBVPxScene@physx@@@Z 00000001800086d0 f   PxAutoGeneratedMetaDataObjects.obj
 0001:000076e0       ?getPxArticulationBase_Aggregate@@YAPEAVPxAggregate@physx@@PEBVPxArticulationBase@2@@Z 00000001800086e0 f   PxAutoGeneratedMetaDataObjects.obj
 0001:000076e0       ?setPxArticulationJoint_InternalCompliance@@YAXPEAVPxArticulationJoint@physx@@M@Z 00000001800086e0 f   PxAutoGeneratedMetaDataObjects.obj
 0001:000076e0       ?getNbPxScene_Constraints@@YAIPEBVPxScene@physx@@@Z 00000001800086e0 f   PxAutoGeneratedMetaDataObjects.obj
 0001:000076f0       ?getNbPxShape_Materials@@YAIPEBVPxShape@physx@@@Z 00000001800086f0 f   PxAutoGeneratedMetaDataObjects.obj
 0001:00007710       ?getCreatedPairs@BroadPhaseABP@Bp@physx@@UEAAPEAUBroadPhasePair@23@XZ 0000000180008710 f i LowLevelAABB_static_64:BpBroadPhaseABP.obj
 0001:00007710       ?getPxShapeUserData@@YAPEAXPEBVPxShape@physx@@@Z 0000000180008710 f i PxAutoGeneratedMetaDataObjects.obj
 0001:00007710       ?getPxArticulationBaseUserData@@YAPEAXPEBVPxArticulationBase@physx@@@Z 0000000180008710 f i PxAutoGeneratedMetaDataObjects.obj
 0001:00007710       ?getPxActorUserData@@YAPEAXPEBVPxActor@physx@@@Z 0000000180008710 f i PxAutoGeneratedMetaDataObjects.obj
 0001:00007710       ?getPxMaterialUserData@@YAPEAXPEBVPxMaterial@physx@@@Z 0000000180008710 f i PxAutoGeneratedMetaDataObjects.obj
 0001:00007710       ?getErrorCallback@Foundation@shdfnd@physx@@UEAAAEAVPxErrorCallback@3@XZ 0000000180008710 f i PxMetaDataObjects.obj
 0001:00007710       ?getPxSceneDescSimulationEventCallback@@YAPEAVPxSimulationEventCallback@physx@@PEBVPxSceneDesc@2@@Z 0000000180008710 f i PxAutoGeneratedMetaDataObjects.obj
 0001:00007710       ?getCpuDispatcher@PxTaskMgr@physx@@UEBAPEAVPxCpuDispatcher@2@XZ 0000000180008710 f i PhysXTask_static_64:TaskManager.obj
 0001:00007720       ?getPxActor_ActorFlags@@YA?AV?$PxFlags@W4Enum@PxActorFlag@physx@@E@physx@@PEBVPxActor@2@@Z 0000000180008720 f   PxAutoGeneratedMetaDataObjects.obj
 0001:00007750       ?setPxMaterial_FrictionCombineMode@@YAXPEAVPxMaterial@physx@@W4Enum@PxCombineMode@2@@Z 0000000180008750 f   PxAutoGeneratedMetaDataObjects.obj
 0001:00007750       ?getPxArticulationJointReducedCoordinate_Motion@@YA?AW4Enum@PxArticulationMotion@physx@@PEBVPxArticulationJointReducedCoordinate@3@W41PxArticulationAxis@3@@Z 0000000180008750 f   PxAutoGeneratedMetaDataObjects.obj
 0001:00007750       ?setPxConstraint_MinResponseThreshold@@YAXPEAVPxConstraint@physx@@M@Z 0000000180008750 f   PxAutoGeneratedMetaDataObjects.obj
 0001:00007750       ?getPxActor_OwnerClient@@YAEPEBVPxActor@physx@@@Z 0000000180008750 f   PxAutoGeneratedMetaDataObjects.obj
 0001:00007760       ?getPxAggregate_Actors@@YAIPEBVPxAggregate@physx@@PEAPEAVPxActor@2@I@Z 0000000180008760 f   PxAutoGeneratedMetaDataObjects.obj
 0001:00007770       ?getPxRigidDynamic_ConcreteTypeName@@YAPEBDPEBVPxRigidDynamic@physx@@@Z 0000000180008770 f   PxAutoGeneratedMetaDataObjects.obj
 0001:00007770       ?getPxConstraint_ConcreteTypeName@@YAPEBDPEBVPxConstraint@physx@@@Z 0000000180008770 f   PxAutoGeneratedMetaDataObjects.obj
 0001:00007770       ?getPxRigidStatic_ConcreteTypeName@@YAPEBDPEBVPxRigidStatic@physx@@@Z 0000000180008770 f   PxAutoGeneratedMetaDataObjects.obj
 0001:00007770       ?getPxShape_ConcreteTypeName@@YAPEBDPEBVPxShape@physx@@@Z 0000000180008770 f   PxAutoGeneratedMetaDataObjects.obj
 0001:00007770       ?getPxMaterial_ConcreteTypeName@@YAPEBDPEBVPxMaterial@physx@@@Z 0000000180008770 f   PxAutoGeneratedMetaDataObjects.obj
 0001:00007770       ?getPxAggregate_ConcreteTypeName@@YAPEBDPEBVPxAggregate@physx@@@Z 0000000180008770 f   PxAutoGeneratedMetaDataObjects.obj
 0001:00007770       ?getPxArticulationJoint_ConcreteTypeName@@YAPEBDPEBVPxArticulationJoint@physx@@@Z 0000000180008770 f   PxAutoGeneratedMetaDataObjects.obj
 0001:00007770       ?getPxPruningStructure_ConcreteTypeName@@YAPEBDPEBVPxPruningStructure@physx@@@Z 0000000180008770 f   PxAutoGeneratedMetaDataObjects.obj
 0001:00007770       ?getPxArticulationLink_ConcreteTypeName@@YAPEBDPEBVPxArticulationLink@physx@@@Z 0000000180008770 f   PxAutoGeneratedMetaDataObjects.obj
 0001:00007770       ?getPxArticulationJointReducedCoordinate_ConcreteTypeName@@YAPEBDPEBVPxArticulationJointReducedCoordinate@physx@@@Z 0000000180008770 f   PxAutoGeneratedMetaDataObjects.obj
 0001:00007780       ?getPxArticulationBase_SleepThreshold@@YAMPEBVPxArticulationBase@physx@@@Z 0000000180008780 f   PxAutoGeneratedMetaDataObjects.obj
 0001:00007780       ?getPxMaterial_StaticFriction@@YAMPEBVPxMaterial@physx@@@Z 0000000180008780 f   PxAutoGeneratedMetaDataObjects.obj
 0001:00007780       ?getPxAggregate_MaxNbActors@@YAIPEBVPxAggregate@physx@@@Z 0000000180008780 f   PxAutoGeneratedMetaDataObjects.obj
 0001:00007790       ?getPxAggregate_SelfCollision@@YA_NPEBVPxAggregate@physx@@@Z 0000000180008790 f   PxAutoGeneratedMetaDataObjects.obj
 0001:00007790       ?setPxArticulationBase_WakeCounter@@YAXPEAVPxArticulationBase@physx@@M@Z 0000000180008790 f   PxAutoGeneratedMetaDataObjects.obj
 0001:00007790       ?setPxActor_DominanceGroup@@YAXPEAVPxActor@physx@@E@Z 0000000180008790 f   PxAutoGeneratedMetaDataObjects.obj
 0001:00007790       ?getPxConstraint_IsValid@@YA_NPEBVPxConstraint@physx@@@Z 0000000180008790 f   PxAutoGeneratedMetaDataObjects.obj
 0001:00007790       ?setPxArticulationJointReducedCoordinate_JointType@@YAXPEAVPxArticulationJointReducedCoordinate@physx@@W4Enum@PxArticulationJointType@2@@Z 0000000180008790 f   PxAutoGeneratedMetaDataObjects.obj
 0001:00007790       ?setPxArticulationJoint_TargetOrientation@@YAXPEAVPxArticulationJoint@physx@@AEBVPxQuat@2@@Z 0000000180008790 f   PxAutoGeneratedMetaDataObjects.obj
 0001:000077a0       ?getPxPhysics_Scenes@@YAIPEBVPxPhysics@physx@@PEAPEAVPxScene@2@I@Z 00000001800087a0 f   PxAutoGeneratedMetaDataObjects.obj
 0001:000077a0       ?getPxArticulationBase_Links@@YAIPEBVPxArticulationBase@physx@@PEAPEAVPxArticulationLink@2@I@Z 00000001800087a0 f   PxAutoGeneratedMetaDataObjects.obj
 0001:000077b0       ?setPxConstraint_Actors@@YAXPEAVPxConstraint@physx@@PEAVPxRigidActor@2@1@Z 00000001800087b0 f   PxAutoGeneratedMetaDataObjects.obj
 0001:000077b0       ?getPxArticulationBase_SolverIterationCounts@@YAXPEBVPxArticulationBase@physx@@AEAI1@Z 00000001800087b0 f   PxAutoGeneratedMetaDataObjects.obj
 0001:000077b0       ?getPxScene_Timestamp@@YAIPEBVPxScene@physx@@@Z 00000001800087b0 f   PxAutoGeneratedMetaDataObjects.obj
 0001:000077b0       ?getPxShape_GeometryType@@YA?AW4Enum@PxGeometryType@physx@@PEBVPxShape@3@@Z 00000001800087b0 f   PxAutoGeneratedMetaDataObjects.obj
 0001:000077b0       ?setPxMaterial_DynamicFriction@@YAXPEAVPxMaterial@physx@@M@Z 00000001800087b0 f   PxAutoGeneratedMetaDataObjects.obj
 0001:000077b0       ?setPxActor_Name@@YAXPEAVPxActor@physx@@PEBD@Z 00000001800087b0 f   PxAutoGeneratedMetaDataObjects.obj
 0001:000077c0       ?getPxConstraint_Flags@@YA?AV?$PxFlags@W4Enum@PxConstraintFlag@physx@@G@physx@@PEBVPxConstraint@2@@Z 00000001800087c0 f   PxAutoGeneratedMetaDataObjects.obj
 0001:000077c0       ?getPxArticulationJointBase_ChildPose@@YA?AVPxTransform@physx@@PEBVPxArticulationJointBase@2@@Z 00000001800087c0 f   PxAutoGeneratedMetaDataObjects.obj
 0001:000077f0       ?getPxArticulationJointBase_ParentPose@@YA?AVPxTransform@physx@@PEBVPxArticulationJointBase@2@@Z 00000001800087f0 f   PxAutoGeneratedMetaDataObjects.obj
 0001:00007820       ?setPxRigidBody_CMassLocalPose@@YAXPEAVPxRigidBody@physx@@AEBVPxTransform@2@@Z 0000000180008820 f   PxAutoGeneratedMetaDataObjects.obj
 0001:00007820       ?getPxArticulationJointReducedCoordinate_FrictionCoefficient@@YAMPEBVPxArticulationJointReducedCoordinate@physx@@@Z 0000000180008820 f   PxAutoGeneratedMetaDataObjects.obj
 0001:00007820       ?getPxArticulationJoint_ExternalCompliance@@YAMPEBVPxArticulationJoint@physx@@@Z 0000000180008820 f   PxAutoGeneratedMetaDataObjects.obj
 0001:00007830       ?setPxShape_ContactOffset@@YAXPEAVPxShape@physx@@M@Z 0000000180008830 f   PxAutoGeneratedMetaDataObjects.obj
 0001:00007830       ?setPxRigidBody_Mass@@YAXPEAVPxRigidBody@physx@@M@Z 0000000180008830 f   PxAutoGeneratedMetaDataObjects.obj
 0001:00007830       ?getPxArticulationJoint_SwingLimit@@YAXPEBVPxArticulationJoint@physx@@AEAM1@Z 0000000180008830 f   PxAutoGeneratedMetaDataObjects.obj
 0001:00007830       ?setPxArticulation_MaxProjectionIterations@@YAXPEAVPxArticulation@physx@@I@Z 0000000180008830 f   PxAutoGeneratedMetaDataObjects.obj
 0001:00007830       ?getPxArticulationJointReducedCoordinate_MaxJointVelocity@@YAMPEBVPxArticulationJointReducedCoordinate@physx@@@Z 0000000180008830 f   PxAutoGeneratedMetaDataObjects.obj
 0001:00007840       ?setPxShape_SimulationFilterData@@YAXPEAVPxShape@physx@@AEBUPxFilterData@2@@Z 0000000180008840 f   PxAutoGeneratedMetaDataObjects.obj
 0001:00007840       ?setPxArticulationBase_Name@@YAXPEAVPxArticulationBase@physx@@PEBD@Z 0000000180008840 f   PxAutoGeneratedMetaDataObjects.obj
 0001:00007840       ?getPxArticulationJoint_Stiffness@@YAMPEBVPxArticulationJoint@physx@@@Z 0000000180008840 f   PxAutoGeneratedMetaDataObjects.obj
 0001:00007850       ?setPxRigidBody_LinearDamping@@YAXPEAVPxRigidBody@physx@@M@Z 0000000180008850 f   PxAutoGeneratedMetaDataObjects.obj
 0001:00007850       ?setPxArticulation_ExternalDriveIterations@@YAXPEAVPxArticulation@physx@@I@Z 0000000180008850 f   PxAutoGeneratedMetaDataObjects.obj
 0001:00007850       ?getPxArticulationJoint_SwingLimitContactDistance@@YAMPEBVPxArticulationJoint@physx@@@Z 0000000180008850 f   PxAutoGeneratedMetaDataObjects.obj
 0001:00007850       ?setPxShape_MinTorsionalPatchRadius@@YAXPEAVPxShape@physx@@M@Z 0000000180008850 f   PxAutoGeneratedMetaDataObjects.obj
 0001:00007850       ?setPxScene_ContactModifyCallback@@YAXPEAVPxScene@physx@@PEAVPxContactModifyCallback@2@@Z 0000000180008850 f   PxAutoGeneratedMetaDataObjects.obj
 0001:00007860       ?getPxScene_ContactModifyCallback@@YAPEAVPxContactModifyCallback@physx@@PEBVPxScene@2@@Z 0000000180008860 f   PxAutoGeneratedMetaDataObjects.obj
 0001:00007860       ?getPxArticulationJoint_SwingLimitEnabled@@YA_NPEBVPxArticulationJoint@physx@@@Z 0000000180008860 f   PxAutoGeneratedMetaDataObjects.obj
 0001:00007860       ?setPxRigidBody_AngularDamping@@YAXPEAVPxRigidBody@physx@@M@Z 0000000180008860 f   PxAutoGeneratedMetaDataObjects.obj
 0001:00007870       ?getPxArticulationJoint_TangentialDamping@@YAMPEBVPxArticulationJoint@physx@@@Z 0000000180008870 f   PxAutoGeneratedMetaDataObjects.obj
 0001:00007870       ?setPxShape_TorsionalPatchRadius@@YAXPEAVPxShape@physx@@M@Z 0000000180008870 f   PxAutoGeneratedMetaDataObjects.obj
 0001:00007870       ?setPxScene_SimulationEventCallback@@YAXPEAVPxScene@physx@@PEAVPxSimulationEventCallback@2@@Z 0000000180008870 f   PxAutoGeneratedMetaDataObjects.obj
 0001:00007870       ?setPxArticulation_InternalDriveIterations@@YAXPEAVPxArticulation@physx@@I@Z 0000000180008870 f   PxAutoGeneratedMetaDataObjects.obj
 0001:00007880       ?getPxArticulationJoint_TargetOrientation@@YA?AVPxQuat@physx@@PEBVPxArticulationJoint@2@@Z 0000000180008880 f   PxAutoGeneratedMetaDataObjects.obj
 0001:000078b0       ?getPxArticulationJoint_TargetVelocity@@YA?AVPxVec3@physx@@PEBVPxArticulationJoint@2@@Z 00000001800088b0 f   PxAutoGeneratedMetaDataObjects.obj
 0001:000078e0       ?setPxScene_BroadPhaseCallback@@YAXPEAVPxScene@physx@@PEAVPxBroadPhaseCallback@2@@Z 00000001800088e0 f   PxAutoGeneratedMetaDataObjects.obj
 0001:000078e0       ?getPxArticulationJoint_TwistLimit@@YAXPEBVPxArticulationJoint@physx@@AEAM1@Z 00000001800088e0 f   PxAutoGeneratedMetaDataObjects.obj
 0001:000078f0       ?setPxRigidBody_MaxAngularVelocity@@YAXPEAVPxRigidBody@physx@@M@Z 00000001800088f0 f   PxAutoGeneratedMetaDataObjects.obj
 0001:000078f0       ?getPxScene_FilterShaderDataSize@@YAIPEBVPxScene@physx@@@Z 00000001800088f0 f   PxAutoGeneratedMetaDataObjects.obj
 0001:000078f0       ?getPxArticulationJoint_TwistLimitContactDistance@@YAMPEBVPxArticulationJoint@physx@@@Z 00000001800088f0 f   PxAutoGeneratedMetaDataObjects.obj
 0001:00007900       ?getPxArticulationJoint_TwistLimitEnabled@@YA_NPEBVPxArticulationJoint@physx@@@Z 0000000180008900 f   PxAutoGeneratedMetaDataObjects.obj
 0001:00007900       ?setPxShape_Name@@YAXPEAVPxShape@physx@@PEBD@Z 0000000180008900 f   PxAutoGeneratedMetaDataObjects.obj
 0001:00007910       ?getPxArticulationLink_Children@@YAIPEBVPxArticulationLink@physx@@PEAPEAV12@I@Z 0000000180008910 f   PxAutoGeneratedMetaDataObjects.obj
 0001:00007920       ?getPxScene_BounceThresholdVelocity@@YAMPEBVPxScene@physx@@@Z 0000000180008920 f   PxAutoGeneratedMetaDataObjects.obj
 0001:00007920       ?getPxArticulationLink_InboundJoint@@YAPEAVPxArticulationJointBase@physx@@PEBVPxArticulationLink@2@@Z 0000000180008920 f   PxAutoGeneratedMetaDataObjects.obj
 0001:00007930       ?getPxArticulationLink_InboundJointDof@@YAIPEBVPxArticulationLink@physx@@@Z 0000000180008930 f   PxAutoGeneratedMetaDataObjects.obj
 0001:00007930       ?setPxScene_CCDMaxPasses@@YAXPEAVPxScene@physx@@I@Z 0000000180008930 f   PxAutoGeneratedMetaDataObjects.obj
 0001:00007930       ?getPxRigidDynamic_IsSleeping@@YA_NPEBVPxRigidDynamic@physx@@@Z 0000000180008930 f   PxAutoGeneratedMetaDataObjects.obj
 0001:00007940       ?getPxRigidDynamic_SleepThreshold@@YAMPEBVPxRigidDynamic@physx@@@Z 0000000180008940 f   PxAutoGeneratedMetaDataObjects.obj
 0001:00007940       ?getPxScene_FrictionOffsetThreshold@@YAMPEBVPxScene@physx@@@Z 0000000180008940 f   PxAutoGeneratedMetaDataObjects.obj
 0001:00007940       ?getPxArticulationLink_LinkIndex@@YAIPEBVPxArticulationLink@physx@@@Z 0000000180008940 f   PxAutoGeneratedMetaDataObjects.obj
 0001:00007950       ?getPxArticulationReducedCoordinate_ArticulationFlags@@YA?AV?$PxFlags@W4Enum@PxArticulationFlag@physx@@E@physx@@PEBVPxArticulationReducedCoordinate@2@@Z 0000000180008950 f   PxAutoGeneratedMetaDataObjects.obj
 0001:00007980       ?getPxScene_SimulationEventCallback@@YAPEAVPxSimulationEventCallback@physx@@PEBVPxScene@2@@Z 0000000180008980 f   PxAutoGeneratedMetaDataObjects.obj
 0001:00007980       ?getPxArticulationReducedCoordinate_CacheDataSize@@YAIPEBVPxArticulationReducedCoordinate@physx@@@Z 0000000180008980 f   PxAutoGeneratedMetaDataObjects.obj
 0001:00007980       ?getPxShape_TorsionalPatchRadius@@YAMPEBVPxShape@physx@@@Z 0000000180008980 f   PxAutoGeneratedMetaDataObjects.obj
 0001:00007980       ?getPxArticulation_InternalDriveIterations@@YAIPEBVPxArticulation@physx@@@Z 0000000180008980 f   PxAutoGeneratedMetaDataObjects.obj
 0001:00007980       ?setPxArticulationJoint_SwingLimitContactDistance@@YAXPEAVPxArticulationJoint@physx@@M@Z 0000000180008980 f   PxAutoGeneratedMetaDataObjects.obj
 0001:00007990       ?setPxRigidBody_MinCCDAdvanceCoefficient@@YAXPEAVPxRigidBody@physx@@M@Z 0000000180008990 f   PxAutoGeneratedMetaDataObjects.obj
 0001:00007990       ?getPxArticulationReducedCoordinate_CoefficientMatrixSize@@YAIPEBVPxArticulationReducedCoordinate@physx@@@Z 0000000180008990 f   PxAutoGeneratedMetaDataObjects.obj
 0001:000079a0       ?setPxRigidBody_MassSpaceInertiaTensor@@YAXPEAVPxRigidBody@physx@@AEBVPxVec3@2@@Z 00000001800089a0 f   PxAutoGeneratedMetaDataObjects.obj
 0001:000079a0       ?getPxShape_RestOffset@@YAMPEBVPxShape@physx@@@Z 00000001800089a0 f   PxAutoGeneratedMetaDataObjects.obj
 0001:000079a0       ?setPxArticulationJoint_TangentialDamping@@YAXPEAVPxArticulationJoint@physx@@M@Z 00000001800089a0 f   PxAutoGeneratedMetaDataObjects.obj
 0001:000079a0       ?getPxArticulationReducedCoordinate_Dofs@@YAIPEBVPxArticulationReducedCoordinate@physx@@@Z 00000001800089a0 f   PxAutoGeneratedMetaDataObjects.obj
 0001:000079a0       ?getPxArticulation_SeparationTolerance@@YAMPEBVPxArticulation@physx@@@Z 00000001800089a0 f   PxAutoGeneratedMetaDataObjects.obj
 0001:000079b0       ?getPxArticulation_ExternalDriveIterations@@YAIPEBVPxArticulation@physx@@@Z 00000001800089b0 f   PxAutoGeneratedMetaDataObjects.obj
 0001:000079b0       ?setPxScene_CCDContactModifyCallback@@YAXPEAVPxScene@physx@@PEAVPxCCDContactModifyCallback@2@@Z 00000001800089b0 f   PxAutoGeneratedMetaDataObjects.obj
 0001:000079b0       ?setPxArticulationJoint_SwingLimitEnabled@@YAXPEAVPxArticulationJoint@physx@@_N@Z 00000001800089b0 f   PxAutoGeneratedMetaDataObjects.obj
 0001:000079b0       ?getPxShape_MinTorsionalPatchRadius@@YAMPEBVPxShape@physx@@@Z 00000001800089b0 f   PxAutoGeneratedMetaDataObjects.obj
 0001:000079b0       ?getPxRigidBody_LinearDamping@@YAMPEBVPxRigidBody@physx@@@Z 00000001800089b0 f   PxAutoGeneratedMetaDataObjects.obj
 0001:000079c0       ?getPxRigidBody_Mass@@YAMPEBVPxRigidBody@physx@@@Z 00000001800089c0 f   PxAutoGeneratedMetaDataObjects.obj
 0001:000079c0       ?getPxScene_CpuDispatcher@@YAPEAVPxCpuDispatcher@physx@@PEBVPxScene@2@@Z 00000001800089c0 f   PxAutoGeneratedMetaDataObjects.obj
 0001:000079c0       ?getPxArticulation_MaxProjectionIterations@@YAIPEBVPxArticulation@physx@@@Z 00000001800089c0 f   PxAutoGeneratedMetaDataObjects.obj
 0001:000079c0       ?setPxArticulationJoint_TangentialStiffness@@YAXPEAVPxArticulationJoint@physx@@M@Z 00000001800089c0 f   PxAutoGeneratedMetaDataObjects.obj
 0001:000079c0       ?getPxShape_ContactOffset@@YAMPEBVPxShape@physx@@@Z 00000001800089c0 f   PxAutoGeneratedMetaDataObjects.obj
 0001:000079d0       ?getPxCapsuleGeometryHalfHeight@@YAMPEBVPxCapsuleGeometry@physx@@@Z 00000001800089d0 f i PxAutoGeneratedMetaDataObjects.obj
 0001:000079e0       ?getPxTolerancesScaleSpeed@@YAMPEBVPxTolerancesScale@physx@@@Z 00000001800089e0 f i PxAutoGeneratedMetaDataObjects.obj
 0001:000079e0       ?getPxCapsuleGeometryRadius@@YAMPEBVPxCapsuleGeometry@physx@@@Z 00000001800089e0 f i PxAutoGeneratedMetaDataObjects.obj
 0001:000079e0       ?getPxSphereGeometryRadius@@YAMPEBVPxSphereGeometry@physx@@@Z 00000001800089e0 f i PxAutoGeneratedMetaDataObjects.obj
 0001:000079f0       ?getPxConvexMeshGeometryConvexMesh@@YAPEAVPxConvexMesh@physx@@PEBVPxConvexMeshGeometry@2@@Z 00000001800089f0 f i PxAutoGeneratedMetaDataObjects.obj
 0001:000079f0       ?getDeletedPairs@BroadPhaseABP@Bp@physx@@UEAAPEAUBroadPhasePair@23@XZ 00000001800089f0 f i LowLevelAABB_static_64:BpBroadPhaseABP.obj
 0001:000079f0       ?getName@FanoutTask@Cm@physx@@UEBAPEBDXZ 00000001800089f0 f i SimulationController_static_64:ScScene.obj
 0001:000079f0       ?getPxSceneDescCcdContactModifyCallback@@YAPEAVPxCCDContactModifyCallback@physx@@PEBVPxSceneDesc@2@@Z 00000001800089f0 f i PxAutoGeneratedMetaDataObjects.obj
 0001:00007a00       ?getPxConvexMeshGeometryMeshFlags@@YA?AV?$PxFlags@W4Enum@PxConvexMeshGeometryFlag@physx@@E@physx@@PEBVPxConvexMeshGeometry@2@@Z 0000000180008a00 f i PxAutoGeneratedMetaDataObjects.obj
 0001:00007a10       ?getPxTriangleMeshGeometryScale@@YA?AVPxMeshScale@physx@@PEBVPxTriangleMeshGeometry@2@@Z 0000000180008a10 f i PxAutoGeneratedMetaDataObjects.obj
 0001:00007a10       ?getPxConvexMeshGeometryScale@@YA?AVPxMeshScale@physx@@PEBVPxConvexMeshGeometry@2@@Z 0000000180008a10 f i PxAutoGeneratedMetaDataObjects.obj
 0001:00007a40       ?getPxHeightFieldDescConvexEdgeThreshold@@YAMPEBVPxHeightFieldDesc@physx@@@Z 0000000180008a40 f i PxAutoGeneratedMetaDataObjects.obj
 0001:00007a50       ?getPxHeightFieldDescFlags@@YA?AV?$PxFlags@W4Enum@PxHeightFieldFlag@physx@@G@physx@@PEBVPxHeightFieldDesc@2@@Z 0000000180008a50 f i PxAutoGeneratedMetaDataObjects.obj
 0001:00007a60       ?getPxSceneLimitsMaxNbStaticShapes@@YAIPEBVPxSceneLimits@physx@@@Z 0000000180008a60 f i PxAutoGeneratedMetaDataObjects.obj
 0001:00007a60       ?getPxHeightFieldDescFormat@@YA?AW4Enum@PxHeightFieldFormat@physx@@PEBVPxHeightFieldDesc@3@@Z 0000000180008a60 f i PxAutoGeneratedMetaDataObjects.obj
 0001:00007a60       ?getPxSimulationStatisticsNbActiveKinematicBodies@@YAIPEBVPxSimulationStatistics@physx@@@Z 0000000180008a60 f i PxAutoGeneratedMetaDataObjects.obj
 0001:00007a60       ?getPxgDynamicsMemoryConfigTempBufferCapacity@@YAIPEBUPxgDynamicsMemoryConfig@physx@@@Z 0000000180008a60 f i PxAutoGeneratedMetaDataObjects.obj
 0001:00007a70       ?getPxSceneLimitsMaxNbBodies@@YAIPEBVPxSceneLimits@physx@@@Z 0000000180008a70 f i PxAutoGeneratedMetaDataObjects.obj
 0001:00007a70       ?getPxSimulationStatisticsNbActiveDynamicBodies@@YAIPEBVPxSimulationStatistics@physx@@@Z 0000000180008a70 f i PxAutoGeneratedMetaDataObjects.obj
 0001:00007a70       ?getPxHeightFieldDescNbColumns@@YAIPEBVPxHeightFieldDesc@physx@@@Z 0000000180008a70 f i PxAutoGeneratedMetaDataObjects.obj
 0001:00007a70       ?getPxgDynamicsMemoryConfigContactBufferCapacity@@YAIPEBUPxgDynamicsMemoryConfig@physx@@@Z 0000000180008a70 f i PxAutoGeneratedMetaDataObjects.obj
 0001:00007a80       ?getPxgDynamicsMemoryConfigConstraintBufferCapacity@@YAIPEBUPxgDynamicsMemoryConfig@physx@@@Z 0000000180008a80 f i PxAutoGeneratedMetaDataObjects.obj
 0001:00007a80       ?getPxHeightFieldDescNbRows@@YAIPEBVPxHeightFieldDesc@physx@@@Z 0000000180008a80 f i PxAutoGeneratedMetaDataObjects.obj
 0001:00007a80       ?getPxSceneLimitsMaxNbActors@@YAIPEBVPxSceneLimits@physx@@@Z 0000000180008a80 f i PxAutoGeneratedMetaDataObjects.obj
 0001:00007a80       ?getPxSimulationStatisticsNbActiveConstraints@@YAIPEBVPxSimulationStatistics@physx@@@Z 0000000180008a80 f i PxAutoGeneratedMetaDataObjects.obj
 0001:00007a90       ?getPxHeightFieldDescSamples@@YA?AUPxStridedData@physx@@PEBVPxHeightFieldDesc@2@@Z 0000000180008a90 f i PxAutoGeneratedMetaDataObjects.obj
 0001:00007aa0       ?getPxHeightFieldGeometryColumnScale@@YAMPEBVPxHeightFieldGeometry@physx@@@Z 0000000180008aa0 f i PxAutoGeneratedMetaDataObjects.obj
 0001:00007ab0       ?getConcreteTypeName@?$PxSerializerDefaultAdapter@VNpRigidStatic@physx@@@physx@@UEBAPEBDXZ 0000000180008ab0 f i NpSerializerAdapter.obj
 0001:00007ab0       ?getConcreteTypeName@?$PxSerializerDefaultAdapter@VHeightField@Gu@physx@@@physx@@UEBAPEBDXZ 0000000180008ab0 f i NpSerializerAdapter.obj
 0001:00007ab0       ?getConcreteTypeName@?$PxSerializerDefaultAdapter@VBV4TriangleMesh@Gu@physx@@@physx@@UEBAPEBDXZ 0000000180008ab0 f i NpSerializerAdapter.obj
 0001:00007ab0       ?getConcreteTypeName@?$PxSerializerDefaultAdapter@VNpArticulationLink@physx@@@physx@@UEBAPEBDXZ 0000000180008ab0 f i NpSerializerAdapter.obj
 0001:00007ab0       ?getConcreteTypeName@?$PxSerializerDefaultAdapter@VNpMaterial@physx@@@physx@@UEBAPEBDXZ 0000000180008ab0 f i NpSerializerAdapter.obj
 0001:00007ab0       ?getConcreteTypeName@?$PxSerializerDefaultAdapter@VNpArticulationJoint@physx@@@physx@@UEBAPEBDXZ 0000000180008ab0 f i NpSerializerAdapter.obj
 0001:00007ab0       ?getConcreteTypeName@?$PxSerializerDefaultAdapter@VNpArticulationJointReducedCoordinate@physx@@@physx@@UEBAPEBDXZ 0000000180008ab0 f i NpSerializerAdapter.obj
 0001:00007ab0       ?getConcreteTypeName@?$PxSerializerDefaultAdapter@VNpRigidDynamic@physx@@@physx@@UEBAPEBDXZ 0000000180008ab0 f i NpSerializerAdapter.obj
 0001:00007ab0       ?getAllocatorCallback@Foundation@shdfnd@physx@@UEAAAEAVPxAllocatorCallback@3@XZ 0000000180008ab0 f i PxMetaDataObjects.obj
 0001:00007ab0       ?getPxSceneUserData@@YAPEAXPEBVPxScene@physx@@@Z 0000000180008ab0 f i PxAutoGeneratedMetaDataObjects.obj
 0001:00007ab0       ?getConcreteTypeName@?$PxSerializerDefaultAdapter@VNpArticulationReducedCoordinate@physx@@@physx@@UEBAPEBDXZ 0000000180008ab0 f i NpSerializerAdapter.obj
 0001:00007ab0       ?getConcreteTypeName@?$PxSerializerDefaultAdapter@VPruningStructure@Sq@physx@@@physx@@UEBAPEBDXZ 0000000180008ab0 f i NpSerializerAdapter.obj
 0001:00007ab0       ?getConcreteTypeName@?$PxSerializerDefaultAdapter@VNpAggregate@physx@@@physx@@UEBAPEBDXZ 0000000180008ab0 f i NpSerializerAdapter.obj
 0001:00007ab0       ?getConcreteTypeName@?$PxSerializerDefaultAdapter@VRTreeTriangleMesh@Gu@physx@@@physx@@UEBAPEBDXZ 0000000180008ab0 f i NpSerializerAdapter.obj
 0001:00007ab0       ?getConcreteTypeName@?$PxSerializerDefaultAdapter@VNpConstraint@physx@@@physx@@UEBAPEBDXZ 0000000180008ab0 f i NpSerializerAdapter.obj
 0001:00007ab0       ?getConcreteTypeName@?$PxSerializerDefaultAdapter@VConvexMesh@Gu@physx@@@physx@@UEBAPEBDXZ 0000000180008ab0 f i NpSerializerAdapter.obj
 0001:00007ab0       ?getConcreteTypeName@?$PxSerializerDefaultAdapter@VNpShape@physx@@@physx@@UEBAPEBDXZ 0000000180008ab0 f i NpSerializerAdapter.obj
 0001:00007ab0       ?getPxHeightFieldGeometryHeightField@@YAPEAVPxHeightField@physx@@PEBVPxHeightFieldGeometry@2@@Z 0000000180008ab0 f i PxAutoGeneratedMetaDataObjects.obj
 0001:00007ab0       ?getPoints@RenderBuffer@Cm@physx@@UEBAPEBUPxDebugPoint@3@XZ 0000000180008ab0 f i NpScene.obj
 0001:00007ab0       ?getConcreteTypeName@?$PxSerializerDefaultAdapter@VNpArticulation@physx@@@physx@@UEBAPEBDXZ 0000000180008ab0 f i NpSerializerAdapter.obj
 0001:00007ac0       ?getPxHeightFieldGeometryHeightFieldFlags@@YA?AV?$PxFlags@W4Enum@PxMeshGeometryFlag@physx@@E@physx@@PEBVPxHeightFieldGeometry@2@@Z 0000000180008ac0 f i PxAutoGeneratedMetaDataObjects.obj
 0001:00007ad0       ?getPxHeightFieldGeometryHeightScale@@YAMPEBVPxHeightFieldGeometry@physx@@@Z 0000000180008ad0 f i PxAutoGeneratedMetaDataObjects.obj
 0001:00007ae0       ?getPxHeightFieldGeometryRowScale@@YAMPEBVPxHeightFieldGeometry@physx@@@Z 0000000180008ae0 f i PxAutoGeneratedMetaDataObjects.obj
 0001:00007af0       ?getPxMaterial_Flags@@YA?AV?$PxFlags@W4Enum@PxMaterialFlag@physx@@G@physx@@PEBVPxMaterial@2@@Z 0000000180008af0 f   PxAutoGeneratedMetaDataObjects.obj
 0001:00007b20       ?setPxArticulationJoint_Stiffness@@YAXPEAVPxArticulationJoint@physx@@M@Z 0000000180008b20 f   PxAutoGeneratedMetaDataObjects.obj
 0001:00007b20       ?getPxMaterial_RestitutionCombineMode@@YA?AW4Enum@PxCombineMode@physx@@PEBVPxMaterial@3@@Z 0000000180008b20 f   PxAutoGeneratedMetaDataObjects.obj
 0001:00007b30       ?getPxMeshScaleRotation@@YA?AVPxQuat@physx@@PEBVPxMeshScale@2@@Z 0000000180008b30 f i PxAutoGeneratedMetaDataObjects.obj
 0001:00007b50       ?getPxSceneDescGravity@@YA?AVPxVec3@physx@@PEBVPxSceneDesc@2@@Z 0000000180008b50 f i PxAutoGeneratedMetaDataObjects.obj
 0001:00007b50       ?getPxMeshScaleScale@@YA?AVPxVec3@physx@@PEBVPxMeshScale@2@@Z 0000000180008b50 f i PxAutoGeneratedMetaDataObjects.obj
 0001:00007b70       ?getPxPhysics_BVHStructures@@YAIPEBVPxPhysics@physx@@PEAPEAVPxBVHStructure@2@I@Z 0000000180008b70 f   PxAutoGeneratedMetaDataObjects.obj
 0001:00007b80       ?getPxPhysics_ConvexMeshes@@YAIPEBVPxPhysics@physx@@PEAPEAVPxConvexMesh@2@I@Z 0000000180008b80 f   PxAutoGeneratedMetaDataObjects.obj
 0001:00007b90       ?getPxPhysics_HeightFields@@YAIPEBVPxPhysics@physx@@PEAPEAVPxHeightField@2@I@Z 0000000180008b90 f   PxAutoGeneratedMetaDataObjects.obj
 0001:00007ba0       ?getPxPhysics_Materials@@YAIPEBVPxPhysics@physx@@PEAPEAVPxMaterial@2@I@Z 0000000180008ba0 f   PxAutoGeneratedMetaDataObjects.obj
 0001:00007bb0       ?getPxRigidActor_Constraints@@YAIPEBVPxRigidActor@physx@@PEAPEAVPxConstraint@2@I@Z 0000000180008bb0 f   PxAutoGeneratedMetaDataObjects.obj
 0001:00007bb0       ?getPxPhysics_Shapes@@YAIPEBVPxPhysics@physx@@PEAPEAVPxShape@2@I@Z 0000000180008bb0 f   PxAutoGeneratedMetaDataObjects.obj
 0001:00007bc0       ?getPxPhysics_TriangleMeshes@@YAIPEBVPxPhysics@physx@@PEAPEAVPxTriangleMesh@2@I@Z 0000000180008bc0 f   PxAutoGeneratedMetaDataObjects.obj
 0001:00007bd0       ?getPxPruningStructure_RigidActors@@YAIPEBVPxPruningStructure@physx@@PEAPEAVPxRigidActor@2@I@Z 0000000180008bd0 f   PxAutoGeneratedMetaDataObjects.obj
 0001:00007be0       ?getPxRigidActor_GlobalPose@@YA?AVPxTransform@physx@@PEBVPxRigidActor@2@@Z 0000000180008be0 f   PxAutoGeneratedMetaDataObjects.obj
 0001:00007c10       ?getPxRigidActor_Shapes@@YAIPEBVPxRigidActor@physx@@PEAPEAVPxShape@2@I@Z 0000000180008c10 f   PxAutoGeneratedMetaDataObjects.obj
 0001:00007c20       ?getPxScene_CCDContactModifyCallback@@YAPEAVPxCCDContactModifyCallback@physx@@PEBVPxScene@2@@Z 0000000180008c20 f   PxAutoGeneratedMetaDataObjects.obj
 0001:00007c20       ?getPxRigidBody_AngularDamping@@YAMPEBVPxRigidBody@physx@@@Z 0000000180008c20 f   PxAutoGeneratedMetaDataObjects.obj
 0001:00007c20       ?setPxArticulationJoint_TwistLimit@@YAXPEAVPxArticulationJoint@physx@@MM@Z 0000000180008c20 f   PxAutoGeneratedMetaDataObjects.obj
 0001:00007c30       ?getPxRigidBody_AngularVelocity@@YA?AVPxVec3@physx@@PEBVPxRigidBody@2@@Z 0000000180008c30 f   PxAutoGeneratedMetaDataObjects.obj
 0001:00007c60       ?getPxRigidBody_CMassLocalPose@@YA?AVPxTransform@physx@@PEBVPxRigidBody@2@@Z 0000000180008c60 f   PxAutoGeneratedMetaDataObjects.obj
 0001:00007c90       ?getPxShape_Flags@@YA?AV?$PxFlags@W4Enum@PxShapeFlag@physx@@E@physx@@PEBVPxShape@2@@Z 0000000180008c90 f   PxAutoGeneratedMetaDataObjects.obj
 0001:00007c90       ?getPxRigidBody_LinearVelocity@@YA?AVPxVec3@physx@@PEBVPxRigidBody@2@@Z 0000000180008c90 f   PxAutoGeneratedMetaDataObjects.obj
 0001:00007cc0       ?getPxRigidBody_MassSpaceInertiaTensor@@YA?AVPxVec3@physx@@PEBVPxRigidBody@2@@Z 0000000180008cc0 f   PxAutoGeneratedMetaDataObjects.obj
 0001:00007cf0       ?getPxRigidBody_MassSpaceInvInertiaTensor@@YA?AVPxVec3@physx@@PEBVPxRigidBody@2@@Z 0000000180008cf0 f   PxAutoGeneratedMetaDataObjects.obj
 0001:00007d20       ?getPxScene_FilterShader@@YAP6A?AV?$PxFlags@W4Enum@PxFilterFlag@physx@@G@physx@@IUPxFilterData@2@I0AEAV?$PxFlags@W4Enum@PxPairFlag@physx@@G@2@PEBXI@ZPEBVPxScene@2@@Z 0000000180008d20 f   PxAutoGeneratedMetaDataObjects.obj
 0001:00007d20       ?getPxRigidBody_MaxAngularVelocity@@YAMPEBVPxRigidBody@physx@@@Z 0000000180008d20 f   PxAutoGeneratedMetaDataObjects.obj
 0001:00007d30       ?setPxScene_Gravity@@YAXPEAVPxScene@physx@@AEBVPxVec3@2@@Z 0000000180008d30 f   PxAutoGeneratedMetaDataObjects.obj
 0001:00007d30       ?getPxRigidBody_MaxContactImpulse@@YAMPEBVPxRigidBody@physx@@@Z 0000000180008d30 f   PxAutoGeneratedMetaDataObjects.obj
 0001:00007d40       ?getPxRigidBody_MaxDepenetrationVelocity@@YAMPEBVPxRigidBody@physx@@@Z 0000000180008d40 f   PxAutoGeneratedMetaDataObjects.obj
 0001:00007d50       ?getPxRigidBody_MaxLinearVelocity@@YAMPEBVPxRigidBody@physx@@@Z 0000000180008d50 f   PxAutoGeneratedMetaDataObjects.obj
 0001:00007d60       ?getPxRigidBody_MinCCDAdvanceCoefficient@@YAMPEBVPxRigidBody@physx@@@Z 0000000180008d60 f   PxAutoGeneratedMetaDataObjects.obj
 0001:00007d70       ?getPxRigidBody_RigidBodyFlags@@YA?AV?$PxFlags@W4Enum@PxRigidBodyFlag@physx@@G@physx@@PEBVPxRigidBody@2@@Z 0000000180008d70 f   PxAutoGeneratedMetaDataObjects.obj
 0001:00007da0       ?getPxRigidDynamic_ContactReportThreshold@@YAMPEBVPxRigidDynamic@physx@@@Z 0000000180008da0 f   PxAutoGeneratedMetaDataObjects.obj
 0001:00007db0       ?getPxRigidDynamic_RigidDynamicLockFlags@@YA?AV?$PxFlags@W4Enum@PxRigidDynamicLockFlag@physx@@E@physx@@PEBVPxRigidDynamic@2@@Z 0000000180008db0 f   PxAutoGeneratedMetaDataObjects.obj
 0001:00007de0       ?getPxRigidDynamic_SolverIterationCounts@@YAXPEBVPxRigidDynamic@physx@@AEAI1@Z 0000000180008de0 f   PxAutoGeneratedMetaDataObjects.obj
 0001:00007df0       ?getPxRigidDynamic_StabilizationThreshold@@YAMPEBVPxRigidDynamic@physx@@@Z 0000000180008df0 f   PxAutoGeneratedMetaDataObjects.obj
 0001:00007df0       ?getPxScene_FrictionType@@YA?AW4Enum@PxFrictionType@physx@@PEBVPxScene@3@@Z 0000000180008df0 f   PxAutoGeneratedMetaDataObjects.obj
 0001:00007e00       ?getPxRigidDynamic_WakeCounter@@YAMPEBVPxRigidDynamic@physx@@@Z 0000000180008e00 f   PxAutoGeneratedMetaDataObjects.obj
 0001:00007e10       ?getPxSceneDescBounceThresholdVelocity@@YAMPEBVPxSceneDesc@physx@@@Z 0000000180008e10 f i PxAutoGeneratedMetaDataObjects.obj
 0001:00007e20       ?getPostFilterShader@NpBatchQuery@physx@@UEBAP6A?AW4Enum@PxQueryHitType@2@UPxFilterData@2@0PEBXIAEBUPxQueryHit@2@@ZXZ 0000000180008e20 f i NpBatchQuery.obj
 0001:00007e20       ?getPxSceneDescBroadPhaseCallback@@YAPEAVPxBroadPhaseCallback@physx@@PEBVPxSceneDesc@2@@Z 0000000180008e20 f i PxAutoGeneratedMetaDataObjects.obj
 0001:00007e30       ?getDefaultContactReportStreamBufferSize@NPhaseCore@Sc@physx@@QEBAIXZ 0000000180008e30 f i SimulationController_static_64:ScNPhaseCore.obj
 0001:00007e30       ?getPxSceneDescBroadPhaseType@@YA?AW4Enum@PxBroadPhaseType@physx@@PEBVPxSceneDesc@3@@Z 0000000180008e30 f i PxAutoGeneratedMetaDataObjects.obj
 0001:00007e30       ?getPxSimulationStatisticsNbDiscreteContactPairsWithCacheHits@@YAIPEBVPxSimulationStatistics@physx@@@Z 0000000180008e30 f i PxAutoGeneratedMetaDataObjects.obj
 0001:00007e40       ?getPxSceneDescCcdMaxPasses@@YAIPEBVPxSceneDesc@physx@@@Z 0000000180008e40 f i PxAutoGeneratedMetaDataObjects.obj
 0001:00007e50       ?getPxSceneDescCcdMaxSeparation@@YAMPEBVPxSceneDesc@physx@@@Z 0000000180008e50 f i PxAutoGeneratedMetaDataObjects.obj
 0001:00007e60       ?getPxSceneDescCcdThreshold@@YAMPEBVPxSceneDesc@physx@@@Z 0000000180008e60 f i PxAutoGeneratedMetaDataObjects.obj
 0001:00007e70       ?getName@?$NpActorTemplate@VPxRigidStatic@physx@@@physx@@UEBAPEBDXZ 0000000180008e70 f i NpRigidStatic.obj
 0001:00007e70       ?getPxSceneDescContactModifyCallback@@YAPEAVPxContactModifyCallback@physx@@PEBVPxSceneDesc@2@@Z 0000000180008e70 f i PxAutoGeneratedMetaDataObjects.obj
 0001:00007e70       ?getLines@RenderBuffer@Cm@physx@@UEBAPEBUPxDebugLine@3@XZ 0000000180008e70 f i NpScene.obj
 0001:00007e70       ?getName@?$NpActorTemplate@VPxRigidDynamic@physx@@@physx@@UEBAPEBDXZ 0000000180008e70 f i NpRigidDynamic.obj
 0001:00007e70       ?getName@?$NpActorTemplate@VPxArticulationLink@physx@@@physx@@UEBAPEBDXZ 0000000180008e70 f i NpArticulationLink.obj
 0001:00007e80       ?getPxSceneDescContactReportStreamBufferSize@@YAIPEBVPxSceneDesc@physx@@@Z 0000000180008e80 f i PxAutoGeneratedMetaDataObjects.obj
 0001:00007e90       ?getAggregate@?$NpArticulationTemplate@VPxArticulationReducedCoordinate@physx@@@physx@@UEBAPEAVPxAggregate@2@XZ 0000000180008e90 f i NpArticulationReducedCoordinate.obj
 0001:00007e90       ?getCreatedPairs@BroadPhaseMBP@Bp@physx@@UEAAPEAUBroadPhasePair@23@XZ 0000000180008e90 f i LowLevelAABB_static_64:BpBroadPhaseMBP.obj
 0001:00007e90       ?getAggregate@?$NpArticulationTemplate@VPxArticulation@physx@@@physx@@UEBAPEAVPxAggregate@2@XZ 0000000180008e90 f i NpArticulation.obj
 0001:00007e90       ?getPxSceneDescCpuDispatcher@@YAPEAVPxCpuDispatcher@physx@@PEBVPxSceneDesc@2@@Z 0000000180008e90 f i PxAutoGeneratedMetaDataObjects.obj
 0001:00007ea0       ?getName@?$NpArticulationTemplate@VPxArticulationReducedCoordinate@physx@@@physx@@UEBAPEBDXZ 0000000180008ea0 f i NpArticulationReducedCoordinate.obj
 0001:00007ea0       ?getName@?$NpArticulationTemplate@VPxArticulation@physx@@@physx@@UEBAPEBDXZ 0000000180008ea0 f i NpArticulation.obj
 0001:00007ea0       ?getPxSceneDescCudaContextManager@@YAPEAVPxCudaContextManager@physx@@PEBVPxSceneDesc@2@@Z 0000000180008ea0 f i PxAutoGeneratedMetaDataObjects.obj
 0001:00007eb0       ?getPxSceneDescDynamicStructure@@YA?AW4Enum@PxPruningStructureType@physx@@PEBVPxSceneDesc@3@@Z 0000000180008eb0 f i PxAutoGeneratedMetaDataObjects.obj
 0001:00007ec0       ?getNbDeletedPairs@BroadPhaseMBP@Bp@physx@@UEBAIXZ 0000000180008ec0 f i LowLevelAABB_static_64:BpBroadPhaseMBP.obj
 0001:00007ec0       ?getPxSceneDescDynamicTreeRebuildRateHint@@YAIPEBVPxSceneDesc@physx@@@Z 0000000180008ec0 f i PxAutoGeneratedMetaDataObjects.obj
 0001:00007ed0       ?getPxSceneDescFilterCallback@@YAPEAVPxSimulationFilterCallback@physx@@PEBVPxSceneDesc@2@@Z 0000000180008ed0 f i PxAutoGeneratedMetaDataObjects.obj
 0001:00007ed0       ?getFilterShaderData@NpBatchQuery@physx@@UEBAPEBXXZ 0000000180008ed0 f i NpBatchQuery.obj
 0001:00007ee0       ?getPxSceneDescFilterShader@@YAP6A?AV?$PxFlags@W4Enum@PxFilterFlag@physx@@G@physx@@IUPxFilterData@2@I0AEAV?$PxFlags@W4Enum@PxPairFlag@physx@@G@2@PEBXI@ZPEBVPxSceneDesc@2@@Z 0000000180008ee0 f i PxAutoGeneratedMetaDataObjects.obj
 0001:00007ee0       ?getTexts@RenderBuffer@Cm@physx@@UEBAPEBUPxDebugText@3@XZ 0000000180008ee0 f i NpScene.obj
 0001:00007ef0       ?getPxTriangleMeshGeometryTriangleMesh@@YAPEAVPxTriangleMesh@physx@@PEBVPxTriangleMeshGeometry@2@@Z 0000000180008ef0 f i PxAutoGeneratedMetaDataObjects.obj
 0001:00007ef0       ?getActor@NpShape@physx@@UEBAPEAVPxRigidActor@2@XZ 0000000180008ef0 f i NpShape.obj
 0001:00007ef0       ?getTriangles@RenderBuffer@Cm@physx@@UEBAPEBUPxDebugTriangle@3@XZ 0000000180008ef0 f i NpScene.obj
 0001:00007ef0       ?getPxSceneDescFilterShaderData@@YAPEBXPEBVPxSceneDesc@physx@@@Z 0000000180008ef0 f i PxAutoGeneratedMetaDataObjects.obj
 0001:00007f00       ?getNbTriangles@RenderBuffer@Cm@physx@@UEBAIXZ 0000000180008f00 f i NpScene.obj
 0001:00007f00       ?getPxSceneDescFilterShaderDataSize@@YAIPEBVPxSceneDesc@physx@@@Z 0000000180008f00 f i PxAutoGeneratedMetaDataObjects.obj
 0001:00007f10       ?getPxSceneDescFlags@@YA?AV?$PxFlags@W4Enum@PxSceneFlag@physx@@I@physx@@PEBVPxSceneDesc@2@@Z 0000000180008f10 f i PxAutoGeneratedMetaDataObjects.obj
 0001:00007f20       ?getPxSceneDescFrictionOffsetThreshold@@YAMPEBVPxSceneDesc@physx@@@Z 0000000180008f20 f i PxAutoGeneratedMetaDataObjects.obj
 0001:00007f30       ?getPxSceneDescFrictionType@@YA?AW4Enum@PxFrictionType@physx@@PEBVPxSceneDesc@3@@Z 0000000180008f30 f i PxAutoGeneratedMetaDataObjects.obj
 0001:00007f40       ?getPxSceneDescGpuComputeVersion@@YAIPEBVPxSceneDesc@physx@@@Z 0000000180008f40 f i PxAutoGeneratedMetaDataObjects.obj
 0001:00007f50       ?getPxSceneDescGpuDynamicsConfig@@YA?AUPxgDynamicsMemoryConfig@physx@@PEBVPxSceneDesc@2@@Z 0000000180008f50 f i PxAutoGeneratedMetaDataObjects.obj
 0001:00007f70       ?getPxSceneDescGpuMaxNumPartitions@@YAIPEBVPxSceneDesc@physx@@@Z 0000000180008f70 f i PxAutoGeneratedMetaDataObjects.obj
 0001:00007f80       ?getPxSimulationStatisticsPeakConstraintMemory@@YAIPEBVPxSimulationStatistics@physx@@@Z 0000000180008f80 f i PxAutoGeneratedMetaDataObjects.obj
 0001:00007f80       ?getPxSceneDescKineKineFilteringMode@@YA?AW4Enum@PxPairFilteringMode@physx@@PEBVPxSceneDesc@3@@Z 0000000180008f80 f i PxAutoGeneratedMetaDataObjects.obj
 0001:00007f80       ?getFilterShaderDataSize@NpBatchQuery@physx@@UEBAIXZ 0000000180008f80 f i NpBatchQuery.obj
 0001:00007f90       ?getPxSceneDescLimits@@YA?AVPxSceneLimits@physx@@PEBVPxSceneDesc@2@@Z 0000000180008f90 f i PxAutoGeneratedMetaDataObjects.obj
 0001:00007fb0       ?getPxSceneDescMaxBiasCoefficient@@YAMPEBVPxSceneDesc@physx@@@Z 0000000180008fb0 f i PxAutoGeneratedMetaDataObjects.obj
 0001:00007fc0       ?getPxSceneDescMaxNbContactDataBlocks@@YAIPEBVPxSceneDesc@physx@@@Z 0000000180008fc0 f i PxAutoGeneratedMetaDataObjects.obj
 0001:00007fd0       ?getPxSceneDescNbContactDataBlocks@@YAIPEBVPxSceneDesc@physx@@@Z 0000000180008fd0 f i PxAutoGeneratedMetaDataObjects.obj
 0001:00007fe0       ?getPxSceneDescSanityBounds@@YA?AVPxBounds3@physx@@PEBVPxSceneDesc@2@@Z 0000000180008fe0 f i PxAutoGeneratedMetaDataObjects.obj
 0001:00008020       ?getPxSceneDescSceneQueryUpdateMode@@YA?AW4Enum@PxSceneQueryUpdateMode@physx@@PEBVPxSceneDesc@3@@Z 0000000180009020 f i PxAutoGeneratedMetaDataObjects.obj
 0001:00008030       ?getPxSceneDescSolverArticulationBatchSize@@YAIPEBVPxSceneDesc@physx@@@Z 0000000180009030 f i PxAutoGeneratedMetaDataObjects.obj
 0001:00008040       ?getMaxUsedBlockCount@PxcNpMemBlockPool@physx@@QEBAIXZ 0000000180009040 f i LowLevel_static_64:PxcNpMemBlockPool.obj
 0001:00008040       ?getPxSceneDescSolverBatchSize@@YAIPEBVPxSceneDesc@physx@@@Z 0000000180009040 f i PxAutoGeneratedMetaDataObjects.obj
 0001:00008050       ?getPxSceneDescSolverOffsetSlop@@YAMPEBVPxSceneDesc@physx@@@Z 0000000180009050 f i PxAutoGeneratedMetaDataObjects.obj
 0001:00008060       ?getPxSceneDescSolverType@@YA?AW4Enum@PxSolverType@physx@@PEBVPxSceneDesc@3@@Z 0000000180009060 f i PxAutoGeneratedMetaDataObjects.obj
 0001:00008070       ?getPxSceneDescStaticKineFilteringMode@@YA?AW4Enum@PxPairFilteringMode@physx@@PEBVPxSceneDesc@3@@Z 0000000180009070 f i PxAutoGeneratedMetaDataObjects.obj
 0001:00008070       ?getPxSimulationStatisticsNbDiscreteContactPairsTotal@@YAIPEBVPxSimulationStatistics@physx@@@Z 0000000180009070 f i PxAutoGeneratedMetaDataObjects.obj
 0001:00008080       ?getPxSceneDescStaticStructure@@YA?AW4Enum@PxPruningStructureType@physx@@PEBVPxSceneDesc@3@@Z 0000000180009080 f i PxAutoGeneratedMetaDataObjects.obj
 0001:00008090       ?getPxSceneDescUserData@@YAPEAXPEBVPxSceneDesc@physx@@@Z 0000000180009090 f i PxAutoGeneratedMetaDataObjects.obj
 0001:000080a0       ?getPxSceneDescWakeCounterResetValue@@YAMPEBVPxSceneDesc@physx@@@Z 00000001800090a0 f i PxAutoGeneratedMetaDataObjects.obj
 0001:000080b0       ?getNbPoints@RenderBuffer@Cm@physx@@UEBAIXZ 00000001800090b0 f i NpScene.obj
 0001:000080b0       ?raw_length@pcharNode@@UEBAHXZ 00000001800090b0 f i libvcruntime:undname.obj
 0001:000080b0       ?getNbCcdBodies@PxgSimulationControllerCallback@@UEAAIXZ 00000001800090b0 f i SimulationController_static_64:ScScene.obj
 0001:000080b0       ?length@pcharNode@@UEBAHXZ 00000001800090b0 f i libvcruntime:undname.obj
 0001:000080b0       ?getPxSimulationStatisticsNbDynamicBodies@@YAIPEBVPxSimulationStatistics@physx@@@Z 00000001800090b0 f i PxAutoGeneratedMetaDataObjects.obj
 0001:000080b0       ?getPxgDynamicsMemoryConfigPatchStreamSize@@YAIPEBUPxgDynamicsMemoryConfig@physx@@@Z 00000001800090b0 f i PxAutoGeneratedMetaDataObjects.obj
 0001:000080b0       ?getPxSceneLimitsMaxNbAggregates@@YAIPEBVPxSceneLimits@physx@@@Z 00000001800090b0 f i PxAutoGeneratedMetaDataObjects.obj
 0001:000080c0       ?getPxgDynamicsMemoryConfigFoundLostPairsCapacity@@YAIPEBUPxgDynamicsMemoryConfig@physx@@@Z 00000001800090c0 f i PxAutoGeneratedMetaDataObjects.obj
 0001:000080c0       ?getPxSceneLimitsMaxNbBroadPhaseOverlaps@@YAIPEBVPxSceneLimits@physx@@@Z 00000001800090c0 f i PxAutoGeneratedMetaDataObjects.obj
 0001:000080d0       ?getPxgDynamicsMemoryConfigForceStreamCapacity@@YAIPEBUPxgDynamicsMemoryConfig@physx@@@Z 00000001800090d0 f i PxAutoGeneratedMetaDataObjects.obj
 0001:000080d0       ?getPxSceneLimitsMaxNbConstraints@@YAIPEBVPxSceneLimits@physx@@@Z 00000001800090d0 f i PxAutoGeneratedMetaDataObjects.obj
 0001:000080d0       ?getPxSimulationStatisticsNbKinematicBodies@@YAIPEBVPxSimulationStatistics@physx@@@Z 00000001800090d0 f i PxAutoGeneratedMetaDataObjects.obj
 0001:000080e0       ?getPxgDynamicsMemoryConfigContactStreamSize@@YAIPEBUPxgDynamicsMemoryConfig@physx@@@Z 00000001800090e0 f i PxAutoGeneratedMetaDataObjects.obj
 0001:000080e0       ?getPxSimulationStatisticsNbStaticBodies@@YAIPEBVPxSimulationStatistics@physx@@@Z 00000001800090e0 f i PxAutoGeneratedMetaDataObjects.obj
 0001:000080e0       ?raw_length@DNameStatusNode@@UEBAHXZ 00000001800090e0 f i libvcruntime:undname.obj
 0001:000080e0       ?getPxSceneLimitsMaxNbDynamicShapes@@YAIPEBVPxSceneLimits@physx@@@Z 00000001800090e0 f i PxAutoGeneratedMetaDataObjects.obj
 0001:000080e0       ?length@DNameStatusNode@@UEBAHXZ 00000001800090e0 f i libvcruntime:undname.obj
 0001:000080f0       ?raw_length@pairNode@@UEBAHXZ 00000001800090f0 f i libvcruntime:undname.obj
 0001:000080f0       ?getNbCreatedPairs@BroadPhaseABP@Bp@physx@@UEBAIXZ 00000001800090f0 f i LowLevelAABB_static_64:BpBroadPhaseABP.obj
 0001:000080f0       ?getPxgDynamicsMemoryConfigHeapCapacity@@YAIPEBUPxgDynamicsMemoryConfig@physx@@@Z 00000001800090f0 f i PxAutoGeneratedMetaDataObjects.obj
 0001:000080f0       ?getReference@FanoutTask@Cm@physx@@UEBAHXZ 00000001800090f0 f i SimulationController_static_64:ScScene.obj
 0001:000080f0       ?getPxSceneLimitsMaxNbRegions@@YAIPEBVPxSceneLimits@physx@@@Z 00000001800090f0 f i PxAutoGeneratedMetaDataObjects.obj
 0001:00008100       ?getPxScene_Actors@@YAIPEBVPxScene@physx@@V?$PxFlags@W4Enum@PxActorTypeFlag@physx@@G@2@PEAPEAVPxActor@2@I@Z 0000000180009100 f   PxAutoGeneratedMetaDataObjects.obj
 0001:00008130       ?getPxScene_Aggregates@@YAIPEBVPxScene@physx@@PEAPEAVPxAggregate@2@I@Z 0000000180009130 f   PxAutoGeneratedMetaDataObjects.obj
 0001:00008130       ?getPxShape_Materials@@YAIPEBVPxShape@physx@@PEAPEAVPxMaterial@2@I@Z 0000000180009130 f   PxAutoGeneratedMetaDataObjects.obj
 0001:00008140       ?getPxScene_Articulations@@YAIPEBVPxScene@physx@@PEAPEAVPxArticulationBase@2@I@Z 0000000180009140 f   PxAutoGeneratedMetaDataObjects.obj
 0001:00008150       ?setPxArticulationJoint_TwistLimitEnabled@@YAXPEAVPxArticulationJoint@physx@@_N@Z 0000000180009150 f   PxAutoGeneratedMetaDataObjects.obj
 0001:00008150       ?getPxScene_BroadPhaseCallback@@YAPEAVPxBroadPhaseCallback@physx@@PEBVPxScene@2@@Z 0000000180009150 f   PxAutoGeneratedMetaDataObjects.obj
 0001:00008150       ?getPxShape_IsExclusive@@YA_NPEBVPxShape@physx@@@Z 0000000180009150 f   PxAutoGeneratedMetaDataObjects.obj
 0001:00008160       ?getPxScene_BroadPhaseRegions@@YAIPEBVPxScene@physx@@PEAUPxBroadPhaseRegionInfo@2@I@Z 0000000180009160 f   PxAutoGeneratedMetaDataObjects.obj
 0001:00008170       ?getPxScene_BroadPhaseType@@YA?AW4Enum@PxBroadPhaseType@physx@@PEBVPxScene@3@@Z 0000000180009170 f   PxAutoGeneratedMetaDataObjects.obj
 0001:00008180       ?getPxScene_Constraints@@YAIPEBVPxScene@physx@@PEAPEAVPxConstraint@2@I@Z 0000000180009180 f   PxAutoGeneratedMetaDataObjects.obj
 0001:00008190       ?getPxScene_ContactReportStreamBufferSize@@YAIPEBVPxScene@physx@@@Z 0000000180009190 f   PxAutoGeneratedMetaDataObjects.obj
 0001:000081a0       ?setPxRigidDynamic_SolverIterationCounts@@YAXPEAVPxRigidDynamic@physx@@II@Z 00000001800091a0 f   PxAutoGeneratedMetaDataObjects.obj
 0001:000081a0       ?getPxScene_DynamicStructure@@YA?AW4Enum@PxPruningStructureType@physx@@PEBVPxScene@3@@Z 00000001800091a0 f   PxAutoGeneratedMetaDataObjects.obj
 0001:000081b0       ?getPxScene_DynamicTreeRebuildRateHint@@YAIPEBVPxScene@physx@@@Z 00000001800091b0 f   PxAutoGeneratedMetaDataObjects.obj
 0001:000081c0       ?getPxScene_FilterCallback@@YAPEAVPxSimulationFilterCallback@physx@@PEBVPxScene@2@@Z 00000001800091c0 f   PxAutoGeneratedMetaDataObjects.obj
 0001:000081c0       ?setPxRigidBody_MaxLinearVelocity@@YAXPEAVPxRigidBody@physx@@M@Z 00000001800091c0 f   PxAutoGeneratedMetaDataObjects.obj
 0001:000081d0       ?getPxScene_Flags@@YA?AV?$PxFlags@W4Enum@PxSceneFlag@physx@@I@physx@@PEBVPxScene@2@@Z 00000001800091d0 f   PxAutoGeneratedMetaDataObjects.obj
 0001:00008200       ?getPxScene_Gravity@@YA?AVPxVec3@physx@@PEBVPxScene@2@@Z 0000000180009200 f   PxAutoGeneratedMetaDataObjects.obj
 0001:00008230       ?getPxScene_KinematicKinematicFilteringMode@@YA?AW4Enum@PxPairFilteringMode@physx@@PEBVPxScene@3@@Z 0000000180009230 f   PxAutoGeneratedMetaDataObjects.obj
 0001:00008240       ?getPxScene_Limits@@YA?AVPxSceneLimits@physx@@PEBVPxScene@2@@Z 0000000180009240 f   PxAutoGeneratedMetaDataObjects.obj
 0001:00008270       ?getPxScene_MaxNbContactDataBlocksUsed@@YAIPEBVPxScene@physx@@@Z 0000000180009270 f   PxAutoGeneratedMetaDataObjects.obj
 0001:00008280       ?getPxScene_SceneQueryStaticTimestamp@@YAIPEBVPxScene@physx@@@Z 0000000180009280 f   PxAutoGeneratedMetaDataObjects.obj
 0001:00008290       ?getPxScene_SceneQueryUpdateMode@@YA?AW4Enum@PxSceneQueryUpdateMode@physx@@PEBVPxScene@3@@Z 0000000180009290 f   PxAutoGeneratedMetaDataObjects.obj
 0001:000082a0       ?getPxScene_SolverArticulationBatchSize@@YAIPEBVPxScene@physx@@@Z 00000001800092a0 f   PxAutoGeneratedMetaDataObjects.obj
 0001:000082b0       ?getPxScene_SolverBatchSize@@YAIPEBVPxScene@physx@@@Z 00000001800092b0 f   PxAutoGeneratedMetaDataObjects.obj
 0001:000082c0       ?getPxScene_StaticKinematicFilteringMode@@YA?AW4Enum@PxPairFilteringMode@physx@@PEBVPxScene@3@@Z 00000001800092c0 f   PxAutoGeneratedMetaDataObjects.obj
 0001:000082d0       ?getPxScene_StaticStructure@@YA?AW4Enum@PxPruningStructureType@physx@@PEBVPxScene@3@@Z 00000001800092d0 f   PxAutoGeneratedMetaDataObjects.obj
 0001:000082e0       ?getPxScene_TaskManager@@YAPEAVPxTaskManager@physx@@PEBVPxScene@2@@Z 00000001800092e0 f   PxAutoGeneratedMetaDataObjects.obj
 0001:000082f0       ?getPxScene_VisualizationCullingBox@@YA?AVPxBounds3@physx@@PEBVPxScene@2@@Z 00000001800092f0 f   PxAutoGeneratedMetaDataObjects.obj
 0001:00008320       ?getPxScene_WakeCounterResetValue@@YAMPEBVPxScene@physx@@@Z 0000000180009320 f   PxAutoGeneratedMetaDataObjects.obj
 0001:00008330       ?getPxShape_LocalPose@@YA?AVPxTransform@physx@@PEBVPxShape@2@@Z 0000000180009330 f   PxAutoGeneratedMetaDataObjects.obj
 0001:00008360       ?setPxArticulationJoint_TwistLimitContactDistance@@YAXPEAVPxArticulationJoint@physx@@M@Z 0000000180009360 f   PxAutoGeneratedMetaDataObjects.obj
 0001:00008360       ?getPxShape_Name@@YAPEBDPEBVPxShape@physx@@@Z 0000000180009360 f   PxAutoGeneratedMetaDataObjects.obj
 0001:00008370       ?getPxShape_QueryFilterData@@YA?AUPxFilterData@physx@@PEBVPxShape@2@@Z 0000000180009370 f   PxAutoGeneratedMetaDataObjects.obj
 0001:000083a0       ?getPxShape_SimulationFilterData@@YA?AUPxFilterData@physx@@PEBVPxShape@2@@Z 00000001800093a0 f   PxAutoGeneratedMetaDataObjects.obj
 0001:000083d0       ?getNbRigidActors@PruningStructure@Sq@physx@@UEBAIXZ 00000001800093d0 f i SceneQuery_static_64:SqPruningStructure.obj
 0001:000083d0       ?getNbTexts@RenderBuffer@Cm@physx@@UEBAIXZ 00000001800093d0 f i NpScene.obj
 0001:000083d0       ?getPxSimulationStatisticsCompressedContactSize@@YAIPEBVPxSimulationStatistics@physx@@@Z 00000001800093d0 f i PxAutoGeneratedMetaDataObjects.obj
 0001:000083d0       ?getNbActors@NpAggregate@physx@@UEBAIXZ 00000001800093d0 f i NpAggregate.obj
 0001:000083e0       ?getPxSimulationStatisticsNbAggregates@@YAIPEBVPxSimulationStatistics@physx@@@Z 00000001800093e0 f i PxAutoGeneratedMetaDataObjects.obj
 0001:000083e0       ?getMaxNbActors@NpAggregate@physx@@UEBAIXZ 00000001800093e0 f i NpAggregate.obj
 0001:000083f0       ?getPxSimulationStatisticsNbArticulations@@YAIPEBVPxSimulationStatistics@physx@@@Z 00000001800093f0 f i PxAutoGeneratedMetaDataObjects.obj
 0001:00008400       ?getPxSimulationStatisticsNbAxisSolverConstraints@@YAIPEBVPxSimulationStatistics@physx@@@Z 0000000180009400 f i PxAutoGeneratedMetaDataObjects.obj
 0001:00008410       ?getPxSimulationStatisticsNbBroadPhaseAdds@@YAIPEBVPxSimulationStatistics@physx@@@Z 0000000180009410 f i PxAutoGeneratedMetaDataObjects.obj
 0001:00008420       ?getPxSimulationStatisticsNbBroadPhaseRemoves@@YAIPEBVPxSimulationStatistics@physx@@@Z 0000000180009420 f i PxAutoGeneratedMetaDataObjects.obj
 0001:00008430       ?getPxSimulationStatisticsNbDiscreteContactPairsWithContacts@@YAIPEBVPxSimulationStatistics@physx@@@Z 0000000180009430 f i PxAutoGeneratedMetaDataObjects.obj
 0001:00008440       ?getPxSimulationStatisticsNbLostPairs@@YAIPEBVPxSimulationStatistics@physx@@@Z 0000000180009440 f i PxAutoGeneratedMetaDataObjects.obj
 0001:00008450       ?getPxSimulationStatisticsNbLostTouches@@YAIPEBVPxSimulationStatistics@physx@@@Z 0000000180009450 f i PxAutoGeneratedMetaDataObjects.obj
 0001:00008460       ?getPxSimulationStatisticsNbNewPairs@@YAIPEBVPxSimulationStatistics@physx@@@Z 0000000180009460 f i PxAutoGeneratedMetaDataObjects.obj
 0001:00008470       ?getPxSimulationStatisticsNbNewTouches@@YAIPEBVPxSimulationStatistics@physx@@@Z 0000000180009470 f i PxAutoGeneratedMetaDataObjects.obj
 0001:00008480       ?getPxSimulationStatisticsNbPartitions@@YAIPEBVPxSimulationStatistics@physx@@@Z 0000000180009480 f i PxAutoGeneratedMetaDataObjects.obj
 0001:00008490       ?getPxSimulationStatisticsRequiredContactConstraintMemory@@YAIPEBVPxSimulationStatistics@physx@@@Z 0000000180009490 f i PxAutoGeneratedMetaDataObjects.obj
 0001:000084a0       ?getPxTolerancesScaleLength@@YAMPEBVPxTolerancesScale@physx@@@Z 00000001800094a0 f i PxAutoGeneratedMetaDataObjects.obj
 0001:000084b0       ?getPxTolerancesScale_IsValid@@YA_NPEBVPxTolerancesScale@physx@@@Z 00000001800094b0 f   PxAutoGeneratedMetaDataObjects.obj
 0001:000084c0       ?getPxTriangleMeshGeometryMeshFlags@@YA?AV?$PxFlags@W4Enum@PxMeshGeometryFlag@physx@@E@physx@@PEBVPxTriangleMeshGeometry@2@@Z 00000001800094c0 f i PxAutoGeneratedMetaDataObjects.obj
 0001:000084d0       ?setCpuDispatcher@PxTaskMgr@physx@@UEAAXAEAVPxCpuDispatcher@2@@Z 00000001800094d0 f i PhysXTask_static_64:TaskManager.obj
 0001:000084d0       ?setPxMaterialUserData@@YAXPEAVPxMaterial@physx@@PEAX@Z 00000001800094d0 f i PxAutoGeneratedMetaDataObjects.obj
 0001:000084d0       ?setPxShapeUserData@@YAXPEAVPxShape@physx@@PEAX@Z 00000001800094d0 f i PxAutoGeneratedMetaDataObjects.obj
 0001:000084d0       ?setPxActorUserData@@YAXPEAVPxActor@physx@@PEAX@Z 00000001800094d0 f i PxAutoGeneratedMetaDataObjects.obj
 0001:000084d0       ?setPxArticulationBaseUserData@@YAXPEAVPxArticulationBase@physx@@PEAX@Z 00000001800094d0 f i PxAutoGeneratedMetaDataObjects.obj
 0001:000084d0       ?setPxSceneDescSimulationEventCallback@@YAXPEAVPxSceneDesc@physx@@PEAVPxSimulationEventCallback@2@@Z 00000001800094d0 f i PxAutoGeneratedMetaDataObjects.obj
 0001:000084e0       ?setPxActor_ActorFlags@@YAXPEAVPxActor@physx@@V?$PxFlags@W4Enum@PxActorFlag@physx@@E@2@@Z 00000001800094e0 f   PxAutoGeneratedMetaDataObjects.obj
 0001:00008500       ?setPxArticulationJoint_SwingLimit@@YAXPEAVPxArticulationJoint@physx@@MM@Z 0000000180009500 f   PxAutoGeneratedMetaDataObjects.obj
 0001:00008500       ?setPxArticulationJointReducedCoordinate_MaxJointVelocity@@YAXPEAVPxArticulationJointReducedCoordinate@physx@@M@Z 0000000180009500 f   PxAutoGeneratedMetaDataObjects.obj
 0001:00008510       ?setPxArticulationReducedCoordinate_ArticulationFlags@@YAXPEAVPxArticulationReducedCoordinate@physx@@V?$PxFlags@W4Enum@PxArticulationFlag@physx@@E@2@@Z 0000000180009510 f   PxAutoGeneratedMetaDataObjects.obj
 0001:00008530       ?setPxBoxGeometryHalfExtents@@YAXPEAVPxBoxGeometry@physx@@VPxVec3@2@@Z 0000000180009530 f i PxAutoGeneratedMetaDataObjects.obj
 0001:00008550       ?setPxCapsuleGeometryHalfHeight@@YAXPEAVPxCapsuleGeometry@physx@@M@Z 0000000180009550 f i PxAutoGeneratedMetaDataObjects.obj
 0001:00008560       ?setPxTolerancesScaleSpeed@@YAXPEAVPxTolerancesScale@physx@@M@Z 0000000180009560 f i PxAutoGeneratedMetaDataObjects.obj
 0001:00008560       ?setPxSphereGeometryRadius@@YAXPEAVPxSphereGeometry@physx@@M@Z 0000000180009560 f i PxAutoGeneratedMetaDataObjects.obj
 0001:00008560       ?setPxCapsuleGeometryRadius@@YAXPEAVPxCapsuleGeometry@physx@@M@Z 0000000180009560 f i PxAutoGeneratedMetaDataObjects.obj
 0001:00008570       ?setPxConstraint_Flags@@YAXPEAVPxConstraint@physx@@V?$PxFlags@W4Enum@PxConstraintFlag@physx@@G@2@@Z 0000000180009570 f   PxAutoGeneratedMetaDataObjects.obj
 0001:00008590       ?setPxConvexMeshGeometryConvexMesh@@YAXPEAVPxConvexMeshGeometry@physx@@PEAVPxConvexMesh@2@@Z 0000000180009590 f i PxAutoGeneratedMetaDataObjects.obj
 0001:00008590       ?setPxSceneDescCcdContactModifyCallback@@YAXPEAVPxSceneDesc@physx@@PEAVPxCCDContactModifyCallback@2@@Z 0000000180009590 f i PxAutoGeneratedMetaDataObjects.obj
 0001:000085a0       ?setPxConvexMeshGeometryMeshFlags@@YAXPEAVPxConvexMeshGeometry@physx@@V?$PxFlags@W4Enum@PxConvexMeshGeometryFlag@physx@@E@2@@Z 00000001800095a0 f i PxAutoGeneratedMetaDataObjects.obj
 0001:000085b0       ?setPxConvexMeshGeometryScale@@YAXPEAVPxConvexMeshGeometry@physx@@VPxMeshScale@2@@Z 00000001800095b0 f i PxAutoGeneratedMetaDataObjects.obj
 0001:000085b0       ?setPxTriangleMeshGeometryScale@@YAXPEAVPxTriangleMeshGeometry@physx@@VPxMeshScale@2@@Z 00000001800095b0 f i PxAutoGeneratedMetaDataObjects.obj
 0001:000085e0       ?setPxHeightFieldDescConvexEdgeThreshold@@YAXPEAVPxHeightFieldDesc@physx@@M@Z 00000001800095e0 f i PxAutoGeneratedMetaDataObjects.obj
 0001:000085f0       ?setPxHeightFieldDescFlags@@YAXPEAVPxHeightFieldDesc@physx@@V?$PxFlags@W4Enum@PxHeightFieldFlag@physx@@G@2@@Z 00000001800095f0 f i PxAutoGeneratedMetaDataObjects.obj
 0001:00008600       ?setPxgDynamicsMemoryConfigTempBufferCapacity@@YAXPEAUPxgDynamicsMemoryConfig@physx@@I@Z 0000000180009600 f i PxAutoGeneratedMetaDataObjects.obj
 0001:00008600       ?setPxSimulationStatisticsNbActiveKinematicBodies@@YAXPEAVPxSimulationStatistics@physx@@I@Z 0000000180009600 f i PxAutoGeneratedMetaDataObjects.obj
 0001:00008600       ?setPxSceneLimitsMaxNbStaticShapes@@YAXPEAVPxSceneLimits@physx@@I@Z 0000000180009600 f i PxAutoGeneratedMetaDataObjects.obj
 0001:00008600       ?setPxHeightFieldDescFormat@@YAXPEAVPxHeightFieldDesc@physx@@W4Enum@PxHeightFieldFormat@2@@Z 0000000180009600 f i PxAutoGeneratedMetaDataObjects.obj
 0001:00008610       ?setPxSceneLimitsMaxNbBodies@@YAXPEAVPxSceneLimits@physx@@I@Z 0000000180009610 f i PxAutoGeneratedMetaDataObjects.obj
 0001:00008610       ?setPxHeightFieldDescNbColumns@@YAXPEAVPxHeightFieldDesc@physx@@I@Z 0000000180009610 f i PxAutoGeneratedMetaDataObjects.obj
 0001:00008610       ?setPxSimulationStatisticsNbActiveDynamicBodies@@YAXPEAVPxSimulationStatistics@physx@@I@Z 0000000180009610 f i PxAutoGeneratedMetaDataObjects.obj
 0001:00008610       ?setPxgDynamicsMemoryConfigContactBufferCapacity@@YAXPEAUPxgDynamicsMemoryConfig@physx@@I@Z 0000000180009610 f i PxAutoGeneratedMetaDataObjects.obj
 0001:00008620       ?setPxgDynamicsMemoryConfigConstraintBufferCapacity@@YAXPEAUPxgDynamicsMemoryConfig@physx@@I@Z 0000000180009620 f i PxAutoGeneratedMetaDataObjects.obj
 0001:00008620       ?setPxHeightFieldDescNbRows@@YAXPEAVPxHeightFieldDesc@physx@@I@Z 0000000180009620 f i PxAutoGeneratedMetaDataObjects.obj
 0001:00008620       ?setPxSimulationStatisticsNbActiveConstraints@@YAXPEAVPxSimulationStatistics@physx@@I@Z 0000000180009620 f i PxAutoGeneratedMetaDataObjects.obj
 0001:00008620       ?setPxSceneLimitsMaxNbActors@@YAXPEAVPxSceneLimits@physx@@I@Z 0000000180009620 f i PxAutoGeneratedMetaDataObjects.obj
 0001:00008630       ?setPxHeightFieldDescSamples@@YAXPEAVPxHeightFieldDesc@physx@@UPxStridedData@2@@Z 0000000180009630 f i PxAutoGeneratedMetaDataObjects.obj
 0001:00008640       ?setPxHeightFieldGeometryColumnScale@@YAXPEAVPxHeightFieldGeometry@physx@@M@Z 0000000180009640 f i PxAutoGeneratedMetaDataObjects.obj
 0001:00008650       ?setPxSceneUserData@@YAXPEAVPxScene@physx@@PEAX@Z 0000000180009650 f i PxAutoGeneratedMetaDataObjects.obj
 0001:00008650       ?setPxHeightFieldGeometryHeightField@@YAXPEAVPxHeightFieldGeometry@physx@@PEAVPxHeightField@2@@Z 0000000180009650 f i PxAutoGeneratedMetaDataObjects.obj
 0001:00008660       ?setPxHeightFieldGeometryHeightFieldFlags@@YAXPEAVPxHeightFieldGeometry@physx@@V?$PxFlags@W4Enum@PxMeshGeometryFlag@physx@@E@2@@Z 0000000180009660 f i PxAutoGeneratedMetaDataObjects.obj
 0001:00008670       ?setPxHeightFieldGeometryHeightScale@@YAXPEAVPxHeightFieldGeometry@physx@@M@Z 0000000180009670 f i PxAutoGeneratedMetaDataObjects.obj
 0001:00008680       ?setPxHeightFieldGeometryRowScale@@YAXPEAVPxHeightFieldGeometry@physx@@M@Z 0000000180009680 f i PxAutoGeneratedMetaDataObjects.obj
 0001:00008690       ?setPxMaterial_Flags@@YAXPEAVPxMaterial@physx@@V?$PxFlags@W4Enum@PxMaterialFlag@physx@@G@2@@Z 0000000180009690 f   PxAutoGeneratedMetaDataObjects.obj
 0001:000086b0       ?setPxMeshScaleRotation@@YAXPEAVPxMeshScale@physx@@VPxQuat@2@@Z 00000001800096b0 f i PxAutoGeneratedMetaDataObjects.obj
 0001:000086d0       ?setPxSceneDescGravity@@YAXPEAVPxSceneDesc@physx@@VPxVec3@2@@Z 00000001800096d0 f i PxAutoGeneratedMetaDataObjects.obj
 0001:000086d0       ?setPxMeshScaleScale@@YAXPEAVPxMeshScale@physx@@VPxVec3@2@@Z 00000001800096d0 f i PxAutoGeneratedMetaDataObjects.obj
 0001:000086f0       ?setGlobalPose@NpArticulationLink@physx@@UEAAXAEBVPxTransform@2@@Z 00000001800096f0 f   NpArticulationLink.obj
 0001:000086f0       ?setPxRigidActor_GlobalPose@@YAXPEAVPxRigidActor@physx@@AEBVPxTransform@2@@Z 00000001800096f0 f   PxAutoGeneratedMetaDataObjects.obj
 0001:00008700       ?setPxRigidBody_AngularVelocity@@YAXPEAVPxRigidBody@physx@@AEBVPxVec3@2@@Z 0000000180009700 f   PxAutoGeneratedMetaDataObjects.obj
 0001:00008710       ?setPxRigidBody_LinearVelocity@@YAXPEAVPxRigidBody@physx@@AEBVPxVec3@2@@Z 0000000180009710 f   PxAutoGeneratedMetaDataObjects.obj
 0001:00008720       ?setPxRigidBody_MaxContactImpulse@@YAXPEAVPxRigidBody@physx@@M@Z 0000000180009720 f   PxAutoGeneratedMetaDataObjects.obj
 0001:00008720       ?flush@NpScene@physx@@UEAAX_N@Z 0000000180009720 f   NpScene.obj
 0001:00008730       ?setPxRigidBody_MaxDepenetrationVelocity@@YAXPEAVPxRigidBody@physx@@M@Z 0000000180009730 f   PxAutoGeneratedMetaDataObjects.obj
 0001:00008740       ?setPxRigidBody_RigidBodyFlags@@YAXPEAVPxRigidBody@physx@@V?$PxFlags@W4Enum@PxRigidBodyFlag@physx@@G@2@@Z 0000000180009740 f   PxAutoGeneratedMetaDataObjects.obj
 0001:00008760       ?setPxRigidDynamic_ContactReportThreshold@@YAXPEAVPxRigidDynamic@physx@@M@Z 0000000180009760 f   PxAutoGeneratedMetaDataObjects.obj
 0001:00008760       ?setPxScene_DynamicTreeRebuildRateHint@@YAXPEAVPxScene@physx@@I@Z 0000000180009760 f   PxAutoGeneratedMetaDataObjects.obj
 0001:00008770       ?setPxRigidDynamic_RigidDynamicLockFlags@@YAXPEAVPxRigidDynamic@physx@@V?$PxFlags@W4Enum@PxRigidDynamicLockFlag@physx@@E@2@@Z 0000000180009770 f   PxAutoGeneratedMetaDataObjects.obj
 0001:00008790       ?setPxRigidDynamic_StabilizationThreshold@@YAXPEAVPxRigidDynamic@physx@@M@Z 0000000180009790 f   PxAutoGeneratedMetaDataObjects.obj
 0001:00008790       ?setPxScene_FrictionType@@YAXPEAVPxScene@physx@@W4Enum@PxFrictionType@2@@Z 0000000180009790 f   PxAutoGeneratedMetaDataObjects.obj
 0001:000087a0       ?setPxRigidDynamic_WakeCounter@@YAXPEAVPxRigidDynamic@physx@@M@Z 00000001800097a0 f   PxAutoGeneratedMetaDataObjects.obj
 0001:000087b0       ?setPxSceneDescBounceThresholdVelocity@@YAXPEAVPxSceneDesc@physx@@M@Z 00000001800097b0 f i PxAutoGeneratedMetaDataObjects.obj
 0001:000087c0       ?setPxSceneDescBroadPhaseCallback@@YAXPEAVPxSceneDesc@physx@@PEAVPxBroadPhaseCallback@2@@Z 00000001800097c0 f i PxAutoGeneratedMetaDataObjects.obj
 0001:000087d0       ?setPxSceneDescBroadPhaseType@@YAXPEAVPxSceneDesc@physx@@W4Enum@PxBroadPhaseType@2@@Z 00000001800097d0 f i PxAutoGeneratedMetaDataObjects.obj
 0001:000087d0       ?setPxSimulationStatisticsNbDiscreteContactPairsWithCacheHits@@YAXPEAVPxSimulationStatistics@physx@@I@Z 00000001800097d0 f i PxAutoGeneratedMetaDataObjects.obj
 0001:000087e0       ?setPxSceneDescCcdMaxPasses@@YAXPEAVPxSceneDesc@physx@@I@Z 00000001800097e0 f i PxAutoGeneratedMetaDataObjects.obj
 0001:000087f0       ?setPxSceneDescCcdMaxSeparation@@YAXPEAVPxSceneDesc@physx@@M@Z 00000001800097f0 f i PxAutoGeneratedMetaDataObjects.obj
 0001:00008800       ?setPxSceneDescCcdThreshold@@YAXPEAVPxSceneDesc@physx@@M@Z 0000000180009800 f i PxAutoGeneratedMetaDataObjects.obj
 0001:00008810       ?setName@?$NpActorTemplate@VPxRigidStatic@physx@@@physx@@UEAAXPEBD@Z 0000000180009810 f i NpRigidStatic.obj
 0001:00008810       ?setPxSceneDescContactModifyCallback@@YAXPEAVPxSceneDesc@physx@@PEAVPxContactModifyCallback@2@@Z 0000000180009810 f i PxAutoGeneratedMetaDataObjects.obj
 0001:00008810       ?setName@?$NpActorTemplate@VPxArticulationLink@physx@@@physx@@UEAAXPEBD@Z 0000000180009810 f i NpArticulationLink.obj
 0001:00008810       ?setName@?$NpActorTemplate@VPxRigidDynamic@physx@@@physx@@UEAAXPEBD@Z 0000000180009810 f i NpRigidDynamic.obj
 0001:00008820       ?setPxSceneDescContactReportStreamBufferSize@@YAXPEAVPxSceneDesc@physx@@I@Z 0000000180009820 f i PxAutoGeneratedMetaDataObjects.obj
 0001:00008830       ?setPxSceneDescCpuDispatcher@@YAXPEAVPxSceneDesc@physx@@PEAVPxCpuDispatcher@2@@Z 0000000180009830 f i PxAutoGeneratedMetaDataObjects.obj
 0001:00008840       ?setName@?$NpArticulationTemplate@VPxArticulation@physx@@@physx@@UEAAXPEBD@Z 0000000180009840 f i NpArticulation.obj
 0001:00008840       ?setName@?$NpArticulationTemplate@VPxArticulationReducedCoordinate@physx@@@physx@@UEAAXPEBD@Z 0000000180009840 f i NpArticulationReducedCoordinate.obj
 0001:00008840       ?setPxSceneDescCudaContextManager@@YAXPEAVPxSceneDesc@physx@@PEAVPxCudaContextManager@2@@Z 0000000180009840 f i PxAutoGeneratedMetaDataObjects.obj
 0001:00008850       ?setPxSceneDescDynamicStructure@@YAXPEAVPxSceneDesc@physx@@W4Enum@PxPruningStructureType@2@@Z 0000000180009850 f i PxAutoGeneratedMetaDataObjects.obj
 0001:00008860       ?setPxSceneDescDynamicTreeRebuildRateHint@@YAXPEAVPxSceneDesc@physx@@I@Z 0000000180009860 f i PxAutoGeneratedMetaDataObjects.obj
 0001:00008870       ?setPxSceneDescFilterCallback@@YAXPEAVPxSceneDesc@physx@@PEAVPxSimulationFilterCallback@2@@Z 0000000180009870 f i PxAutoGeneratedMetaDataObjects.obj
 0001:00008880       ?setPxSceneDescFilterShader@@YAXPEAVPxSceneDesc@physx@@P6A?AV?$PxFlags@W4Enum@PxFilterFlag@physx@@G@2@IUPxFilterData@2@I1AEAV?$PxFlags@W4Enum@PxPairFlag@physx@@G@2@PEBXI@Z@Z 0000000180009880 f i PxAutoGeneratedMetaDataObjects.obj
 0001:00008890       ?setPxTriangleMeshGeometryTriangleMesh@@YAXPEAVPxTriangleMeshGeometry@physx@@PEAVPxTriangleMesh@2@@Z 0000000180009890 f i PxAutoGeneratedMetaDataObjects.obj
 0001:00008890       ?setPxSceneDescFilterShaderData@@YAXPEAVPxSceneDesc@physx@@PEBX@Z 0000000180009890 f i PxAutoGeneratedMetaDataObjects.obj
 0001:000088a0       ?setPxSceneDescFilterShaderDataSize@@YAXPEAVPxSceneDesc@physx@@I@Z 00000001800098a0 f i PxAutoGeneratedMetaDataObjects.obj
 0001:000088b0       ?setPxSceneDescFlags@@YAXPEAVPxSceneDesc@physx@@V?$PxFlags@W4Enum@PxSceneFlag@physx@@I@2@@Z 00000001800098b0 f i PxAutoGeneratedMetaDataObjects.obj
 0001:000088c0       ?setPxSceneDescFrictionOffsetThreshold@@YAXPEAVPxSceneDesc@physx@@M@Z 00000001800098c0 f i PxAutoGeneratedMetaDataObjects.obj
 0001:000088d0       ?setPxSceneDescFrictionType@@YAXPEAVPxSceneDesc@physx@@W4Enum@PxFrictionType@2@@Z 00000001800098d0 f i PxAutoGeneratedMetaDataObjects.obj
 0001:000088e0       ?setPxSceneDescGpuComputeVersion@@YAXPEAVPxSceneDesc@physx@@I@Z 00000001800098e0 f i PxAutoGeneratedMetaDataObjects.obj
 0001:000088f0       ?setPxSceneDescGpuDynamicsConfig@@YAXPEAVPxSceneDesc@physx@@UPxgDynamicsMemoryConfig@2@@Z 00000001800098f0 f i PxAutoGeneratedMetaDataObjects.obj
 0001:00008910       ?setPxSceneDescGpuMaxNumPartitions@@YAXPEAVPxSceneDesc@physx@@I@Z 0000000180009910 f i PxAutoGeneratedMetaDataObjects.obj
 0001:00008920       ?setPxSimulationStatisticsPeakConstraintMemory@@YAXPEAVPxSimulationStatistics@physx@@I@Z 0000000180009920 f i PxAutoGeneratedMetaDataObjects.obj
 0001:00008920       ?setPxSceneDescKineKineFilteringMode@@YAXPEAVPxSceneDesc@physx@@W4Enum@PxPairFilteringMode@2@@Z 0000000180009920 f i PxAutoGeneratedMetaDataObjects.obj
 0001:00008930       ?setPxSceneDescLimits@@YAXPEAVPxSceneDesc@physx@@VPxSceneLimits@2@@Z 0000000180009930 f i PxAutoGeneratedMetaDataObjects.obj
 0001:00008940       ?setPxSceneDescMaxBiasCoefficient@@YAXPEAVPxSceneDesc@physx@@M@Z 0000000180009940 f i PxAutoGeneratedMetaDataObjects.obj
 0001:00008950       ?setPxSceneDescMaxNbContactDataBlocks@@YAXPEAVPxSceneDesc@physx@@I@Z 0000000180009950 f i PxAutoGeneratedMetaDataObjects.obj
 0001:00008960       ?setPxSceneDescNbContactDataBlocks@@YAXPEAVPxSceneDesc@physx@@I@Z 0000000180009960 f i PxAutoGeneratedMetaDataObjects.obj
 0001:00008970       ?setPxSceneDescSanityBounds@@YAXPEAVPxSceneDesc@physx@@VPxBounds3@2@@Z 0000000180009970 f i PxAutoGeneratedMetaDataObjects.obj
 0001:000089b0       ?setPxSceneDescSceneQueryUpdateMode@@YAXPEAVPxSceneDesc@physx@@W4Enum@PxSceneQueryUpdateMode@2@@Z 00000001800099b0 f i PxAutoGeneratedMetaDataObjects.obj
 0001:000089c0       ?setPxSceneDescSolverArticulationBatchSize@@YAXPEAVPxSceneDesc@physx@@I@Z 00000001800099c0 f i PxAutoGeneratedMetaDataObjects.obj
 0001:000089d0       ?setPxSceneDescSolverBatchSize@@YAXPEAVPxSceneDesc@physx@@I@Z 00000001800099d0 f i PxAutoGeneratedMetaDataObjects.obj
 0001:000089e0       ?setPxSceneDescSolverOffsetSlop@@YAXPEAVPxSceneDesc@physx@@M@Z 00000001800099e0 f i PxAutoGeneratedMetaDataObjects.obj
 0001:000089f0       ?setPxSceneDescSolverType@@YAXPEAVPxSceneDesc@physx@@W4Enum@PxSolverType@2@@Z 00000001800099f0 f i PxAutoGeneratedMetaDataObjects.obj
 0001:00008a00       ?setPxSimulationStatisticsNbDiscreteContactPairsTotal@@YAXPEAVPxSimulationStatistics@physx@@I@Z 0000000180009a00 f i PxAutoGeneratedMetaDataObjects.obj
 0001:00008a00       ?setPxSceneDescStaticKineFilteringMode@@YAXPEAVPxSceneDesc@physx@@W4Enum@PxPairFilteringMode@2@@Z 0000000180009a00 f i PxAutoGeneratedMetaDataObjects.obj
 0001:00008a10       ?setPxSceneDescStaticStructure@@YAXPEAVPxSceneDesc@physx@@W4Enum@PxPruningStructureType@2@@Z 0000000180009a10 f i PxAutoGeneratedMetaDataObjects.obj
 0001:00008a20       ?setPxSceneDescUserData@@YAXPEAVPxSceneDesc@physx@@PEAX@Z 0000000180009a20 f i PxAutoGeneratedMetaDataObjects.obj
 0001:00008a30       ?setPxSceneDescWakeCounterResetValue@@YAXPEAVPxSceneDesc@physx@@M@Z 0000000180009a30 f i PxAutoGeneratedMetaDataObjects.obj
 0001:00008a40       ?setPxSceneDesc_ToDefault@@YAXPEAVPxSceneDesc@physx@@AEBVPxTolerancesScale@2@@Z 0000000180009a40 f   PxAutoGeneratedMetaDataObjects.obj
 0001:00008c40       ?setPxSimulationStatisticsNbDynamicBodies@@YAXPEAVPxSimulationStatistics@physx@@I@Z 0000000180009c40 f i PxAutoGeneratedMetaDataObjects.obj
 0001:00008c40       ?setPxSceneLimitsMaxNbAggregates@@YAXPEAVPxSceneLimits@physx@@I@Z 0000000180009c40 f i PxAutoGeneratedMetaDataObjects.obj
 0001:00008c40       ?setPxgDynamicsMemoryConfigPatchStreamSize@@YAXPEAUPxgDynamicsMemoryConfig@physx@@I@Z 0000000180009c40 f i PxAutoGeneratedMetaDataObjects.obj
 0001:00008c50       ?setPxgDynamicsMemoryConfigFoundLostPairsCapacity@@YAXPEAUPxgDynamicsMemoryConfig@physx@@I@Z 0000000180009c50 f i PxAutoGeneratedMetaDataObjects.obj
 0001:00008c50       ?setPxSceneLimitsMaxNbBroadPhaseOverlaps@@YAXPEAVPxSceneLimits@physx@@I@Z 0000000180009c50 f i PxAutoGeneratedMetaDataObjects.obj
 0001:00008c60       ?setPxSceneLimitsMaxNbConstraints@@YAXPEAVPxSceneLimits@physx@@I@Z 0000000180009c60 f i PxAutoGeneratedMetaDataObjects.obj
 0001:00008c60       ?setPxgDynamicsMemoryConfigForceStreamCapacity@@YAXPEAUPxgDynamicsMemoryConfig@physx@@I@Z 0000000180009c60 f i PxAutoGeneratedMetaDataObjects.obj
 0001:00008c60       ?setPxSimulationStatisticsNbKinematicBodies@@YAXPEAVPxSimulationStatistics@physx@@I@Z 0000000180009c60 f i PxAutoGeneratedMetaDataObjects.obj
 0001:00008c70       ?setPxSceneLimitsMaxNbDynamicShapes@@YAXPEAVPxSceneLimits@physx@@I@Z 0000000180009c70 f i PxAutoGeneratedMetaDataObjects.obj
 0001:00008c70       ?setPxSimulationStatisticsNbStaticBodies@@YAXPEAVPxSimulationStatistics@physx@@I@Z 0000000180009c70 f i PxAutoGeneratedMetaDataObjects.obj
 0001:00008c70       ?setPxgDynamicsMemoryConfigContactStreamSize@@YAXPEAUPxgDynamicsMemoryConfig@physx@@I@Z 0000000180009c70 f i PxAutoGeneratedMetaDataObjects.obj
 0001:00008c80       ?setPxSceneLimitsMaxNbRegions@@YAXPEAVPxSceneLimits@physx@@I@Z 0000000180009c80 f i PxAutoGeneratedMetaDataObjects.obj
 0001:00008c80       ?setPxgDynamicsMemoryConfigHeapCapacity@@YAXPEAUPxgDynamicsMemoryConfig@physx@@I@Z 0000000180009c80 f i PxAutoGeneratedMetaDataObjects.obj
 0001:00008c90       ?setPxScene_BounceThresholdVelocity@@YAXPEAVPxScene@physx@@M@Z 0000000180009c90 f   PxAutoGeneratedMetaDataObjects.obj
 0001:00008ca0       ?setPxScene_Limits@@YAXPEAVPxScene@physx@@AEBVPxSceneLimits@2@@Z 0000000180009ca0 f   PxAutoGeneratedMetaDataObjects.obj
 0001:00008cb0       ?setPxScene_NbContactDataBlocks@@YAXPEAVPxScene@physx@@I@Z 0000000180009cb0 f   PxAutoGeneratedMetaDataObjects.obj
 0001:00008cc0       ?setPxScene_SceneQueryUpdateMode@@YAXPEAVPxScene@physx@@W4Enum@PxSceneQueryUpdateMode@2@@Z 0000000180009cc0 f   PxAutoGeneratedMetaDataObjects.obj
 0001:00008cd0       ?setPxScene_SolverArticulationBatchSize@@YAXPEAVPxScene@physx@@I@Z 0000000180009cd0 f   PxAutoGeneratedMetaDataObjects.obj
 0001:00008ce0       ?setPxScene_SolverBatchSize@@YAXPEAVPxScene@physx@@I@Z 0000000180009ce0 f   PxAutoGeneratedMetaDataObjects.obj
 0001:00008cf0       ?setPxScene_VisualizationCullingBox@@YAXPEAVPxScene@physx@@AEBVPxBounds3@2@@Z 0000000180009cf0 f   PxAutoGeneratedMetaDataObjects.obj
 0001:00008d00       ?setPxShape_Flags@@YAXPEAVPxShape@physx@@V?$PxFlags@W4Enum@PxShapeFlag@physx@@E@2@@Z 0000000180009d00 f   PxAutoGeneratedMetaDataObjects.obj
 0001:00008d20       ?setPxSimulationStatisticsCompressedContactSize@@YAXPEAVPxSimulationStatistics@physx@@I@Z 0000000180009d20 f i PxAutoGeneratedMetaDataObjects.obj
 0001:00008d30       ?setPxSimulationStatisticsNbAggregates@@YAXPEAVPxSimulationStatistics@physx@@I@Z 0000000180009d30 f i PxAutoGeneratedMetaDataObjects.obj
 0001:00008d40       ?setPxSimulationStatisticsNbArticulations@@YAXPEAVPxSimulationStatistics@physx@@I@Z 0000000180009d40 f i PxAutoGeneratedMetaDataObjects.obj
 0001:00008d50       ?setPxSimulationStatisticsNbAxisSolverConstraints@@YAXPEAVPxSimulationStatistics@physx@@I@Z 0000000180009d50 f i PxAutoGeneratedMetaDataObjects.obj
 0001:00008d60       ?setPxSimulationStatisticsNbBroadPhaseAdds@@YAXPEAVPxSimulationStatistics@physx@@I@Z 0000000180009d60 f i PxAutoGeneratedMetaDataObjects.obj
 0001:00008d70       ?setPxSimulationStatisticsNbBroadPhaseRemoves@@YAXPEAVPxSimulationStatistics@physx@@I@Z 0000000180009d70 f i PxAutoGeneratedMetaDataObjects.obj
 0001:00008d80       ?setPxSimulationStatisticsNbDiscreteContactPairsWithContacts@@YAXPEAVPxSimulationStatistics@physx@@I@Z 0000000180009d80 f i PxAutoGeneratedMetaDataObjects.obj
 0001:00008d90       ?setPxSimulationStatisticsNbLostPairs@@YAXPEAVPxSimulationStatistics@physx@@I@Z 0000000180009d90 f i PxAutoGeneratedMetaDataObjects.obj
 0001:00008da0       ?setPxSimulationStatisticsNbLostTouches@@YAXPEAVPxSimulationStatistics@physx@@I@Z 0000000180009da0 f i PxAutoGeneratedMetaDataObjects.obj
 0001:00008db0       ?setPxSimulationStatisticsNbNewPairs@@YAXPEAVPxSimulationStatistics@physx@@I@Z 0000000180009db0 f i PxAutoGeneratedMetaDataObjects.obj
 0001:00008dc0       ?setPxSimulationStatisticsNbNewTouches@@YAXPEAVPxSimulationStatistics@physx@@I@Z 0000000180009dc0 f i PxAutoGeneratedMetaDataObjects.obj
 0001:00008dd0       ?setPxSimulationStatisticsNbPartitions@@YAXPEAVPxSimulationStatistics@physx@@I@Z 0000000180009dd0 f i PxAutoGeneratedMetaDataObjects.obj
 0001:00008de0       ?setPxSimulationStatisticsRequiredContactConstraintMemory@@YAXPEAVPxSimulationStatistics@physx@@I@Z 0000000180009de0 f i PxAutoGeneratedMetaDataObjects.obj
 0001:00008df0       ?setPxTolerancesScaleLength@@YAXPEAVPxTolerancesScale@physx@@M@Z 0000000180009df0 f i PxAutoGeneratedMetaDataObjects.obj
 0001:00008e00       ?setPxTriangleMeshGeometryMeshFlags@@YAXPEAVPxTriangleMeshGeometry@physx@@V?$PxFlags@W4Enum@PxMeshGeometryFlag@physx@@E@2@@Z 0000000180009e00 f i PxAutoGeneratedMetaDataObjects.obj
 0001:00008e10       ??0NbCCDPairsProperty@physx@@QEAA@XZ 0000000180009e10 f   PxMetaDataObjects.obj
 0001:00008e40       ??0NbDiscreteContactPairsProperty@physx@@QEAA@XZ 0000000180009e40 f   PxMetaDataObjects.obj
 0001:00008e70       ??0NbModifiedContactPairsProperty@physx@@QEAA@XZ 0000000180009e70 f   PxMetaDataObjects.obj
 0001:00008ea0       ??0NbShapesProperty@physx@@QEAA@XZ 0000000180009ea0 f   PxMetaDataObjects.obj
 0001:00008ed0       ??0NbTriggerPairsProperty@physx@@QEAA@XZ 0000000180009ed0 f   PxMetaDataObjects.obj
 0001:00008f00       ??0PxFoundation@physx@@QEAA@XZ 0000000180009f00 f i PxMetaDataObjects.obj
 0001:00008f00       ??0PxFoundation@physx@@QEAA@AEBV01@@Z 0000000180009f00 f i PxMetaDataObjects.obj
 0001:00008f10       ??0SimulationStatisticsProperty@physx@@QEAA@XZ 0000000180009f10 f   PxMetaDataObjects.obj
 0001:00008f30       ??1PxFoundation@physx@@MEAA@XZ 0000000180009f30 f i PxMetaDataObjects.obj
 0001:00008f40       ??_EPxFoundation@physx@@MEAAPEAXI@Z 0000000180009f40 f i PxMetaDataObjects.obj
 0001:00008fd0       ?clear@SimulationController@Sc@physx@@UEAAXXZ 0000000180009fd0 f i SimulationController_static_64:ScSimulationController.obj
 0001:00008fd0       ?getGeneralizedMassMatrixCRB@ArticulationV@Dy@physx@@UEAAXAEAVPxArticulationCache@3@@Z 0000000180009fd0 f i LowLevelDynamics_static_64:DyArticulation.obj
 0001:00008fd0       ?finalizeQuery@?$PxHitCallback@UPxRaycastHit@physx@@@physx@@UEAAXXZ 0000000180009fd0 f i NpBatchQuery.obj
 0001:00008fd0       ??1SapPairManager@Bp@physx@@QEAA@XZ 0000000180009fd0 f i LowLevelAABB_static_64:BpBroadPhaseSapAux.obj
 0001:00008fd0       ?updateMaterial@PxsNphaseImplementationContext@physx@@UEAAXAEBVPxsMaterialCore@2@@Z 0000000180009fd0 f i LowLevel_static_64:PxsNphaseImplementationContext.obj
 0001:00008fd0       ?exportExtraData@?$PxSerializerDefaultAdapter@VNpArticulationJoint@physx@@@physx@@UEBAXAEAVPxBase@2@AEAVPxSerializationContext@2@@Z 0000000180009fd0 f i NpSerializerAdapter.obj
 0001:00008fd0       ?updateBodiesAndShapes@SimulationController@Sc@physx@@UEAAXPEAVPxBaseTask@3@@Z 0000000180009fd0 f i SimulationController_static_64:ScSimulationController.obj
 0001:00008fd0       ?frameEnd@NpScene@physx@@UEAAXXZ 0000000180009fd0 f i NpScene.obj
 0001:00008fd0       ?switchFromNoSim@?$NpRigidActorTemplate@VPxRigidStatic@physx@@@physx@@UEAAXXZ 0000000180009fd0 f i NpRigidStatic.obj
 0001:00008fd0       ?packJointData@ArticulationV@Dy@physx@@UEAAXPEBMPEAM@Z 0000000180009fd0 f i LowLevelDynamics_static_64:DyArticulation.obj
 0001:00008fd0       ?fetchUpdateContactManager@PxsNphaseImplementationContext@physx@@UEAAXXZ 0000000180009fd0 f i LowLevel_static_64:PxsNphaseImplementationContext.obj
 0001:00008fd0       ?merge@BucketPruner@Sq@physx@@UEAAXPEBX@Z 0000000180009fd0 f i SceneQuery_static_64:SqBucketPruner.obj
 0001:00008fd0       _guard_check_icall_nop     0000000180009fd0 f i LIBCMT:guard_support.obj
 0001:00008fd0       ?getCoefficientMatrix@ArticulationV@Dy@physx@@UEAAXMIPEBVPxContactJoint@3@IAEAVPxArticulationCache@3@@Z 0000000180009fd0 f i LowLevelDynamics_static_64:DyArticulation.obj
 0001:00008fd0       ?__global_delete@@YAXPEAX_K@Z 0000000180009fd0 f i PxMetaDataObjects.obj
 0001:00008fd0       ?addJoint@SimulationController@Sc@physx@@UEAAXIPEAUConstraint@Dy@3@AEAVIslandSim@IG@3@AEAV?$Array@IV?$ReflectionAllocator@I@shdfnd@physx@@@shdfnd@3@AEAV?$Array@UPxgSolverConstraintManagerConstants@physx@@VVirtualAllocator@shdfnd@2@@93@I@Z 0000000180009fd0 f i SimulationController_static_64:ScSimulationController.obj
 0001:00008fd0       ?updateBodyCore@DynamicsTGSContext@Dy@physx@@UEAAXPEAVPxBaseTask@3@@Z 0000000180009fd0 f i LowLevelDynamics_static_64:DyTGSDynamics.obj
 0001:00008fd0       ?stopSimulation@PxTaskMgr@physx@@UEAAXXZ 0000000180009fd0 f i PhysXTask_static_64:TaskManager.obj
 0001:00008fd0       ?initializeCommonData@ArticulationV@Dy@physx@@UEAAXXZ 0000000180009fd0 f i LowLevelDynamics_static_64:DyArticulation.obj
 0001:00008fd0       ?processLostPatches@DynamicsContext@Dy@physx@@UEAAXAEAVSimpleIslandManager@IG@3@PEAPEAVPxsContactManager@3@IAEAVPxsContactManagerOutputIterator@3@@Z 0000000180009fd0 f i LowLevelDynamics_static_64:DyDynamics.obj
 0001:00008fd0       ??1ConstraintCore@Sc@physx@@QEAA@XZ 0000000180009fd0 f i SimulationController_static_64:ScConstraintCore.obj
 0001:00008fd0       ?exportExtraData@?$PxSerializerDefaultAdapter@VNpMaterial@physx@@@physx@@UEBAXAEAVPxBase@2@AEAVPxSerializationContext@2@@Z 0000000180009fd0 f i NpSerializerAdapter.obj
 0001:00008fd0       ?switchFromNoSim@?$NpRigidActorTemplate@VPxArticulationLink@physx@@@physx@@UEAAXXZ 0000000180009fd0 f i NpArticulationLink.obj
 0001:00008fd0       ?getCoriolisAndCentrifugalForce@ArticulationV@Dy@physx@@UEAAXAEAVPxArticulationCache@3@@Z 0000000180009fd0 f i LowLevelDynamics_static_64:DyArticulation.obj
 0001:00008fd0       ?processLostPatches@DynamicsTGSContext@Dy@physx@@UEAAXAEAVSimpleIslandManager@IG@3@PEAPEAVPxsContactManager@3@IAEAVPxsContactManagerOutputIterator@3@@Z 0000000180009fd0 f i LowLevelDynamics_static_64:DyTGSDynamics.obj
 0001:00008fd0       ?updateArticulationJoint@SimulationController@Sc@physx@@UEAAXPEAVArticulationV@Dy@3@AEBVNodeIndex@IG@3@@Z 0000000180009fd0 f i SimulationController_static_64:ScSimulationController.obj
 0001:00008fd0       ?finalizeQuery@?$PxHitCallback@UPxSweepHit@physx@@@physx@@UEAAXXZ 0000000180009fd0 f i NpBatchQuery.obj
 0001:00008fd0       ?getGeneralizedExternalForce@ArticulationV@Dy@physx@@UEAAXAEAVPxArticulationCache@3@@Z 0000000180009fd0 f i LowLevelDynamics_static_64:DyArticulation.obj
 0001:00008fd0       ?visualize@Pruner@Sq@physx@@UEBAXAEAVRenderOutput@Cm@3@I@Z 0000000180009fd0 f i SceneQuery_static_64:SqBucketPruner.obj
 0001:00008fd0       ?fetchBroadPhaseResults@BroadPhaseSap@Bp@physx@@UEAAXPEAVPxBaseTask@3@@Z 0000000180009fd0 f i LowLevelAABB_static_64:BpBroadPhaseSap.obj
 0001:00008fd0       ?addShape@SimulationController@Sc@physx@@UEAAXPEAUPxsShapeSim@3@I@Z 0000000180009fd0 f i SimulationController_static_64:ScSimulationController.obj
 0001:00008fd0       ?requiresObjects@NpArticulationJointReducedCoordinate@physx@@UEAAXAEAVPxProcessPxBaseCallback@2@@Z 0000000180009fd0 f i NpArticulationJointReducedCoordinate.obj
 0001:00008fd0       ??1ArticulationCore@Sc@physx@@QEAA@XZ 0000000180009fd0 f i SimulationController_static_64:ScArticulationCore.obj
 0001:00008fd0       ?runInternal@DynamicsMergeTask@Dy@physx@@UEAAXXZ 0000000180009fd0 f i LowLevelDynamics_static_64:DyTGSDynamics.obj
 0001:00008fd0       ?updateShapeContactOffset@PxsNphaseImplementationContext@physx@@UEAAXAEBUPxsShapeCore@2@@Z 0000000180009fd0 f i LowLevel_static_64:PxsNphaseImplementationContext.obj
 0001:00008fd0       ??1ArticulationJointCore@Sc@physx@@QEAA@XZ 0000000180009fd0 f i SimulationController_static_64:ScArticulationJointCore.obj
 0001:00008fd0       ?getJointAcceleration@ArticulationV@Dy@physx@@UEAAXAEBVPxVec3@3@AEAVPxArticulationCache@3@@Z 0000000180009fd0 f i LowLevelDynamics_static_64:DyArticulation.obj
 0001:00008fd0       ?switchToNoSim@?$NpRigidActorTemplate@VPxArticulationLink@physx@@@physx@@UEAAXXZ 0000000180009fd0 f i NpArticulationLink.obj
 0001:00008fd0       ?startNarrowPhaseTasks@PxsNphaseImplementationContext@physx@@UEAAXXZ 0000000180009fd0 f i LowLevel_static_64:PxsNphaseImplementationContext.obj
 0001:00008fd0       ?PxcDisplayContactCacheStats@@YAXXZ 0000000180009fd0 f i LowLevel_static_64:PxcContactCache.obj
 0001:00008fd0       ?unpackJointData@ArticulationV@Dy@physx@@UEAAXPEBMPEAM@Z 0000000180009fd0 f i LowLevelDynamics_static_64:DyArticulation.obj
 0001:00008fd0       ?postBroadPhaseUpdateContactManager@PxsNphaseImplementationContext@physx@@UEAAXXZ 0000000180009fd0 f i LowLevel_static_64:PxsNphaseImplementationContext.obj
 0001:00008fd0       ?updateDynamic@SimulationController@Sc@physx@@UEAAX_NAEBVNodeIndex@IG@3@@Z 0000000180009fd0 f i SimulationController_static_64:ScSimulationController.obj
 0001:00008fd0       ?shiftOrigin@BroadPhaseABP@Bp@physx@@UEAAXAEBVPxVec3@3@PEBVPxBounds3@3@PEBM@Z 0000000180009fd0 f i LowLevelAABB_static_64:BpBroadPhaseABP.obj
 0001:00008fd0       ?unregisterMaterial@PxsNphaseImplementationContext@physx@@UEAAXAEBVPxsMaterialCore@2@@Z 0000000180009fd0 f i LowLevel_static_64:PxsNphaseImplementationContext.obj
 0001:00008fd0       ?releaseDeferredArticulationIds@SimulationController@Sc@physx@@UEAAXXZ 0000000180009fd0 f i SimulationController_static_64:ScSimulationController.obj
 0001:00008fd0       ?addDynamic@SimulationController@Sc@physx@@UEAAXPEAVPxsRigidBody@3@AEBVNodeIndex@IG@3@@Z 0000000180009fd0 f i SimulationController_static_64:ScSimulationController.obj
 0001:00008fd0       ?getDenseJacobian@ArticulationV@Dy@physx@@UEAAXAEAVPxArticulationCache@3@AEAI1@Z 0000000180009fd0 f i LowLevelDynamics_static_64:DyArticulation.obj
 0001:00008fd0       ?updateShapeMaterial@PxsNphaseImplementationContext@physx@@UEAAXAEBUPxsShapeCore@2@@Z 0000000180009fd0 f i LowLevel_static_64:PxsNphaseImplementationContext.obj
 0001:00008fd0       ?solveInternalConstraints@Articulation@Dy@physx@@UEAAXMMPEAUSpatialVectorF@Cm@3@0_N1M@Z 0000000180009fd0 f i LowLevelDynamics_static_64:DyArticulation.obj
 0001:00008fd0       ?preallocateNewBuffers@PxsNphaseImplementationContext@physx@@UEAAXII@Z 0000000180009fd0 f i LowLevel_static_64:PxsNphaseImplementationContext.obj
 0001:00008fd0       ?switchToNoSim@?$NpRigidActorTemplate@VPxRigidStatic@physx@@@physx@@UEAAXXZ 0000000180009fd0 f i NpRigidStatic.obj
 0001:00008fd0       ?getDataStreamBase@DynamicsContext@Dy@physx@@UEAAXAEAPEAX00@Z 0000000180009fd0 f i LowLevelDynamics_static_64:DyDynamics.obj
 0001:00008fd0       ?__empty_global_delete@@YAXPEAX_K@Z 0000000180009fd0 f i PxMetaDataObjects.obj
 0001:00008fd0       ?removeJoint@SimulationController@Sc@physx@@UEAAXIPEAUConstraint@Dy@3@AEAV?$Array@IV?$ReflectionAllocator@I@shdfnd@physx@@@shdfnd@3@AEAVIslandSim@IG@3@@Z 0000000180009fd0 f i SimulationController_static_64:ScSimulationController.obj
 0001:00008fd0       ?saveVelocityTGS@FeatherstoneArticulation@Dy@physx@@SAXAEBUArticulationSolverDesc@23@M@Z 0000000180009fd0 f i LowLevelDynamics_static_64:DyFeatherstoneArticulation.obj
 0001:00008fd0       ??1PxsContactManager@physx@@QEAA@XZ 0000000180009fd0 f i LowLevel_static_64:PxsContactManager.obj
 0001:00008fd0       ?getCoefficientMatrixWithLoopJoints@ArticulationV@Dy@physx@@UEAAXPEAUArticulationLoopConstraint@23@IAEAVPxArticulationCache@3@@Z 0000000180009fd0 f i LowLevelDynamics_static_64:DyArticulation.obj
 0001:00008fd0       ?requiresObjects@NpMaterial@physx@@UEAAXAEAVPxProcessPxBaseCallback@2@@Z 0000000180009fd0 f i NpMaterial.obj
 0001:00008fd0       ?releaseArticulation@SimulationController@Sc@physx@@UEAAXPEAVArticulationV@Dy@3@AEBVNodeIndex@IG@3@@Z 0000000180009fd0 f i SimulationController_static_64:ScSimulationController.obj
 0001:00008fd0       ?concludeContact@Dy@physx@@YAXAEBUPxSolverConstraintDesc@2@@Z 0000000180009fd0 f i LowLevelDynamics_static_64:DyTGSContactPrep.obj
 0001:00008fd0       ?visualize@CompoundPruner@Sq@physx@@UEBAXAEAVRenderOutput@Cm@3@I@Z 0000000180009fd0 f i SceneQuery_static_64:SqCompoundPruner.obj
 0001:00008fd0       ?gpuDmabackData@SimulationController@Sc@physx@@UEAAXAEAVPxsTransformCache@3@AEAVBoundsArray@Bp@3@AEAV?$BitMapBase@VVirtualAllocator@shdfnd@physx@@@Cm@3@@Z 0000000180009fd0 f i SimulationController_static_64:ScSimulationController.obj
 0001:00008fd0       ?updateBody@SimulationController@Sc@physx@@UEAAXPEAVPxsRigidBody@3@I@Z 0000000180009fd0 f i SimulationController_static_64:ScSimulationController.obj
 0001:00008fd0       ?addDynamics@SimulationController@Sc@physx@@UEAAXPEAPEAVPxsRigidBody@3@PEBII@Z 0000000180009fd0 f i SimulationController_static_64:ScSimulationController.obj
 0001:00008fd0       ?removeShape@SimulationController@Sc@physx@@UEAAXI@Z 0000000180009fd0 f i SimulationController_static_64:ScSimulationController.obj
 0001:00008fd0       ?fetchBroadPhaseResults@BroadPhaseMBP@Bp@physx@@UEAAXPEAVPxBaseTask@3@@Z 0000000180009fd0 f i LowLevelAABB_static_64:BpBroadPhaseMBP.obj
 0001:00008fd0       ?postActorFlagChange@ActorSim@Sc@physx@@UEAAXII@Z 0000000180009fd0 f i SimulationController_static_64:ScScene.obj
 0001:00008fd0       ?getJointForce@ArticulationV@Dy@physx@@UEAAXAEAVPxArticulationCache@3@@Z 0000000180009fd0 f i LowLevelDynamics_static_64:DyArticulation.obj
 0001:00008fd0       ?getGeneralizedMassMatrix@ArticulationV@Dy@physx@@UEAAXAEAVPxArticulationCache@3@@Z 0000000180009fd0 f i LowLevelDynamics_static_64:DyArticulation.obj
 0001:00008fd0       ?updateJoint@SimulationController@Sc@physx@@UEAAXIPEAUConstraint@Dy@3@@Z 0000000180009fd0 f i SimulationController_static_64:ScSimulationController.obj
 0001:00008fd0       ?exportExtraData@?$PxSerializerDefaultAdapter@VNpConstraint@physx@@@physx@@UEBAXAEAVPxBase@2@AEAVPxSerializationContext@2@@Z 0000000180009fd0 f i NpSerializerAdapter.obj
 0001:00008fd0       ?reserve@SimulationController@Sc@physx@@UEAAXI@Z 0000000180009fd0 f i SimulationController_static_64:ScSimulationController.obj
 0001:00008fd0       ?mergeResults@DynamicsTGSContext@Dy@physx@@UEAAXXZ 0000000180009fd0 f i LowLevelDynamics_static_64:DyTGSDynamics.obj
 0001:00008fd0       ?runInternal@FanoutTask@Cm@physx@@UEAAXXZ 0000000180009fd0 f i SimulationController_static_64:ScScene.obj
 0001:00008fd0       ?deletePairs@BroadPhaseMBP@Bp@physx@@UEAAXXZ 0000000180009fd0 f i LowLevelAABB_static_64:BpBroadPhaseMBP.obj
 0001:00008fd0       ?releaseContext@PxsNphaseImplementationContext@physx@@UEAAXXZ 0000000180009fd0 f i LowLevel_static_64:PxsNphaseImplementationContext.obj
 0001:00008fd0       ?exportExtraData@?$PxSerializerDefaultAdapter@VNpArticulationJointReducedCoordinate@physx@@@physx@@UEBAXAEAVPxBase@2@AEAVPxSerializationContext@2@@Z 0000000180009fd0 f i NpSerializerAdapter.obj
 0001:00008fd0       ?getGeneralizedGravityForce@ArticulationV@Dy@physx@@UEAAXAEBVPxVec3@3@AEAVPxArticulationCache@3@@Z 0000000180009fd0 f i LowLevelDynamics_static_64:DyArticulation.obj
 0001:00008fd0       ?switchToNoSim@?$NpRigidActorTemplate@VPxRigidDynamic@physx@@@physx@@UEAAXXZ 0000000180009fd0 f i NpRigidDynamic.obj
 0001:00008fd0       ?updateArticulation@SimulationController@Sc@physx@@UEAAXPEAVArticulationV@Dy@3@AEBVNodeIndex@IG@3@@Z 0000000180009fd0 f i SimulationController_static_64:ScSimulationController.obj
 0001:00008fd0       ?setBounds@SimulationController@Sc@physx@@UEAAXPEAVBoundsArray@Bp@3@@Z 0000000180009fd0 f i SimulationController_static_64:ScSimulationController.obj
 0001:00008fd0       ?acquireContext@PxsNphaseImplementationContext@physx@@UEAAXXZ 0000000180009fd0 f i LowLevel_static_64:PxsNphaseImplementationContext.obj
 0001:00008fd0       ?prepareStaticConstraints@ArticulationV@Dy@physx@@UEAAXMMAEAVPxsContactManagerOutputIterator@3@AEAVThreadContext@23@MMMMMPEAUPxSolverBodyData@3@AEAVPxsConstraintBlockManager@3@PEAUConstraintWriteback@23@@Z 0000000180009fd0 f i LowLevelDynamics_static_64:DyArticulation.obj
 0001:00008fd0       ?getDataStreamBase@DynamicsTGSContext@Dy@physx@@UEAAXAEAPEAX00@Z 0000000180009fd0 f i LowLevelDynamics_static_64:DyTGSDynamics.obj
 0001:00008fd0       ?prepareStaticConstraintsTGS@ArticulationV@Dy@physx@@UEAAXMMMMAEAVPxsContactManagerOutputIterator@3@AEAVThreadContext@23@MMMPEAUPxTGSSolverBodyData@3@PEAUPxTGSSolverBodyTxInertia@3@AEAVPxsConstraintBlockManager@3@PEAUConstraintWriteback@23@IM@Z 0000000180009fd0 f i LowLevelDynamics_static_64:DyArticulation.obj
 0001:00008fd0       ?finalizeQuery@?$PxHitCallback@UPxOverlapHit@physx@@@physx@@UEAAXXZ 0000000180009fd0 f i NpBatchQuery.obj
 0001:00008fd0       ?registerMaterial@PxsNphaseImplementationContext@physx@@UEAAXAEBVPxsMaterialCore@2@@Z 0000000180009fd0 f i LowLevel_static_64:PxsNphaseImplementationContext.obj
 0001:00008fd0       ?updateBodies@SimulationController@Sc@physx@@UEAAXPEAPEAVPxsRigidBody@3@PEAII@Z 0000000180009fd0 f i SimulationController_static_64:ScSimulationController.obj
 0001:00008fd0       ?onUpdateSolverDesc@ArticulationV@Dy@physx@@UEAAXXZ 0000000180009fd0 f i LowLevelDynamics_static_64:DyArticulation.obj
 0001:00008fd0       ?copyInternalStateToCache@ArticulationV@Dy@physx@@UEAAXAEAVPxArticulationCache@3@V?$PxFlags@W4Enum@PxArticulationCache@physx@@E@3@@Z 0000000180009fd0 f i LowLevelDynamics_static_64:DyArticulation.obj
 0001:00008fd0       ?runInternal@SceneCompletion@NpScene@physx@@UEAAXXZ 0000000180009fd0 f i NpScene.obj
 0001:00008fd0       ??_FAllocator@shdfnd@physx@@QEAAXXZ 0000000180009fd0 f i PxMetaDataObjects.obj
 0001:00008fd0       ?addArticulation@SimulationController@Sc@physx@@UEAAXPEAVArticulationV@Dy@3@AEBVNodeIndex@IG@3@@Z 0000000180009fd0 f i SimulationController_static_64:ScSimulationController.obj
 0001:00008fd0       ?concludeInternalConstraints@Articulation@Dy@physx@@UEAAX_N@Z 0000000180009fd0 f i LowLevelDynamics_static_64:DyArticulation.obj
 0001:00008fd0       ?unregisterShape@PxsNphaseImplementationContext@physx@@UEAAXAEBUPxsShapeCore@2@@Z 0000000180009fd0 f i LowLevel_static_64:PxsNphaseImplementationContext.obj
 0001:00008fd0       ?teleportRootLink@ArticulationV@Dy@physx@@UEAAXXZ 0000000180009fd0 f i LowLevelDynamics_static_64:DyArticulation.obj
 0001:00008fd0       ?writebackInternalConstraints@Articulation@Dy@physx@@UEAAX_N@Z 0000000180009fd0 f i LowLevelDynamics_static_64:DyArticulation.obj
 0001:00008fd0       ?requiresObjects@NpArticulationJoint@physx@@UEAAXAEAVPxProcessPxBaseCallback@2@@Z 0000000180009fd0 f i NpArticulationJoint.obj
 0001:00008fd0       ?requiresObjects@NpConstraint@physx@@UEAAXAEAVPxProcessPxBaseCallback@2@@Z 0000000180009fd0 f i NpConstraint.obj
 0001:00008fd0       ?visualize@BVHCompoundPruner@Sq@physx@@UEBAXAEAVRenderOutput@Cm@3@I@Z 0000000180009fd0 f i SceneQuery_static_64:SqCompoundPruner.obj
 0001:00008fd0       ?updateBodyCore@DynamicsContext@Dy@physx@@UEAAXPEAVPxBaseTask@3@@Z 0000000180009fd0 f i LowLevelDynamics_static_64:DyDynamics.obj
 0001:00008fd0       ?fetchBroadPhaseResults@BroadPhaseABP@Bp@physx@@UEAAXPEAVPxBaseTask@3@@Z 0000000180009fd0 f i LowLevelAABB_static_64:BpBroadPhaseABP.obj
 0001:00008fd0       ?switchFromNoSim@?$NpRigidActorTemplate@VPxRigidDynamic@physx@@@physx@@UEAAXXZ 0000000180009fd0 f i NpRigidDynamic.obj
 0001:00008fd0       ??1ConstraintInteraction@Sc@physx@@QEAA@XZ 0000000180009fd0 f i SimulationController_static_64:ScConstraintInteraction.obj
 0001:00008fd0       ?registerShape@PxsNphaseImplementationContext@physx@@UEAAXAEBUPxsShapeCore@2@@Z 0000000180009fd0 f i LowLevel_static_64:PxsNphaseImplementationContext.obj
 0001:00008fd0       ?__global_array_delete@@YAXPEAX_K@Z 0000000180009fd0 f i PxMetaDataObjects.obj
 0001:00008fd0       ?PxcClearContactCacheStats@@YAXXZ 0000000180009fd0 f i LowLevel_static_64:PxcContactCache.obj
 0001:00008fd0       ??1ActorCore@Sc@physx@@QEAA@XZ 0000000180009fd0 f i SimulationController_static_64:ScActorCore.obj
 0001:00008fd0       ?update@SimulationController@Sc@physx@@UEAAXI@Z 0000000180009fd0 f i SimulationController_static_64:ScSimulationController.obj
 0001:00008fd0       ?deletePairs@BroadPhaseABP@Bp@physx@@UEAAXXZ 0000000180009fd0 f i LowLevelAABB_static_64:BpBroadPhaseABP.obj
 0001:00008fd0       ??1NpActor@physx@@IEAA@XZ  0000000180009fd0 f i NpActor.obj
 0001:00008fe0       ?GetNbCCDPairs@@YAIPEBVPxSimulationStatistics@physx@@W4Enum@PxGeometryType@2@1@Z 0000000180009fe0 f i PxMetaDataObjects.obj
 0001:00009000       ?GetNbDiscreteContactPairs@@YAIPEBVPxSimulationStatistics@physx@@W4Enum@PxGeometryType@2@1@Z 000000018000a000 f i PxMetaDataObjects.obj
 0001:00009020       ?GetNbModifiedContactPairs@@YAIPEBVPxSimulationStatistics@physx@@W4Enum@PxGeometryType@2@1@Z 000000018000a020 f i PxMetaDataObjects.obj
 0001:00009040       ?GetNbShape@@YAIPEBVPxSimulationStatistics@physx@@W4Enum@PxGeometryType@2@@Z 000000018000a040 f i PxMetaDataObjects.obj
 0001:00009050       ?GetNbTriggerPairs@@YAIPEBVPxSimulationStatistics@physx@@W4Enum@PxGeometryType@2@1@Z 000000018000a050 f i PxMetaDataObjects.obj
 0001:00009070       ?GetStats@@YA?AVPxSimulationStatistics@physx@@PEBVPxScene@2@@Z 000000018000a070 f i PxMetaDataObjects.obj
 0001:00009150       ?SetNbCCDPairs@@YAXPEAVPxSimulationStatistics@physx@@W4Enum@PxGeometryType@2@1I@Z 000000018000a150 f i PxMetaDataObjects.obj
 0001:00009170       ?SetNbDiscreteContactPairs@@YAXPEAVPxSimulationStatistics@physx@@W4Enum@PxGeometryType@2@1I@Z 000000018000a170 f i PxMetaDataObjects.obj
 0001:00009190       ?SetNbModifiedContactPairs@@YAXPEAVPxSimulationStatistics@physx@@W4Enum@PxGeometryType@2@1I@Z 000000018000a190 f i PxMetaDataObjects.obj
 0001:000091b0       ?SetNbShape@@YAXPEAVPxSimulationStatistics@physx@@W4Enum@PxGeometryType@2@I@Z 000000018000a1b0 f i PxMetaDataObjects.obj
 0001:000091c0       ?SetNbTriggerPairs@@YAXPEAVPxSimulationStatistics@physx@@W4Enum@PxGeometryType@2@1I@Z 000000018000a1c0 f i PxMetaDataObjects.obj
 0001:000091e0       ?createLink@PxArticulationLinkCollectionPropHelper@physx@@QEBAPEAVPxArticulationLink@2@PEAVPxArticulation@2@PEAV32@AEBVPxTransform@2@@Z 000000018000a1e0 f   PxMetaDataObjects.obj
 0001:00009200       ?createShape@PxRigidActorShapeCollectionHelper@physx@@QEBAPEAVPxShape@2@PEAVPxRigidActor@2@AEBVPxGeometry@2@AEAVPxMaterial@2@V?$PxFlags@W4Enum@PxShapeFlag@physx@@E@2@@Z 000000018000a200 f   PxMetaDataObjects.obj
 0001:00009280       ?createShape@PxRigidActorShapeCollectionHelper@physx@@QEBAPEAVPxShape@2@PEAVPxRigidActor@2@AEBVPxGeometry@2@PEBQEAVPxMaterial@2@GV?$PxFlags@W4Enum@PxShapeFlag@physx@@E@2@@Z 000000018000a280 f   PxMetaDataObjects.obj
 0001:00009310       ?getTolerancesScale@NpPhysics@physx@@UEBAAEBVPxTolerancesScale@2@XZ 000000018000a310 f i NpPhysics.obj
 0001:00009310       ?getAllocator@Foundation@shdfnd@physx@@QEAAAEAVPxAllocatorCallback@3@XZ 000000018000a310 f i PxMetaDataObjects.obj
 0001:00009310       ?getImpl@?$NpArticulationTemplate@VPxArticulationReducedCoordinate@physx@@@physx@@UEAAPEAVPxArticulationImpl@2@XZ 000000018000a310 f i NpArticulationReducedCoordinate.obj
 0001:00009310       ?getImpl@?$NpArticulationTemplate@VPxArticulation@physx@@@physx@@UEBAPEBVPxArticulationImpl@2@XZ 000000018000a310 f i NpArticulation.obj
 0001:00009310       ?getImpl@?$NpArticulationTemplate@VPxArticulation@physx@@@physx@@UEAAPEAVPxArticulationImpl@2@XZ 000000018000a310 f i NpArticulation.obj
 0001:00009310       ?getImpl@?$NpArticulationTemplate@VPxArticulationReducedCoordinate@physx@@@physx@@UEBAPEBVPxArticulationImpl@2@XZ 000000018000a310 f i NpArticulationReducedCoordinate.obj
 0001:00009320       ?getErrorLevel@Foundation@shdfnd@physx@@UEBA?AW4Enum@PxErrorCode@3@XZ 000000018000a320 f i PxMetaDataObjects.obj
 0001:00009330       ?getGeometry@PxShapeGeometryPropertyHelper@physx@@QEBA_NPEBVPxShape@2@AEAVPxBoxGeometry@2@@Z 000000018000a330 f   PxMetaDataObjects.obj
 0001:00009340       ?getGeometry@PxShapeGeometryPropertyHelper@physx@@QEBA_NPEBVPxShape@2@AEAVPxCapsuleGeometry@2@@Z 000000018000a340 f   PxMetaDataObjects.obj
 0001:00009350       ?getGeometry@PxShapeGeometryPropertyHelper@physx@@QEBA_NPEBVPxShape@2@AEAVPxConvexMeshGeometry@2@@Z 000000018000a350 f   PxMetaDataObjects.obj
 0001:00009350       ?exportExtraData@?$PxSerializerDefaultAdapter@VNpAggregate@physx@@@physx@@UEBAXAEAVPxBase@2@AEAVPxSerializationContext@2@@Z 000000018000a350 f   NpSerializerAdapter.obj
 0001:00009360       ?getGeometry@PxShapeGeometryPropertyHelper@physx@@QEBA_NPEBVPxShape@2@AEAVPxHeightFieldGeometry@2@@Z 000000018000a360 f   PxMetaDataObjects.obj
 0001:00009360       ?requiresObjects@?$PxSerializerDefaultAdapter@VConvexMesh@Gu@physx@@@physx@@UEBAXAEAVPxBase@2@AEAVPxProcessPxBaseCallback@2@@Z 000000018000a360 f   NpSerializerAdapter.obj
 0001:00009370       ?getGeometry@PxShapeGeometryPropertyHelper@physx@@QEBA_NPEBVPxShape@2@AEAVPxPlaneGeometry@2@@Z 000000018000a370 f   PxMetaDataObjects.obj
 0001:00009380       ?getGeometry@PxShapeGeometryPropertyHelper@physx@@QEBA_NPEBVPxShape@2@AEAVPxSphereGeometry@2@@Z 000000018000a380 f   PxMetaDataObjects.obj
 0001:00009390       ?requiresObjects@?$PxSerializerDefaultAdapter@VNpAggregate@physx@@@physx@@UEBAXAEAVPxBase@2@AEAVPxProcessPxBaseCallback@2@@Z 000000018000a390 f   NpSerializerAdapter.obj
 0001:00009390       ?exportExtraData@?$PxSerializerDefaultAdapter@VConvexMesh@Gu@physx@@@physx@@UEBAXAEAVPxBase@2@AEAVPxSerializationContext@2@@Z 000000018000a390 f   NpSerializerAdapter.obj
 0001:00009390       ?getGeometry@PxShapeGeometryPropertyHelper@physx@@QEBA_NPEBVPxShape@2@AEAVPxTriangleMeshGeometry@2@@Z 000000018000a390 f   PxMetaDataObjects.obj
 0001:000093a0       ?getGeometryType@PxShapeGeometryPropertyHelper@physx@@QEBA?AW4Enum@PxGeometryType@2@PEBVPxShape@2@@Z 000000018000a3a0 f   PxMetaDataObjects.obj
 0001:000093b0       ?getInternalErrorCallback@Foundation@shdfnd@physx@@QEAAAEAVPxErrorCallback@3@XZ 000000018000a3b0 f i PxMetaDataObjects.obj
 0001:000093c0       ?getNamedAllocMap@Foundation@shdfnd@physx@@QEAAAEAV?$HashMap@PEBVNamedAllocator@shdfnd@physx@@PEBDU?$Hash@PEBVNamedAllocator@shdfnd@physx@@@23@VNonTrackingAllocator@23@@23@XZ 000000018000a3c0 f i PxMetaDataObjects.obj
 0001:000093d0       ?getNamedAllocMutex@Foundation@shdfnd@physx@@QEAAAEAV?$MutexT@VAllocator@shdfnd@physx@@@23@XZ 000000018000a3d0 f i PxMetaDataObjects.obj
 0001:000093e0       ?getReportAllocationNames@Foundation@shdfnd@physx@@UEBA_NXZ 000000018000a3e0 f i PxMetaDataObjects.obj
 0001:000093f0       ?getTempAllocFreeTable@Foundation@shdfnd@physx@@QEAAAEAV?$Array@PEATTempAllocatorChunk@shdfnd@physx@@VAllocator@23@@23@XZ 000000018000a3f0 f i PxMetaDataObjects.obj
 0001:00009400       ?getTempAllocMutex@Foundation@shdfnd@physx@@QEAAAEAV?$MutexT@VAllocator@shdfnd@physx@@@23@XZ 000000018000a400 f i PxMetaDataObjects.obj
 0001:00009410       ?setErrorLevel@Foundation@shdfnd@physx@@UEAAXW4Enum@PxErrorCode@3@@Z 000000018000a410 f i PxMetaDataObjects.obj
 0001:00009420       ?setMaterials@PxShapeMaterialsPropertyHelper@physx@@QEBAXPEAVPxShape@2@PEBQEAVPxMaterial@2@G@Z 000000018000a420 f   PxMetaDataObjects.obj
 0001:00009440       ?setReportAllocationNames@Foundation@shdfnd@physx@@UEAAX_N@Z 000000018000a440 f i PxMetaDataObjects.obj
 0001:00009450       ??0NpActor@physx@@QEAA@PEBD@Z 000000018000a450 f   NpActor.obj
 0001:00009460       ??4FPUGuard@shdfnd@physx@@QEAAAEAV012@AEBV012@@Z 000000018000a460 f i NpActor.obj
 0001:00009480       ?addConnector@NpActor@physx@@QEAAXW4Enum@NpConnectorType@2@PEAVPxBase@2@PEBD@Z 000000018000a480 f   NpActor.obj
 0001:000095d0       ?addConstraintsToSceneInternal@NpActor@physx@@AEAAXXZ 000000018000a5d0 f   NpActor.obj
 0001:000096a0       ?allocate@?$Array@VNpConnector@physx@@V?$InlineAllocator@$0EA@V?$ReflectionAllocator@VNpConnector@physx@@@shdfnd@physx@@@shdfnd@2@@shdfnd@physx@@IEAAPEAVNpConnector@3@I@Z 000000018000a6a0 f i NpActor.obj
 0001:00009760       ?create@?$HashBase@PEAVPxConstraint@physx@@PEAV12@U?$Hash@PEAVPxConstraint@physx@@@shdfnd@2@UGetKey@?$HashSetBase@PEAVPxConstraint@physx@@U?$Hash@PEAVPxConstraint@physx@@@shdfnd@2@VNonTrackingAllocator@42@$00@internal@42@VNonTrackingAllocator@42@$00@internal@shdfnd@physx@@QEAAPEAPEAVPxConstraint@4@AEBQEAV54@AEA_N@Z 000000018000a760 f i NpActor.obj
 0001:00009760       ?create@?$HashBase@PEAVPxArticulationBase@physx@@PEAV12@U?$Hash@PEAVPxArticulationBase@physx@@@shdfnd@2@UGetKey@?$HashSetBase@PEAVPxArticulationBase@physx@@U?$Hash@PEAVPxArticulationBase@physx@@@shdfnd@2@VNonTrackingAllocator@42@$00@internal@42@VNonTrackingAllocator@42@$00@internal@shdfnd@physx@@QEAAPEAPEAVPxArticulationBase@4@AEBQEAV54@AEA_N@Z 000000018000a760 f i NpScene.obj
 0001:00009760       ?create@?$HashBase@PEAVPxAggregate@physx@@PEAV12@U?$Hash@PEAVPxAggregate@physx@@@shdfnd@2@UGetKey@?$HashSetBase@PEAVPxAggregate@physx@@U?$Hash@PEAVPxAggregate@physx@@@shdfnd@2@VNonTrackingAllocator@42@$00@internal@42@VNonTrackingAllocator@42@$00@internal@shdfnd@physx@@QEAAPEAPEAVPxAggregate@4@AEBQEAV54@AEA_N@Z 000000018000a760 f i NpScene.obj
 0001:00009760       ?create@?$HashBase@PEAVBase@Scb@physx@@PEAV123@U?$Hash@PEAVBase@Scb@physx@@@shdfnd@3@UGetKey@?$HashSetBase@PEAVBase@Scb@physx@@U?$Hash@PEAVBase@Scb@physx@@@shdfnd@3@VNonTrackingAllocator@53@$00@internal@53@VNonTrackingAllocator@53@$00@internal@shdfnd@physx@@QEAAPEAPEAVBase@Scb@4@AEBQEAV564@AEA_N@Z 000000018000a760 f i ScbScene.obj
 0001:00009760       ?create@?$HashBase@PEAVPxShape@physx@@PEAV12@U?$Hash@PEAVPxShape@physx@@@shdfnd@2@UGetKey@?$HashSetBase@PEAVPxShape@physx@@U?$Hash@PEAVPxShape@physx@@@shdfnd@2@VNonTrackingAllocator@42@$00@internal@42@VNonTrackingAllocator@42@$00@internal@shdfnd@physx@@QEAAPEAPEAVPxShape@4@AEBQEAV54@AEA_N@Z 000000018000a760 f i NpFactory.obj
 0001:00009900       ?erase@?$HashBase@PEAVBase@Scb@physx@@PEAV123@U?$Hash@PEAVBase@Scb@physx@@@shdfnd@3@UGetKey@?$HashSetBase@PEAVBase@Scb@physx@@U?$Hash@PEAVBase@Scb@physx@@@shdfnd@3@VNonTrackingAllocator@53@$00@internal@53@VNonTrackingAllocator@53@$00@internal@shdfnd@physx@@QEAA_NAEBQEAVBase@Scb@4@@Z 000000018000a900 f i ScbScene.obj
 0001:00009900       ?erase@?$HashBase@PEAVConstraintCore@Sc@physx@@PEAV123@U?$Hash@PEAVConstraintCore@Sc@physx@@@shdfnd@3@UGetKey@?$HashSetBase@PEAVConstraintCore@Sc@physx@@U?$Hash@PEAVConstraintCore@Sc@physx@@@shdfnd@3@VNonTrackingAllocator@53@$00@internal@53@VNonTrackingAllocator@53@$00@internal@shdfnd@physx@@QEAA_NAEBQEAVConstraintCore@Sc@4@@Z 000000018000a900 f i SimulationController_static_64:ScScene.obj
 0001:00009900       ?erase@?$HashBase@PEAVArticulationCore@Sc@physx@@PEAV123@U?$Hash@PEAVArticulationCore@Sc@physx@@@shdfnd@3@UGetKey@?$HashSetBase@PEAVArticulationCore@Sc@physx@@U?$Hash@PEAVArticulationCore@Sc@physx@@@shdfnd@3@VNonTrackingAllocator@53@$00@internal@53@VNonTrackingAllocator@53@$00@internal@shdfnd@physx@@QEAA_NAEBQEAVArticulationCore@Sc@4@@Z 000000018000a900 f i SimulationController_static_64:ScScene.obj
 0001:00009900       ?erase@?$HashBase@PEAVBodyCore@Sc@physx@@PEAV123@U?$Hash@PEAVBodyCore@Sc@physx@@@shdfnd@3@UGetKey@?$HashSetBase@PEAVBodyCore@Sc@physx@@U?$Hash@PEAVBodyCore@Sc@physx@@@shdfnd@3@VNonTrackingAllocator@53@$00@internal@53@VNonTrackingAllocator@53@$00@internal@shdfnd@physx@@QEAA_NAEBQEAVBodyCore@Sc@4@@Z 000000018000a900 f i SimulationController_static_64:ScScene.obj
 0001:00009900       ?erase@?$HashBase@PEAVPxShape@physx@@PEAV12@U?$Hash@PEAVPxShape@physx@@@shdfnd@2@UGetKey@?$HashSetBase@PEAVPxShape@physx@@U?$Hash@PEAVPxShape@physx@@@shdfnd@2@VNonTrackingAllocator@42@$00@internal@42@VNonTrackingAllocator@42@$00@internal@shdfnd@physx@@QEAA_NAEBQEAVPxShape@4@@Z 000000018000a900 f i NpFactory.obj
 0001:00009900       ?erase@?$HashBase@PEAUConstraintGroupNode@Sc@physx@@PEAU123@U?$Hash@PEAUConstraintGroupNode@Sc@physx@@@shdfnd@3@UGetKey@?$HashSetBase@PEAUConstraintGroupNode@Sc@physx@@U?$Hash@PEAUConstraintGroupNode@Sc@physx@@@shdfnd@3@VNonTrackingAllocator@53@$00@internal@53@VNonTrackingAllocator@53@$00@internal@shdfnd@physx@@QEAA_NAEBQEAUConstraintGroupNode@Sc@4@@Z 000000018000a900 f i SimulationController_static_64:ScConstraintProjectionManager.obj
 0001:00009900       ?erase@?$HashBase@PEAVInteraction@Sc@physx@@PEAV123@U?$Hash@PEAVInteraction@Sc@physx@@@shdfnd@3@UGetKey@?$HashSetBase@PEAVInteraction@Sc@physx@@U?$Hash@PEAVInteraction@Sc@physx@@@shdfnd@3@VNonTrackingAllocator@53@$00@internal@53@VNonTrackingAllocator@53@$00@internal@shdfnd@physx@@QEAA_NAEBQEAVInteraction@Sc@4@@Z 000000018000a900 f i SimulationController_static_64:ScNPhaseCore.obj
 0001:00009900       ?erase@?$HashBase@PEAVPxAggregate@physx@@PEAV12@U?$Hash@PEAVPxAggregate@physx@@@shdfnd@2@UGetKey@?$HashSetBase@PEAVPxAggregate@physx@@U?$Hash@PEAVPxAggregate@physx@@@shdfnd@2@VNonTrackingAllocator@42@$00@internal@42@VNonTrackingAllocator@42@$00@internal@shdfnd@physx@@QEAA_NAEBQEAVPxAggregate@4@@Z 000000018000a900 f i NpAggregate.obj
 0001:00009900       ?erase@?$HashBase@PEAVPxConstraint@physx@@PEAV12@U?$Hash@PEAVPxConstraint@physx@@@shdfnd@2@UGetKey@?$HashSetBase@PEAVPxConstraint@physx@@U?$Hash@PEAVPxConstraint@physx@@@shdfnd@2@VNonTrackingAllocator@42@$00@internal@42@VNonTrackingAllocator@42@$00@internal@shdfnd@physx@@QEAA_NAEBQEAVPxConstraint@4@@Z 000000018000a900 f i NpActor.obj
 0001:00009900       ?erase@?$HashBase@PEAVPxArticulationBase@physx@@PEAV12@U?$Hash@PEAVPxArticulationBase@physx@@@shdfnd@2@UGetKey@?$HashSetBase@PEAVPxArticulationBase@physx@@U?$Hash@PEAVPxArticulationBase@physx@@@shdfnd@2@VNonTrackingAllocator@42@$00@internal@42@VNonTrackingAllocator@42@$00@internal@shdfnd@physx@@QEAA_NAEBQEAVPxArticulationBase@4@@Z 000000018000a900 f i NpArticulationReducedCoordinate.obj
 0001:00009900       ?erase@?$HashBase@PEAVConstraintSim@Sc@physx@@PEAV123@U?$Hash@PEAVConstraintSim@Sc@physx@@@shdfnd@3@UGetKey@?$HashSetBase@PEAVConstraintSim@Sc@physx@@U?$Hash@PEAVConstraintSim@Sc@physx@@@shdfnd@3@VNonTrackingAllocator@53@$00@internal@53@VNonTrackingAllocator@53@$00@internal@shdfnd@physx@@QEAA_NAEBQEAVConstraintSim@Sc@4@@Z 000000018000a900 f i SimulationController_static_64:ScScene.obj
 0001:00009900       ?erase@?$HashBase@PEBVBodySim@Sc@physx@@PEBV123@U?$Hash@PEBVBodySim@Sc@physx@@@shdfnd@3@UGetKey@?$HashSetBase@PEBVBodySim@Sc@physx@@U?$Hash@PEBVBodySim@Sc@physx@@@shdfnd@3@VNonTrackingAllocator@53@$00@internal@53@VNonTrackingAllocator@53@$00@internal@shdfnd@physx@@QEAA_NAEBQEBVBodySim@Sc@4@@Z 000000018000a900 f i SimulationController_static_64:ScScene.obj
 0001:00009a70       ?exportExtraData@NpActor@physx@@QEAAXAEAVPxSerializationContext@2@@Z 000000018000aa70 f   NpActor.obj
 0001:00009c20       ?findConnector@NpActor@physx@@QEBAIW4Enum@NpConnectorType@2@PEAVPxBase@2@@Z 000000018000ac20 f   NpActor.obj
 0001:00009c70       ?getAPIScene@NpActor@physx@@SAPEAVNpScene@2@AEBVPxActor@2@@Z 000000018000ac70 f   NpActor.obj
 0001:00009ca0       ?getAggregate@NpActor@physx@@QEBAPEAVPxAggregate@2@XZ 000000018000aca0 f   NpActor.obj
 0001:00009ce0       ?getGlobalPose@NpActor@physx@@SAXAEAVPxTransform@2@AEBVShape@Scb@2@AEBVActor@52@@Z 000000018000ace0 f   NpActor.obj
 0001:0000a1c0       ?getNbConnectors@NpActor@physx@@QEBAIW4Enum@NpConnectorType@2@@Z 000000018000b1c0 f   NpActor.obj
 0001:0000a200       ?getNpAggregate@NpActor@physx@@QEBAPEAVNpAggregate@2@AEAI@Z 000000018000b200 f   NpActor.obj
 0001:0000a240       ?getOwnerScene@NpActor@physx@@SAPEAVNpScene@2@AEBVPxActor@2@@Z 000000018000b240 f   NpActor.obj
 0001:0000a260       ?getShapeManager@NpActor@physx@@SAPEAVNpShapeManager@2@AEAVPxRigidActor@2@@Z 000000018000b260 f   NpActor.obj
 0001:0000a260       ?getShapeManager@NpActor@physx@@SAPEBVNpShapeManager@2@AEBVPxRigidActor@2@@Z 000000018000b260 f   NpActor.obj
 0001:0000a290       ?growAndPushBack@?$Array@VNpConnector@physx@@V?$InlineAllocator@$0EA@V?$ReflectionAllocator@VNpConnector@physx@@@shdfnd@physx@@@shdfnd@2@@shdfnd@physx@@IEAAAEAVNpConnector@3@AEBV43@@Z 000000018000b290 f i NpActor.obj
 0001:0000a370       ?importExtraData@NpActor@physx@@QEAAXAEAVPxDeserializationContext@2@@Z 000000018000b370 f   NpActor.obj
 0001:0000a410       ?onActorRelease@NpActor@physx@@SAXPEAVPxActor@2@@Z 000000018000b410 f   NpActor.obj
 0001:0000a420       ?recreate@?$Array@VNpConnector@physx@@V?$InlineAllocator@$0EA@V?$ReflectionAllocator@VNpConnector@physx@@@shdfnd@physx@@@shdfnd@2@@shdfnd@physx@@IEAAXI@Z 000000018000b420 f i NpActor.obj
 0001:0000a4d0       ?release@NpActor@physx@@QEAAXAEAVPxActor@2@@Z 000000018000b4d0 f   NpActor.obj
 0001:0000a4f0       ?releaseConstraints@NpActor@physx@@QEAAXAEAVPxRigidActor@2@@Z 000000018000b4f0 f   NpActor.obj
 0001:0000a610       ?removeConnector@NpActor@physx@@AEAAXAEAVPxActor@2@I@Z 000000018000b610 f   NpActor.obj
 0001:0000a670       ?removeConnector@NpActor@physx@@QEAAXAEAVPxActor@2@W4Enum@NpConnectorType@2@PEAVPxBase@2@PEBD@Z 000000018000b670 f   NpActor.obj
 0001:0000a710       ?removeConstraintsFromScene@NpActor@physx@@QEAAXXZ 000000018000b710 f   NpActor.obj
 0001:0000a7c0       ?reserveInternal@?$HashBase@PEAVPxConstraint@physx@@PEAV12@U?$Hash@PEAVPxConstraint@physx@@@shdfnd@2@UGetKey@?$HashSetBase@PEAVPxConstraint@physx@@U?$Hash@PEAVPxConstraint@physx@@@shdfnd@2@VNonTrackingAllocator@42@$00@internal@42@VNonTrackingAllocator@42@$00@internal@shdfnd@physx@@AEAAXI@Z 000000018000b7c0 f i NpActor.obj
 0001:0000a7c0       ?reserveInternal@?$HashBase@PEAVPxShape@physx@@PEAV12@U?$Hash@PEAVPxShape@physx@@@shdfnd@2@UGetKey@?$HashSetBase@PEAVPxShape@physx@@U?$Hash@PEAVPxShape@physx@@@shdfnd@2@VNonTrackingAllocator@42@$00@internal@42@VNonTrackingAllocator@42@$00@internal@shdfnd@physx@@AEAAXI@Z 000000018000b7c0 f i NpFactory.obj
 0001:0000a7c0       ?reserveInternal@?$HashBase@PEAVPxAggregate@physx@@PEAV12@U?$Hash@PEAVPxAggregate@physx@@@shdfnd@2@UGetKey@?$HashSetBase@PEAVPxAggregate@physx@@U?$Hash@PEAVPxAggregate@physx@@@shdfnd@2@VNonTrackingAllocator@42@$00@internal@42@VNonTrackingAllocator@42@$00@internal@shdfnd@physx@@AEAAXI@Z 000000018000b7c0 f i NpScene.obj
 0001:0000a7c0       ?reserveInternal@?$HashBase@PEAVBase@Scb@physx@@PEAV123@U?$Hash@PEAVBase@Scb@physx@@@shdfnd@3@UGetKey@?$HashSetBase@PEAVBase@Scb@physx@@U?$Hash@PEAVBase@Scb@physx@@@shdfnd@3@VNonTrackingAllocator@53@$00@internal@53@VNonTrackingAllocator@53@$00@internal@shdfnd@physx@@AEAAXI@Z 000000018000b7c0 f i ScbScene.obj
 0001:0000a7c0       ?reserveInternal@?$HashBase@PEAVPxArticulationBase@physx@@PEAV12@U?$Hash@PEAVPxArticulationBase@physx@@@shdfnd@2@UGetKey@?$HashSetBase@PEAVPxArticulationBase@physx@@U?$Hash@PEAVPxArticulationBase@physx@@@shdfnd@2@VNonTrackingAllocator@42@$00@internal@42@VNonTrackingAllocator@42@$00@internal@shdfnd@physx@@AEAAXI@Z 000000018000b7c0 f i NpScene.obj
 0001:0000a990       ?resizeUninitialized@?$Array@VNpConnector@physx@@V?$InlineAllocator@$0EA@V?$ReflectionAllocator@VNpConnector@physx@@@shdfnd@physx@@@shdfnd@2@@shdfnd@physx@@QEAAXI@Z 000000018000b990 f i NpActor.obj
 0001:0000a9d0       ?resolveReferences@NpActor@physx@@QEAAXAEAVPxDeserializationContext@2@@Z 000000018000b9d0 f   NpActor.obj
 0001:0000aa60       ?setAggregate@NpActor@physx@@QEAAXPEAVNpAggregate@2@AEAVPxActor@2@@Z 000000018000ba60 f   NpActor.obj
 0001:0000ac10       ??0NpAggregate@physx@@QEAA@I_N@Z 000000018000bc10 f   NpAggregate.obj
 0001:0000acb0       ??_ENpAggregate@physx@@UEAAPEAXI@Z 000000018000bcb0 f i NpAggregate.obj
 0001:0000acb0       ??_GNpAggregate@physx@@UEAAPEAXI@Z 000000018000bcb0 f i NpAggregate.obj
 0001:0000ad60       ??_GPxBase@physx@@MEAAPEAXI@Z 000000018000bd60 f i NpAggregate.obj
 0001:0000ad60       ??_EPxBase@physx@@MEAAPEAXI@Z 000000018000bd60 f i NpAggregate.obj
 0001:0000ad90       ?addActor@NpAggregate@physx@@UEAA_NAEAVPxActor@2@PEBVPxBVHStructure@2@@Z 000000018000bd90 f   NpAggregate.obj
 0001:0000afb0       ?addActorInternal@NpAggregate@physx@@QEAAXAEAVPxActor@2@AEAVNpScene@2@PEBVPxBVHStructure@2@@Z 000000018000bfb0 f   NpAggregate.obj
 0001:0000b090       ?addArticulation@NpAggregate@physx@@UEAA_NAEAVPxArticulationBase@2@@Z 000000018000c090 f   NpAggregate.obj
 0001:0000b260       ?createObject@NpAggregate@physx@@SAPEAV12@AEAPEAEAEAVPxDeserializationContext@2@@Z 000000018000c260 f   NpAggregate.obj
 0001:0000b3c0       ?exportExtraData@NpAggregate@physx@@UEAAXAEAVPxSerializationContext@2@@Z 000000018000c3c0 f   NpAggregate.obj
 0001:0000b410       ?getAPIScene@NpAggregate@physx@@QEBAPEAVNpScene@2@XZ 000000018000c410 f   NpAggregate.obj
 0001:0000b410       ?getScene@NpAggregate@physx@@UEAAPEAVPxScene@2@XZ 000000018000c410 f   NpAggregate.obj
 0001:0000b440       ?getActors@NpAggregate@physx@@UEBAIPEAPEAVPxActor@2@II@Z 000000018000c440 f   NpAggregate.obj
 0001:0000b490       ?getConcreteTypeName@PxAggregate@physx@@UEBAPEBDXZ 000000018000c490 f i NpAggregate.obj
 0001:0000b4a0       ?getSelfCollision@NpAggregate@physx@@UEBA_NXZ 000000018000c4a0 f   NpAggregate.obj
 0001:0000b4b0       ?isKindOf@PxAggregate@physx@@MEBA_NPEBD@Z 000000018000c4b0 f i NpAggregate.obj
 0001:0000b500       ?isKindOf@PxBase@physx@@MEBA_NPEBD@Z 000000018000c500 f i NpAggregate.obj
 0001:0000b530       ?isReleasable@PxBase@physx@@UEBA_NXZ 000000018000c530 f i NpAggregate.obj
 0001:0000b540       ?preExportDataReset@NpAggregate@physx@@QEAAXXZ 000000018000c540 f   NpAggregate.obj
 0001:0000b550       ?release@NpAggregate@physx@@UEAAXXZ 000000018000c550 f   NpAggregate.obj
 0001:0000b6c0       ?removeActor@NpAggregate@physx@@UEAA_NAEAVPxActor@2@@Z 000000018000c6c0 f   NpAggregate.obj
 0001:0000b8e0       ?removeActorAndReinsert@NpAggregate@physx@@QEAA_NAEAVPxActor@2@_N@Z 000000018000c8e0 f   NpAggregate.obj
 0001:0000b9b0       ?removeArticulation@NpAggregate@physx@@UEAA_NAEAVPxArticulationBase@2@@Z 000000018000c9b0 f   NpAggregate.obj
 0001:0000bb10       ?removeArticulationAndReinsert@NpAggregate@physx@@QEAA_NAEAVPxArticulationBase@2@_N@Z 000000018000cb10 f   NpAggregate.obj
 0001:0000bc50       ?requiresObjects@NpAggregate@physx@@UEAAXAEAVPxProcessPxBaseCallback@2@@Z 000000018000cc50 f   NpAggregate.obj
 0001:0000bcc0       ??0NpArticulationReducedCoordinate@physx@@QEAA@XZ 000000018000ccc0 f   NpArticulationReducedCoordinate.obj
 0001:0000bd70       ??1PxArticulationImpl@physx@@QEAA@XZ 000000018000cd70 f i NpArticulationReducedCoordinate.obj
 0001:0000bde0       ??_E?$NpArticulationTemplate@VPxArticulationReducedCoordinate@physx@@@physx@@UEAAPEAXI@Z 000000018000cde0 f i NpArticulationReducedCoordinate.obj
 0001:0000bde0       ??_G?$NpArticulationTemplate@VPxArticulationReducedCoordinate@physx@@@physx@@UEAAPEAXI@Z 000000018000cde0 f i NpArticulationReducedCoordinate.obj
 0001:0000be70       ??_ENpArticulationReducedCoordinate@physx@@UEAAPEAXI@Z 000000018000ce70 f i NpArticulationReducedCoordinate.obj
 0001:0000be70       ??_GNpArticulationReducedCoordinate@physx@@UEAAPEAXI@Z 000000018000ce70 f i NpArticulationReducedCoordinate.obj
 0001:0000bf50       ?addLoopJoint@NpArticulationReducedCoordinate@physx@@UEAAXPEAVPxJoint@2@@Z 000000018000cf50 f   NpArticulationReducedCoordinate.obj
 0001:0000c000       ?allocate@?$Array@PEAVNpArticulationLink@physx@@V?$InlineAllocator@$0CA@V?$ReflectionAllocator@PEAVNpArticulationLink@physx@@@shdfnd@physx@@@shdfnd@2@@shdfnd@physx@@IEAAPEAPEAVNpArticulationLink@3@I@Z 000000018000d000 f i NpArticulationReducedCoordinate.obj
 0001:0000c0c0       ?allocate@?$Array@PEAVPxJoint@physx@@V?$ReflectionAllocator@PEAVPxJoint@physx@@@shdfnd@2@@shdfnd@physx@@IEAAPEAPEAVPxJoint@3@I@Z 000000018000d0c0 f i NpArticulationReducedCoordinate.obj
 0001:0000c160       ?applyCache@NpArticulationReducedCoordinate@physx@@UEAAXAEAVPxArticulationCache@2@V?$PxFlags@W4Enum@PxArticulationCache@physx@@E@2@_N@Z 000000018000d160 f   NpArticulationReducedCoordinate.obj
 0001:0000c4c0       ?commonInit@NpArticulationReducedCoordinate@physx@@UEBAXXZ 000000018000d4c0 f   NpArticulationReducedCoordinate.obj
 0001:0000c4d0       ?computeCoefficientMatrix@NpArticulationReducedCoordinate@physx@@UEBAXAEAVPxArticulationCache@2@@Z 000000018000d4d0 f   NpArticulationReducedCoordinate.obj
 0001:0000c540       ?computeCoriolisAndCentrifugalForce@NpArticulationReducedCoordinate@physx@@UEBAXAEAVPxArticulationCache@2@@Z 000000018000d540 f   NpArticulationReducedCoordinate.obj
 0001:0000c550       ?computeDenseJacobian@NpArticulationReducedCoordinate@physx@@UEBAXAEAVPxArticulationCache@2@AEAI1@Z 000000018000d550 f   NpArticulationReducedCoordinate.obj
 0001:0000c560       ?computeGeneralizedExternalForce@NpArticulationReducedCoordinate@physx@@UEBAXAEAVPxArticulationCache@2@@Z 000000018000d560 f   NpArticulationReducedCoordinate.obj
 0001:0000c570       ?computeGeneralizedGravityForce@NpArticulationReducedCoordinate@physx@@UEBAXAEAVPxArticulationCache@2@@Z 000000018000d570 f   NpArticulationReducedCoordinate.obj
 0001:0000c580       ?computeGeneralizedMassMatrix@NpArticulationReducedCoordinate@physx@@UEBAXAEAVPxArticulationCache@2@@Z 000000018000d580 f   NpArticulationReducedCoordinate.obj
 0001:0000c590       ?computeJointAcceleration@NpArticulationReducedCoordinate@physx@@UEBAXAEAVPxArticulationCache@2@@Z 000000018000d590 f   NpArticulationReducedCoordinate.obj
 0001:0000c5a0       ?computeJointForce@NpArticulationReducedCoordinate@physx@@UEBAXAEAVPxArticulationCache@2@@Z 000000018000d5a0 f   NpArticulationReducedCoordinate.obj
 0001:0000c5b0       ?computeLambda@NpArticulationReducedCoordinate@physx@@UEBA_NAEAVPxArticulationCache@2@0QEBMI@Z 000000018000d5b0 f   NpArticulationReducedCoordinate.obj
 0001:0000c6b0       ?copyInternalStateToCache@NpArticulationReducedCoordinate@physx@@UEBAXAEAVPxArticulationCache@2@V?$PxFlags@W4Enum@PxArticulationCache@physx@@E@2@@Z 000000018000d6b0 f   NpArticulationReducedCoordinate.obj
 0001:0000c6d0       ?createArticulationJoint@NpArticulationReducedCoordinate@physx@@UEAAPEAVPxArticulationJointBase@2@AEAVPxArticulationLink@2@AEBVPxTransform@2@01@Z 000000018000d6d0 f   NpArticulationReducedCoordinate.obj
 0001:0000c6e0       ?createCache@NpArticulationReducedCoordinate@physx@@UEBAPEAVPxArticulationCache@2@XZ 000000018000d6e0 f   NpArticulationReducedCoordinate.obj
 0001:0000c710       ?createLink@?$NpArticulationTemplate@VPxArticulation@physx@@@physx@@UEAAPEAVPxArticulationLink@2@PEAV32@AEBVPxTransform@2@@Z 000000018000d710 f i NpArticulation.obj
 0001:0000c710       ?createLink@?$NpArticulationTemplate@VPxArticulationReducedCoordinate@physx@@@physx@@UEAAPEAVPxArticulationLink@2@PEAV32@AEBVPxTransform@2@@Z 000000018000d710 f i NpArticulationReducedCoordinate.obj
 0001:0000c910       ?createObject@NpArticulationReducedCoordinate@physx@@SAPEAV12@AEAPEAEAEAVPxDeserializationContext@2@@Z 000000018000d910 f   NpArticulationReducedCoordinate.obj
 0001:0000caa0       ?exportExtraData@?$NpArticulationTemplate@VPxArticulation@physx@@@physx@@UEAAXAEAVPxSerializationContext@2@@Z 000000018000daa0 f i NpArticulation.obj
 0001:0000caa0       ?exportExtraData@?$NpArticulationTemplate@VPxArticulationReducedCoordinate@physx@@@physx@@UEAAXAEAVPxSerializationContext@2@@Z 000000018000daa0 f i NpArticulationReducedCoordinate.obj
 0001:0000cb10       ?getArticulationFlags@NpArticulationReducedCoordinate@physx@@UEBA?AV?$PxFlags@W4Enum@PxArticulationFlag@physx@@E@2@XZ 000000018000db10 f   NpArticulationReducedCoordinate.obj
 0001:0000cb20       ?getCacheDataSize@NpArticulationReducedCoordinate@physx@@UEBAIXZ 000000018000db20 f   NpArticulationReducedCoordinate.obj
 0001:0000cb30       ?getCoefficientMatrixSize@NpArticulationReducedCoordinate@physx@@UEBAIXZ 000000018000db30 f   NpArticulationReducedCoordinate.obj
 0001:0000cb40       ?getConcreteTypeName@NpArticulationReducedCoordinate@physx@@UEBAPEBDXZ 000000018000db40 f i NpArticulationReducedCoordinate.obj
 0001:0000cb50       ?getDofs@NpArticulationReducedCoordinate@physx@@UEBAIXZ 000000018000db50 f   NpArticulationReducedCoordinate.obj
 0001:0000cb60       ?getLinkAcceleration@NpArticulationReducedCoordinate@physx@@UEAA?AUPxSpatialVelocity@2@I@Z 000000018000db60 f   NpArticulationReducedCoordinate.obj
 0001:0000cb80       ?getLinkVelocity@NpArticulationReducedCoordinate@physx@@UEAA?AUPxSpatialVelocity@2@I@Z 000000018000db80 f   NpArticulationReducedCoordinate.obj
 0001:0000cba0       ?getLinks@?$NpArticulationTemplate@VPxArticulationReducedCoordinate@physx@@@physx@@UEBAIPEAPEAVPxArticulationLink@2@II@Z 000000018000dba0 f i NpArticulationReducedCoordinate.obj
 0001:0000cba0       ?getLinks@?$NpArticulationTemplate@VPxArticulation@physx@@@physx@@UEBAIPEAPEAVPxArticulationLink@2@II@Z 000000018000dba0 f i NpArticulation.obj
 0001:0000cc00       ?getLoopJoints@NpArticulationReducedCoordinate@physx@@UEBAIPEAPEAVPxJoint@2@II@Z 000000018000dc00 f   NpArticulationReducedCoordinate.obj
 0001:0000cc60       ?getNbLinks@?$NpArticulationTemplate@VPxArticulationReducedCoordinate@physx@@@physx@@UEBAIXZ 000000018000dc60 f i NpArticulationReducedCoordinate.obj
 0001:0000cc60       ?getGeometryType@NpShape@physx@@UEBA?AW4Enum@PxGeometryType@2@XZ 000000018000dc60 f i NpShape.obj
 0001:0000cc60       ?getNbLinks@?$NpArticulationTemplate@VPxArticulation@physx@@@physx@@UEBAIXZ 000000018000dc60 f i NpArticulation.obj
 0001:0000cc70       ?getNbLoopJoints@NpArticulationReducedCoordinate@physx@@UEBAIXZ 000000018000dc70 f   NpArticulationReducedCoordinate.obj
 0001:0000cc80       ?getScene@?$NpArticulationTemplate@VPxArticulationReducedCoordinate@physx@@@physx@@UEBAPEAVPxScene@2@XZ 000000018000dc80 f i NpArticulationReducedCoordinate.obj
 0001:0000cc80       ?getScene@?$NpArticulationTemplate@VPxArticulation@physx@@@physx@@UEBAPEAVPxScene@2@XZ 000000018000dc80 f i NpArticulation.obj
 0001:0000ccb0       ?getSleepThreshold@?$NpArticulationTemplate@VPxArticulationReducedCoordinate@physx@@@physx@@UEBAMXZ 000000018000dcb0 f i NpArticulationReducedCoordinate.obj
 0001:0000ccb0       ?getSleepThreshold@?$NpArticulationTemplate@VPxArticulation@physx@@@physx@@UEBAMXZ 000000018000dcb0 f i NpArticulation.obj
 0001:0000ccd0       ?getSolverIterationCounts@?$NpArticulationTemplate@VPxArticulation@physx@@@physx@@UEBAXAEAI0@Z 000000018000dcd0 f i NpArticulation.obj
 0001:0000ccd0       ?getSolverIterationCounts@?$NpArticulationTemplate@VPxArticulationReducedCoordinate@physx@@@physx@@UEBAXAEAI0@Z 000000018000dcd0 f i NpArticulationReducedCoordinate.obj
 0001:0000cd10       ?getStabilizationThreshold@?$NpArticulationTemplate@VPxArticulationReducedCoordinate@physx@@@physx@@UEBAMXZ 000000018000dd10 f i NpArticulationReducedCoordinate.obj
 0001:0000cd10       ?getStabilizationThreshold@?$NpArticulationTemplate@VPxArticulation@physx@@@physx@@UEBAMXZ 000000018000dd10 f i NpArticulation.obj
 0001:0000cd30       ?getWakeCounter@?$NpArticulationTemplate@VPxArticulationReducedCoordinate@physx@@@physx@@UEBAMXZ 000000018000dd30 f i NpArticulationReducedCoordinate.obj
 0001:0000cd30       ?getWakeCounter@?$NpArticulationTemplate@VPxArticulation@physx@@@physx@@UEBAMXZ 000000018000dd30 f i NpArticulation.obj
 0001:0000cd40       ?getWorldBounds@?$NpArticulationTemplate@VPxArticulation@physx@@@physx@@UEBA?AVPxBounds3@2@M@Z 000000018000dd40 f i NpArticulation.obj
 0001:0000cd40       ?getWorldBounds@?$NpArticulationTemplate@VPxArticulationReducedCoordinate@physx@@@physx@@UEBA?AVPxBounds3@2@M@Z 000000018000dd40 f i NpArticulationReducedCoordinate.obj
 0001:0000cf20       ?growAndPushBack@?$Array@PEAVNpArticulationLink@physx@@V?$InlineAllocator@$0CA@V?$ReflectionAllocator@PEAVNpArticulationLink@physx@@@shdfnd@physx@@@shdfnd@2@@shdfnd@physx@@IEAAAEAPEAVNpArticulationLink@3@AEBQEAV43@@Z 000000018000df20 f i NpArticulationReducedCoordinate.obj
 0001:0000cff0       ?growAndPushBack@?$Array@PEAVPxJoint@physx@@V?$ReflectionAllocator@PEAVPxJoint@physx@@@shdfnd@2@@shdfnd@physx@@IEAAAEAPEAVPxJoint@3@AEBQEAV43@@Z 000000018000dff0 f i NpArticulationReducedCoordinate.obj
 0001:0000d0b0       ?isKindOf@NpArticulationReducedCoordinate@physx@@UEBA_NPEBD@Z 000000018000e0b0 f i NpArticulationReducedCoordinate.obj
 0001:0000d100       ?isSleeping@?$NpArticulationTemplate@VPxArticulationReducedCoordinate@physx@@@physx@@UEBA_NXZ 000000018000e100 f i NpArticulationReducedCoordinate.obj
 0001:0000d100       ?isSleeping@?$NpArticulationTemplate@VPxArticulation@physx@@@physx@@UEBA_NXZ 000000018000e100 f i NpArticulation.obj
 0001:0000d110       ?packJointData@NpArticulationReducedCoordinate@physx@@UEBAXPEBMPEAM@Z 000000018000e110 f   NpArticulationReducedCoordinate.obj
 0001:0000d120       ?preExportDataReset@NpArticulationReducedCoordinate@physx@@QEAAXXZ 000000018000e120 f   NpArticulationReducedCoordinate.obj
 0001:0000d140       ?putToSleep@?$NpArticulationTemplate@VPxArticulationReducedCoordinate@physx@@@physx@@UEAAXXZ 000000018000e140 f i NpArticulationReducedCoordinate.obj
 0001:0000d140       ?putToSleep@?$NpArticulationTemplate@VPxArticulation@physx@@@physx@@UEAAXXZ 000000018000e140 f i NpArticulation.obj
 0001:0000d150       ?putToSleep@PxArticulationImpl@physx@@QEAAXXZ 000000018000e150 f i NpArticulationReducedCoordinate.obj
 0001:0000d370       ?recomputeLinkIDs@PxArticulationImpl@physx@@QEAAXXZ 000000018000e370 f   NpArticulationReducedCoordinate.obj
 0001:0000d420       ?recreate@?$Array@PEAVPxJoint@physx@@V?$ReflectionAllocator@PEAVPxJoint@physx@@@shdfnd@2@@shdfnd@physx@@IEAAXI@Z 000000018000e420 f i NpArticulationReducedCoordinate.obj
 0001:0000d4c0       ?release@?$NpArticulationTemplate@VPxArticulationReducedCoordinate@physx@@@physx@@UEAAXXZ 000000018000e4c0 f i NpArticulationReducedCoordinate.obj
 0001:0000d4c0       ?release@?$NpArticulationTemplate@VPxArticulation@physx@@@physx@@UEAAXXZ 000000018000e4c0 f i NpArticulation.obj
 0001:0000d5c0       ?releaseArticulationJoint@NpArticulationReducedCoordinate@physx@@UEAAXPEAVPxArticulationJointBase@2@@Z 000000018000e5c0 f   NpArticulationReducedCoordinate.obj
 0001:0000d5d0       ?releaseCache@NpArticulationReducedCoordinate@physx@@UEBAXAEAVPxArticulationCache@2@@Z 000000018000e5d0 f   NpArticulationReducedCoordinate.obj
 0001:0000d5e0       ?removeLoopJoint@NpArticulationReducedCoordinate@physx@@UEAAXPEAVPxJoint@2@@Z 000000018000e5e0 f   NpArticulationReducedCoordinate.obj
 0001:0000d650       ?requiresObjects@?$NpArticulationTemplate@VPxArticulation@physx@@@physx@@UEAAXAEAVPxProcessPxBaseCallback@2@@Z 000000018000e650 f i NpArticulation.obj
 0001:0000d650       ?requiresObjects@?$NpArticulationTemplate@VPxArticulationReducedCoordinate@physx@@@physx@@UEAAXAEAVPxProcessPxBaseCallback@2@@Z 000000018000e650 f i NpArticulationReducedCoordinate.obj
 0001:0000d6c0       ?setArticulationFlag@NpArticulationReducedCoordinate@physx@@UEAAXW4Enum@PxArticulationFlag@2@_N@Z 000000018000e6c0 f   NpArticulationReducedCoordinate.obj
 0001:0000d730       ?setArticulationFlags@NpArticulationReducedCoordinate@physx@@UEAAXV?$PxFlags@W4Enum@PxArticulationFlag@physx@@E@2@@Z 000000018000e730 f   NpArticulationReducedCoordinate.obj
 0001:0000d790       ?setSleepThreshold@?$NpArticulationTemplate@VPxArticulation@physx@@@physx@@UEAAXM@Z 000000018000e790 f i NpArticulation.obj
 0001:0000d790       ?setSleepThreshold@?$NpArticulationTemplate@VPxArticulationReducedCoordinate@physx@@@physx@@UEAAXM@Z 000000018000e790 f i NpArticulationReducedCoordinate.obj
 0001:0000d820       ?setSolverIterationCounts@?$NpArticulationTemplate@VPxArticulation@physx@@@physx@@UEAAXII@Z 000000018000e820 f i NpArticulation.obj
 0001:0000d820       ?setSolverIterationCounts@?$NpArticulationTemplate@VPxArticulationReducedCoordinate@physx@@@physx@@UEAAXII@Z 000000018000e820 f i NpArticulationReducedCoordinate.obj
 0001:0000d8c0       ?setStabilizationThreshold@?$NpArticulationTemplate@VPxArticulationReducedCoordinate@physx@@@physx@@UEAAXM@Z 000000018000e8c0 f i NpArticulationReducedCoordinate.obj
 0001:0000d8c0       ?setStabilizationThreshold@?$NpArticulationTemplate@VPxArticulation@physx@@@physx@@UEAAXM@Z 000000018000e8c0 f i NpArticulation.obj
 0001:0000d950       ?setWakeCounter@?$NpArticulationTemplate@VPxArticulationReducedCoordinate@physx@@@physx@@UEAAXM@Z 000000018000e950 f i NpArticulationReducedCoordinate.obj
 0001:0000d950       ?setWakeCounter@?$NpArticulationTemplate@VPxArticulation@physx@@@physx@@UEAAXM@Z 000000018000e950 f i NpArticulation.obj
 0001:0000d960       ?setWakeCounter@PxArticulationImpl@physx@@QEAAXM@Z 000000018000e960 f i NpArticulationReducedCoordinate.obj
 0001:0000db30       ?teleportRootLink@NpArticulationReducedCoordinate@physx@@UEAAXAEBVPxTransform@2@_N@Z 000000018000eb30 f   NpArticulationReducedCoordinate.obj
 0001:0000db40       ?unpackJointData@NpArticulationReducedCoordinate@physx@@UEBAXPEBMPEAM@Z 000000018000eb40 f   NpArticulationReducedCoordinate.obj
 0001:0000db50       ?wakeUp@?$NpArticulationTemplate@VPxArticulationReducedCoordinate@physx@@@physx@@UEAAXXZ 000000018000eb50 f i NpArticulationReducedCoordinate.obj
 0001:0000dcc0       ?wakeUpInternal@PxArticulationImpl@physx@@QEAAX_N0@Z 000000018000ecc0 f i NpArticulationReducedCoordinate.obj
 0001:0000de50       ?zeroCache@NpArticulationReducedCoordinate@physx@@UEAAXAEAVPxArticulationCache@2@@Z 000000018000ee50 f   NpArticulationReducedCoordinate.obj
 0001:0000de60       ??0NpArticulation@physx@@QEAA@XZ 000000018000ee60 f   NpArticulation.obj
 0001:0000df00       ??_E?$NpArticulationTemplate@VPxArticulation@physx@@@physx@@UEAAPEAXI@Z 000000018000ef00 f i NpArticulation.obj
 0001:0000df00       ??_G?$NpArticulationTemplate@VPxArticulation@physx@@@physx@@UEAAPEAXI@Z 000000018000ef00 f i NpArticulation.obj
 0001:0000df90       ??_ENpArticulation@physx@@UEAAPEAXI@Z 000000018000ef90 f i NpArticulation.obj
 0001:0000df90       ??_GNpArticulation@physx@@UEAAPEAXI@Z 000000018000ef90 f i NpArticulation.obj
 0001:0000e030       ?NpArticulationGetRootFromScb@physx@@YAPEAVBody@Scb@1@AEAVArticulation@31@@Z 000000018000f030 f   NpArticulation.obj
 0001:0000e060       ?NpSetArticulationOnJoint@physx@@YAXAEAVPxArticulationJointBase@1@AEAVPxArticulationImpl@1@@Z 000000018000f060 f   NpArticulation.obj
 0001:0000e080       ?applyImpulse@NpArticulation@physx@@UEAAXPEAVPxArticulationLink@2@AEBVPxArticulationDriveCache@2@AEBVPxVec3@2@2@Z 000000018000f080 f   NpArticulation.obj
 0001:0000e1a0       ?computeImpulseResponse@NpArticulation@physx@@UEBAXPEAVPxArticulationLink@2@AEAVPxVec3@2@1AEBVPxArticulationDriveCache@2@AEBV42@3@Z 000000018000f1a0 f   NpArticulation.obj
 0001:0000e1b0       ?createArticulationJoint@NpArticulation@physx@@EEAAPEAVPxArticulationJointBase@2@AEAVPxArticulationLink@2@AEBVPxTransform@2@01@Z 000000018000f1b0 f   NpArticulation.obj
 0001:0000e1c0       ?createDriveCache@NpArticulation@physx@@UEBAPEAVPxArticulationDriveCache@2@MI@Z 000000018000f1c0 f   NpArticulation.obj
 0001:0000e1d0       ?createObject@NpArticulation@physx@@SAPEAV12@AEAPEAEAEAVPxDeserializationContext@2@@Z 000000018000f1d0 f   NpArticulation.obj
 0001:0000e360       ?getConcreteTypeName@NpArticulation@physx@@UEBAPEBDXZ 000000018000f360 f i NpArticulation.obj
 0001:0000e370       ?getExternalDriveIterations@NpArticulation@physx@@UEBAIXZ 000000018000f370 f   NpArticulation.obj
 0001:0000e390       ?getInternalDriveIterations@NpArticulation@physx@@UEBAIXZ 000000018000f390 f   NpArticulation.obj
 0001:0000e3b0       ?getMaxProjectionIterations@NpArticulation@physx@@UEBAIXZ 000000018000f3b0 f   NpArticulation.obj
 0001:0000e3d0       ?getSeparationTolerance@NpArticulation@physx@@UEBAMXZ 000000018000f3d0 f   NpArticulation.obj
 0001:0000e3f0       ?isKindOf@NpArticulation@physx@@UEBA_NPEBD@Z 000000018000f3f0 f i NpArticulation.obj
 0001:0000e440       ?releaseArticulationJoint@NpArticulation@physx@@EEAAXPEAVPxArticulationJointBase@2@@Z 000000018000f440 f   NpArticulation.obj
 0001:0000e450       ?releaseDriveCache@NpArticulation@physx@@UEBAXAEAVPxArticulationDriveCache@2@@Z 000000018000f450 f   NpArticulation.obj
 0001:0000e460       ?setExternalDriveIterations@NpArticulation@physx@@UEAAXI@Z 000000018000f460 f   NpArticulation.obj
 0001:0000e4f0       ?setInternalDriveIterations@NpArticulation@physx@@UEAAXI@Z 000000018000f4f0 f   NpArticulation.obj
 0001:0000e580       ?setMaxProjectionIterations@NpArticulation@physx@@UEAAXI@Z 000000018000f580 f   NpArticulation.obj
 0001:0000e610       ?setSeparationTolerance@NpArticulation@physx@@UEAAXM@Z 000000018000f610 f   NpArticulation.obj
 0001:0000e6a0       ?updateDriveCache@NpArticulation@physx@@UEBAXAEAVPxArticulationDriveCache@2@MI@Z 000000018000f6a0 f   NpArticulation.obj
 0001:0000e6b0       ?wakeUp@?$NpArticulationTemplate@VPxArticulation@physx@@@physx@@UEAAXXZ 000000018000f6b0 f i NpArticulation.obj
 0001:0000e6c0       ?wakeUp@PxArticulationImpl@physx@@QEAAXXZ 000000018000f6c0 f i NpArticulation.obj
 0001:0000e820       ??0NpArticulationJoint@physx@@QEAA@AEAVNpArticulationLink@1@AEBVPxTransform@1@01@Z 000000018000f820 f   NpArticulationJoint.obj
 0001:0000e8d0       ??DPxQuat@physx@@QEBA?AV01@AEBV01@@Z 000000018000f8d0 f i NpArticulationJoint.obj
 0001:0000ea10       ??_E?$NpArticulationJointTemplate@VPxArticulationJoint@physx@@@physx@@UEAAPEAXI@Z 000000018000fa10 f i NpArticulationJoint.obj
 0001:0000ea10       ??_GNpArticulationJoint@physx@@UEAAPEAXI@Z 000000018000fa10 f i NpArticulationJoint.obj
 0001:0000ea10       ??_ENpArticulationJoint@physx@@UEAAPEAXI@Z 000000018000fa10 f i NpArticulationJoint.obj
 0001:0000ea10       ??_G?$NpArticulationJointTemplate@VPxArticulationJoint@physx@@@physx@@UEAAPEAXI@Z 000000018000fa10 f i NpArticulationJoint.obj
 0001:0000ea90       ?NpArticulationJointGetBodiesFromScb@physx@@YAXAEAVArticulationJoint@Scb@1@AEAPEAVBody@31@1@Z 000000018000fa90 f   NpArticulationJoint.obj
 0001:0000eab0       ?createObject@NpArticulationJoint@physx@@SAPEAV12@AEAPEAEAEAVPxDeserializationContext@2@@Z 000000018000fab0 f   NpArticulationJoint.obj
 0001:0000eb30       ?getChildArticulationLink@?$NpArticulationJointTemplate@VPxArticulationJointReducedCoordinate@physx@@@physx@@UEBAAEAVPxArticulationLink@2@XZ 000000018000fb30 f i NpArticulationJointReducedCoordinate.obj
 0001:0000eb30       ?getChildArticulationLink@?$NpArticulationJointTemplate@VPxArticulationJoint@physx@@@physx@@UEBAAEAVPxArticulationLink@2@XZ 000000018000fb30 f i NpArticulationJoint.obj
 0001:0000eb40       ?getChildPose@?$NpArticulationJointTemplate@VPxArticulationJoint@physx@@@physx@@UEBA?AVPxTransform@2@XZ 000000018000fb40 f i NpArticulationJoint.obj
 0001:0000eb40       ?getChildPose@?$NpArticulationJointTemplate@VPxArticulationJointReducedCoordinate@physx@@@physx@@UEBA?AVPxTransform@2@XZ 000000018000fb40 f i NpArticulationJointReducedCoordinate.obj
 0001:0000eb60       ?getChildPose@PxArticulationJointImpl@physx@@QEBA?AVPxTransform@2@XZ 000000018000fb60 f i NpArticulationJoint.obj
 0001:0000ed50       ?getConcreteTypeName@PxArticulationJoint@physx@@UEBAPEBDXZ 000000018000fd50 f i NpArticulationJoint.obj
 0001:0000ed60       ?getDamping@NpArticulationJoint@physx@@UEBAMXZ 000000018000fd60 f   NpArticulationJoint.obj
 0001:0000ed80       ?getDriveType@NpArticulationJoint@physx@@UEBA?AW4Enum@PxArticulationJointDriveType@2@XZ 000000018000fd80 f   NpArticulationJoint.obj
 0001:0000eda0       ?getExternalCompliance@NpArticulationJoint@physx@@UEBAMXZ 000000018000fda0 f   NpArticulationJoint.obj
 0001:0000edc0       ?getFrictionCoefficient@NpArticulationJoint@physx@@UEBAMXZ 000000018000fdc0 f   NpArticulationJoint.obj
 0001:0000edc0       ?getFrictionCoefficient@NpArticulationJointReducedCoordinate@physx@@UEBAMXZ 000000018000fdc0 f   NpArticulationJointReducedCoordinate.obj
 0001:0000ede0       ?getImpl@?$NpArticulationJointTemplate@VPxArticulationJoint@physx@@@physx@@UEAAPEAVPxArticulationJointImpl@2@XZ 000000018000fde0 f i NpArticulationJoint.obj
 0001:0000ede0       ?getImpl@?$NpArticulationJointTemplate@VPxArticulationJoint@physx@@@physx@@UEBAPEBVPxArticulationJointImpl@2@XZ 000000018000fde0 f i NpArticulationJoint.obj
 0001:0000ede0       ?getImpl@?$NpArticulationJointTemplate@VPxArticulationJointReducedCoordinate@physx@@@physx@@UEBAPEBVPxArticulationJointImpl@2@XZ 000000018000fde0 f i NpArticulationJointReducedCoordinate.obj
 0001:0000ede0       ?getImpl@?$NpArticulationJointTemplate@VPxArticulationJointReducedCoordinate@physx@@@physx@@UEAAPEAVPxArticulationJointImpl@2@XZ 000000018000fde0 f i NpArticulationJointReducedCoordinate.obj
 0001:0000edf0       ?getInternalCompliance@NpArticulationJoint@physx@@UEBAMXZ 000000018000fdf0 f   NpArticulationJoint.obj
 0001:0000ee10       ?getJointType@NpArticulationJointReducedCoordinate@physx@@UEBA?AW4Enum@PxArticulationJointType@2@XZ 000000018000fe10 f   NpArticulationJointReducedCoordinate.obj
 0001:0000ee10       ?getJointType@NpArticulationJoint@physx@@UEBA?AW4Enum@PxArticulationJointType@2@XZ 000000018000fe10 f   NpArticulationJoint.obj
 0001:0000ee30       ?getMotion@NpArticulationJointReducedCoordinate@physx@@UEBA?AW4Enum@PxArticulationMotion@2@W43PxArticulationAxis@2@@Z 000000018000fe30 f   NpArticulationJointReducedCoordinate.obj
 0001:0000ee30       ?getMotion@NpArticulationJoint@physx@@UEBA?AW4Enum@PxArticulationMotion@2@W43PxArticulationAxis@2@@Z 000000018000fe30 f   NpArticulationJoint.obj
 0001:0000ee60       ?getParentArticulationLink@?$NpArticulationJointTemplate@VPxArticulationJointReducedCoordinate@physx@@@physx@@UEBAAEAVPxArticulationLink@2@XZ 000000018000fe60 f i NpArticulationJointReducedCoordinate.obj
 0001:0000ee60       ?getParentArticulationLink@?$NpArticulationJointTemplate@VPxArticulationJoint@physx@@@physx@@UEBAAEAVPxArticulationLink@2@XZ 000000018000fe60 f i NpArticulationJoint.obj
 0001:0000ee60       ?getCreatedPairs@BroadPhaseSap@Bp@physx@@UEAAPEAUBroadPhasePair@23@XZ 000000018000fe60 f i LowLevelAABB_static_64:BpBroadPhaseSap.obj
 0001:0000ee70       ?getParentPose@?$NpArticulationJointTemplate@VPxArticulationJointReducedCoordinate@physx@@@physx@@UEBA?AVPxTransform@2@XZ 000000018000fe70 f i NpArticulationJointReducedCoordinate.obj
 0001:0000ee70       ?getParentPose@?$NpArticulationJointTemplate@VPxArticulationJoint@physx@@@physx@@UEBA?AVPxTransform@2@XZ 000000018000fe70 f i NpArticulationJoint.obj
 0001:0000ee90       ?getParentPose@PxArticulationJointImpl@physx@@QEBA?AVPxTransform@2@XZ 000000018000fe90 f i NpArticulationJoint.obj
 0001:0000f070       ?getStiffness@NpArticulationJoint@physx@@UEBAMXZ 0000000180010070 f   NpArticulationJoint.obj
 0001:0000f090       ?getSwingLimit@NpArticulationJoint@physx@@UEBAXAEAM0@Z 0000000180010090 f   NpArticulationJoint.obj
 0001:0000f0d0       ?getSwingLimitContactDistance@NpArticulationJoint@physx@@UEBAMXZ 00000001800100d0 f   NpArticulationJoint.obj
 0001:0000f0f0       ?getSwingLimitEnabled@NpArticulationJoint@physx@@UEBA_NXZ 00000001800100f0 f   NpArticulationJoint.obj
 0001:0000f110       ?getTangentialDamping@NpArticulationJoint@physx@@UEBAMXZ 0000000180010110 f   NpArticulationJoint.obj
 0001:0000f130       ?getTangentialStiffness@NpArticulationJoint@physx@@UEBAMXZ 0000000180010130 f   NpArticulationJoint.obj
 0001:0000f150       ?getTargetOrientation@NpArticulationJoint@physx@@UEBA?AVPxQuat@2@XZ 0000000180010150 f   NpArticulationJoint.obj
 0001:0000f190       ?getTargetVelocity@NpArticulationJoint@physx@@UEBA?AVPxVec3@2@XZ 0000000180010190 f   NpArticulationJoint.obj
 0001:0000f1d0       ?getTwistLimit@NpArticulationJoint@physx@@UEBAXAEAM0@Z 00000001800101d0 f   NpArticulationJoint.obj
 0001:0000f210       ?getTwistLimitContactDistance@NpArticulationJoint@physx@@UEBAMXZ 0000000180010210 f   NpArticulationJoint.obj
 0001:0000f230       ?getTwistLimitEnabled@NpArticulationJoint@physx@@UEBA_NXZ 0000000180010230 f   NpArticulationJoint.obj
 0001:0000f250       ?isKindOf@PxArticulationJoint@physx@@MEBA_NPEBD@Z 0000000180010250 f i NpArticulationJoint.obj
 0001:0000f2c0       __acrt_uninitialize_command_line 00000001800102c0 f i libucrt:argv_data.obj
 0001:0000f2c0       ?isSubordinate@?$PxSerializerDefaultAdapter@VNpArticulationJoint@physx@@@physx@@UEBA_NXZ 00000001800102c0 f i NpSerializerAdapter.obj
 0001:0000f2c0       ?isSubordinate@NpArticulationJointReducedCoordinate@physx@@UEBA_NXZ 00000001800102c0 f i NpArticulationJointReducedCoordinate.obj
 0001:0000f2c0       ?isSubordinate@NpArticulationJoint@physx@@UEBA_NXZ 00000001800102c0 f i NpArticulationJoint.obj
 0001:0000f2c0       ?isSubordinate@NpConstraint@physx@@UEBA_NXZ 00000001800102c0 f i NpConstraint.obj
 0001:0000f2c0       ?isSubordinate@?$PxSerializerDefaultAdapter@VNpConstraint@physx@@@physx@@UEBA_NXZ 00000001800102c0 f i NpSerializerAdapter.obj
 0001:0000f2c0       ?isSubordinate@?$PxSerializerDefaultAdapter@VNpArticulationLink@physx@@@physx@@UEBA_NXZ 00000001800102c0 f i NpSerializerAdapter.obj
 0001:0000f2c0       ?willStoreStaticConstraint@FeatherstoneArticulation@Dy@physx@@UEAA_NXZ 00000001800102c0 f i NpImmediateMode.obj
 0001:0000f2c0       ?isSubordinate@NpArticulationLink@physx@@UEBA_NXZ 00000001800102c0 f i NpArticulationLink.obj
 0001:0000f2d0       ?release@?$NpArticulationJointTemplate@VPxArticulationJointReducedCoordinate@physx@@@physx@@UEAAXXZ 00000001800102d0 f i NpArticulationJointReducedCoordinate.obj
 0001:0000f2d0       ?release@?$NpArticulationJointTemplate@VPxArticulationJoint@physx@@@physx@@UEAAXXZ 00000001800102d0 f i NpArticulationJoint.obj
 0001:0000f330       ?resolveReferences@NpArticulationJointReducedCoordinate@physx@@UEAAXAEAVPxDeserializationContext@2@@Z 0000000180010330 f   NpArticulationJointReducedCoordinate.obj
 0001:0000f330       ?resolveReferences@NpArticulationJoint@physx@@UEAAXAEAVPxDeserializationContext@2@@Z 0000000180010330 f   NpArticulationJoint.obj
 0001:0000f3a0       ?resolveReferences@PxArticulationJointImpl@physx@@QEAAXAEAVPxDeserializationContext@2@AEAVPxArticulationJointBase@2@@Z 00000001800103a0 f i NpArticulationJoint.obj
 0001:0000f410       ?setChildPose@?$NpArticulationJointTemplate@VPxArticulationJoint@physx@@@physx@@UEAAXAEBVPxTransform@2@@Z 0000000180010410 f i NpArticulationJoint.obj
 0001:0000f410       ?setChildPose@?$NpArticulationJointTemplate@VPxArticulationJointReducedCoordinate@physx@@@physx@@UEAAXAEBVPxTransform@2@@Z 0000000180010410 f i NpArticulationJointReducedCoordinate.obj
 0001:0000f420       ?setChildPose@PxArticulationJointImpl@physx@@QEAAXAEBVPxTransform@2@@Z 0000000180010420 f i NpArticulationJoint.obj
 0001:0000f780       ?setDamping@NpArticulationJoint@physx@@UEAAXM@Z 0000000180010780 f   NpArticulationJoint.obj
 0001:0000f810       ?setDriveType@NpArticulationJoint@physx@@UEAAXW4Enum@PxArticulationJointDriveType@2@@Z 0000000180010810 f   NpArticulationJoint.obj
 0001:0000f8b0       ?setExternalCompliance@NpArticulationJoint@physx@@UEAAXM@Z 00000001800108b0 f   NpArticulationJoint.obj
 0001:0000f950       ?setFrictionCoefficient@NpArticulationJoint@physx@@UEAAXM@Z 0000000180010950 f   NpArticulationJoint.obj
 0001:0000f950       ?setFrictionCoefficient@NpArticulationJointReducedCoordinate@physx@@UEAAXM@Z 0000000180010950 f   NpArticulationJointReducedCoordinate.obj
 0001:0000f9e0       ?setInternalCompliance@NpArticulationJoint@physx@@UEAAXM@Z 00000001800109e0 f   NpArticulationJoint.obj
 0001:0000fa80       ?setJointType@NpArticulationJoint@physx@@UEAAXW4Enum@PxArticulationJointType@2@@Z 0000000180010a80 f   NpArticulationJoint.obj
 0001:0000fa80       ?setJointType@NpArticulationJointReducedCoordinate@physx@@UEAAXW4Enum@PxArticulationJointType@2@@Z 0000000180010a80 f   NpArticulationJointReducedCoordinate.obj
 0001:0000fb20       ?setMotion@NpArticulationJoint@physx@@UEAAXW4Enum@PxArticulationAxis@2@W43PxArticulationMotion@2@@Z 0000000180010b20 f   NpArticulationJoint.obj
 0001:0000fb20       ?setMotion@NpArticulationJointReducedCoordinate@physx@@UEAAXW4Enum@PxArticulationAxis@2@W43PxArticulationMotion@2@@Z 0000000180010b20 f   NpArticulationJointReducedCoordinate.obj
 0001:0000fc40       ?setParentPose@?$NpArticulationJointTemplate@VPxArticulationJointReducedCoordinate@physx@@@physx@@UEAAXAEBVPxTransform@2@@Z 0000000180010c40 f i NpArticulationJointReducedCoordinate.obj
 0001:0000fc40       ?setParentPose@?$NpArticulationJointTemplate@VPxArticulationJoint@physx@@@physx@@UEAAXAEBVPxTransform@2@@Z 0000000180010c40 f i NpArticulationJoint.obj
 0001:0000fc50       ?setParentPose@PxArticulationJointImpl@physx@@QEAAXAEBVPxTransform@2@@Z 0000000180010c50 f i NpArticulationJoint.obj
 0001:0000fff0       ?setStiffness@NpArticulationJoint@physx@@UEAAXM@Z 0000000180010ff0 f   NpArticulationJoint.obj
 0001:00010080       ?setSwingLimit@NpArticulationJoint@physx@@UEAAXMM@Z 0000000180011080 f   NpArticulationJoint.obj
 0001:00010140       ?setSwingLimitContactDistance@NpArticulationJoint@physx@@UEAAXM@Z 0000000180011140 f   NpArticulationJoint.obj
 0001:000101e0       ?setSwingLimitEnabled@NpArticulationJoint@physx@@UEAAX_N@Z 00000001800111e0 f   NpArticulationJoint.obj
 0001:00010280       ?setTangentialDamping@NpArticulationJoint@physx@@UEAAXM@Z 0000000180011280 f   NpArticulationJoint.obj
 0001:00010320       ?setTangentialStiffness@NpArticulationJoint@physx@@UEAAXM@Z 0000000180011320 f   NpArticulationJoint.obj
 0001:000103c0       ?setTargetOrientation@NpArticulationJoint@physx@@UEAAXAEBVPxQuat@2@@Z 00000001800113c0 f   NpArticulationJoint.obj
 0001:00010470       ?setTargetVelocity@NpArticulationJoint@physx@@UEAAXAEBVPxVec3@2@@Z 0000000180011470 f   NpArticulationJoint.obj
 0001:00010510       ?setTwistLimit@NpArticulationJoint@physx@@UEAAXMM@Z 0000000180011510 f   NpArticulationJoint.obj
 0001:000105d0       ?setTwistLimitContactDistance@NpArticulationJoint@physx@@UEAAXM@Z 00000001800115d0 f   NpArticulationJoint.obj
 0001:00010670       ?setTwistLimitEnabled@NpArticulationJoint@physx@@UEAAX_N@Z 0000000180011670 f   NpArticulationJoint.obj
 0001:00010710       ??0NpArticulationJointReducedCoordinate@physx@@QEAA@AEAVNpArticulationLink@1@AEBVPxTransform@1@01@Z 0000000180011710 f   NpArticulationJointReducedCoordinate.obj
 0001:000107c0       ??_GNpArticulationJointReducedCoordinate@physx@@UEAAPEAXI@Z 00000001800117c0 f i NpArticulationJointReducedCoordinate.obj
 0001:000107c0       ??_E?$NpArticulationJointTemplate@VPxArticulationJointReducedCoordinate@physx@@@physx@@UEAAPEAXI@Z 00000001800117c0 f i NpArticulationJointReducedCoordinate.obj
 0001:000107c0       ??_ENpArticulationJointReducedCoordinate@physx@@UEAAPEAXI@Z 00000001800117c0 f i NpArticulationJointReducedCoordinate.obj
 0001:000107c0       ??_G?$NpArticulationJointTemplate@VPxArticulationJointReducedCoordinate@physx@@@physx@@UEAAPEAXI@Z 00000001800117c0 f i NpArticulationJointReducedCoordinate.obj
 0001:00010840       ?createObject@NpArticulationJointReducedCoordinate@physx@@SAPEAV12@AEAPEAEAEAVPxDeserializationContext@2@@Z 0000000180011840 f   NpArticulationJointReducedCoordinate.obj
 0001:000108c0       ?getConcreteTypeName@PxArticulationJointReducedCoordinate@physx@@UEBAPEBDXZ 00000001800118c0 f i NpArticulationJointReducedCoordinate.obj
 0001:000108d0       ?getDrive@NpArticulationJointReducedCoordinate@physx@@UEAAXW4Enum@PxArticulationAxis@2@AEAM11AEAW43PxArticulationDriveType@2@@Z 00000001800118d0 f   NpArticulationJointReducedCoordinate.obj
 0001:00010960       ?getDriveTarget@NpArticulationJointReducedCoordinate@physx@@UEAAMW4Enum@PxArticulationAxis@2@@Z 0000000180011960 f   NpArticulationJointReducedCoordinate.obj
 0001:00010990       ?getDriveVelocity@NpArticulationJointReducedCoordinate@physx@@UEAAMW4Enum@PxArticulationAxis@2@@Z 0000000180011990 f   NpArticulationJointReducedCoordinate.obj
 0001:000109c0       ?getLimit@NpArticulationJointReducedCoordinate@physx@@UEAAXW4Enum@PxArticulationAxis@2@AEAM1@Z 00000001800119c0 f   NpArticulationJointReducedCoordinate.obj
 0001:00010a10       ?getMaxJointVelocity@NpArticulationJointReducedCoordinate@physx@@UEBAMXZ 0000000180011a10 f   NpArticulationJointReducedCoordinate.obj
 0001:00010a30       ?isKindOf@PxArticulationJointReducedCoordinate@physx@@MEBA_NPEBD@Z 0000000180011a30 f i NpArticulationJointReducedCoordinate.obj
 0001:00010a80       ?setDrive@ArticulationJoint@Scb@physx@@QEAAXW4Enum@PxArticulationAxis@3@MMMW44PxArticulationDriveType@3@@Z 0000000180011a80 f i NpArticulationJointReducedCoordinate.obj
 0001:00010d30       ?setDrive@NpArticulationJointReducedCoordinate@physx@@UEAAXW4Enum@PxArticulationAxis@2@MMMW43PxArticulationDriveType@2@@Z 0000000180011d30 f   NpArticulationJointReducedCoordinate.obj
 0001:00010d40       ?setDriveTarget@NpArticulationJointReducedCoordinate@physx@@UEAAXW4Enum@PxArticulationAxis@2@M@Z 0000000180011d40 f   NpArticulationJointReducedCoordinate.obj
 0001:00010ec0       ?setDriveVelocity@NpArticulationJointReducedCoordinate@physx@@UEAAXW4Enum@PxArticulationAxis@2@M@Z 0000000180011ec0 f   NpArticulationJointReducedCoordinate.obj
 0001:00011040       ?setLimit@NpArticulationJointReducedCoordinate@physx@@UEAAXW4Enum@PxArticulationAxis@2@MM@Z 0000000180012040 f   NpArticulationJointReducedCoordinate.obj
 0001:000111d0       ?setMaxJointVelocity@NpArticulationJointReducedCoordinate@physx@@UEAAXM@Z 00000001800121d0 f   NpArticulationJointReducedCoordinate.obj
 0001:000112d0       ??0NpArticulationLink@physx@@QEAA@AEBVPxTransform@1@AEAVPxArticulationBase@1@PEAV01@@Z 00000001800122d0 f   NpArticulationLink.obj
 0001:000114d0       ??_E?$NpActorTemplate@VPxArticulationLink@physx@@@physx@@UEAAPEAXI@Z 00000001800124d0 f i NpArticulationLink.obj
 0001:000114d0       ??_G?$NpActorTemplate@VPxArticulationLink@physx@@@physx@@UEAAPEAXI@Z 00000001800124d0 f i NpArticulationLink.obj
 0001:00011550       ??_G?$NpRigidActorTemplate@VPxArticulationLink@physx@@@physx@@UEAAPEAXI@Z 0000000180012550 f i NpArticulationLink.obj
 0001:00011550       ??_E?$NpRigidActorTemplate@VPxArticulationLink@physx@@@physx@@UEAAPEAXI@Z 0000000180012550 f i NpArticulationLink.obj
 0001:000115e0       ??_E?$NpRigidBodyTemplate@VPxArticulationLink@physx@@@physx@@UEAAPEAXI@Z 00000001800125e0 f i NpArticulationLink.obj
 0001:000115e0       ??_G?$NpRigidBodyTemplate@VPxArticulationLink@physx@@@physx@@UEAAPEAXI@Z 00000001800125e0 f i NpArticulationLink.obj
 0001:00011690       ??_EConstraintImmediateVisualizer@Cm@physx@@UEAAPEAXI@Z 0000000180012690 f i NpArticulationLink.obj
 0001:00011690       ??_GConstraintImmediateVisualizer@Cm@physx@@UEAAPEAXI@Z 0000000180012690 f i NpArticulationLink.obj
 0001:000116c0       ??_ENpArticulationLink@physx@@UEAAPEAXI@Z 00000001800126c0 f i NpArticulationLink.obj
 0001:000116c0       ??_GNpArticulationLink@physx@@UEAAPEAXI@Z 00000001800126c0 f i NpArticulationLink.obj
 0001:000117c0       ??_GPxShape@physx@@MEAAPEAXI@Z 00000001800127c0 f i NpShape.obj
 0001:000117c0       ??_GPxRigidStatic@physx@@MEAAPEAXI@Z 00000001800127c0 f i NpRigidStatic.obj
 0001:000117c0       ??_GPxArticulationLink@physx@@MEAAPEAXI@Z 00000001800127c0 f i NpArticulationLink.obj
 0001:000117c0       ??_EPxRigidStatic@physx@@MEAAPEAXI@Z 00000001800127c0 f i NpRigidStatic.obj
 0001:000117c0       ??_EPxArticulationLink@physx@@MEAAPEAXI@Z 00000001800127c0 f i NpArticulationLink.obj
 0001:000117c0       ??_EPxMaterial@physx@@MEAAPEAXI@Z 00000001800127c0 f i NpMaterial.obj
 0001:000117c0       ??_GPxRigidDynamic@physx@@MEAAPEAXI@Z 00000001800127c0 f i NpRigidDynamic.obj
 0001:000117c0       ??_EPxRigidDynamic@physx@@MEAAPEAXI@Z 00000001800127c0 f i NpRigidDynamic.obj
 0001:000117c0       ??_GPxMaterial@physx@@MEAAPEAXI@Z 00000001800127c0 f i NpMaterial.obj
 0001:000117c0       ??_EPxShape@physx@@MEAAPEAXI@Z 00000001800127c0 f i NpShape.obj
 0001:000117f0       ??_EPxConstraintVisualizer@physx@@MEAAPEAXI@Z 00000001800127f0 f i NpArticulationLink.obj
 0001:000117f0       ??_GPxConstraintVisualizer@physx@@MEAAPEAXI@Z 00000001800127f0 f i NpArticulationLink.obj
 0001:00011820       ?addForce@NpArticulationLink@physx@@UEAAXAEBVPxVec3@2@W4Enum@PxForceMode@2@_N@Z 0000000180012820 f   NpArticulationLink.obj
 0001:000118b0       ?addSpatialAcceleration@Body@Scb@physx@@QEAAXPEBVPxVec3@3@0@Z 00000001800128b0 f i NpArticulationLink.obj
 0001:000119f0       ?addSpatialForce@?$NpRigidBodyTemplate@VPxArticulationLink@physx@@@physx@@IEAAXPEBVPxVec3@2@0W4Enum@PxForceMode@2@@Z 00000001800129f0 f i NpArticulationLink.obj
 0001:000119f0       ?addSpatialForce@?$NpRigidBodyTemplate@VPxRigidDynamic@physx@@@physx@@IEAAXPEBVPxVec3@2@0W4Enum@PxForceMode@2@@Z 00000001800129f0 f i NpRigidDynamic.obj
 0001:00011c50       ?addSpatialVelocity@Body@Scb@physx@@QEAAXPEBVPxVec3@3@0@Z 0000000180012c50 f i NpArticulationLink.obj
 0001:00011d90       ?addTorque@NpArticulationLink@physx@@UEAAXAEBVPxVec3@2@W4Enum@PxForceMode@2@_N@Z 0000000180012d90 f   NpArticulationLink.obj
 0001:00011e20       ?allocate@?$Array@UPxDebugLine@physx@@V?$ReflectionAllocator@UPxDebugLine@physx@@@shdfnd@2@@shdfnd@physx@@IEAAPEAUPxDebugLine@3@I@Z 0000000180012e20 f i NpArticulationLink.obj
 0001:00011ec0       ?attachShape@?$NpRigidBodyTemplate@VPxRigidDynamic@physx@@@physx@@UEAA_NAEAVPxShape@2@@Z 0000000180012ec0 f i NpRigidDynamic.obj
 0001:00011ec0       ?attachShape@?$NpRigidActorTemplate@VPxRigidStatic@physx@@@physx@@UEAA_NAEAVPxShape@2@@Z 0000000180012ec0 f i NpRigidStatic.obj
 0001:00011ec0       ?attachShape@?$NpRigidActorTemplate@VPxRigidDynamic@physx@@@physx@@UEAA_NAEAVPxShape@2@@Z 0000000180012ec0 f i NpRigidDynamic.obj
 0001:00011ec0       ?attachShape@?$NpRigidActorTemplate@VPxArticulationLink@physx@@@physx@@UEAA_NAEAVPxShape@2@@Z 0000000180012ec0 f i NpArticulationLink.obj
 0001:00011ec0       ?attachShape@?$NpRigidBodyTemplate@VPxArticulationLink@physx@@@physx@@UEAA_NAEAVPxShape@2@@Z 0000000180012ec0 f i NpArticulationLink.obj
 0001:00011f60       ?clearForce@NpArticulationLink@physx@@UEAAXW4Enum@PxForceMode@2@@Z 0000000180012f60 f   NpArticulationLink.obj
 0001:00011f90       ?clearSpatialForce@?$NpRigidBodyTemplate@VPxRigidDynamic@physx@@@physx@@IEAAXW4Enum@PxForceMode@2@_N1@Z 0000000180012f90 f i NpRigidDynamic.obj
 0001:00011f90       ?clearSpatialForce@?$NpRigidBodyTemplate@VPxArticulationLink@physx@@@physx@@IEAAXW4Enum@PxForceMode@2@_N1@Z 0000000180012f90 f i NpArticulationLink.obj
 0001:00012130       ?clearTorque@NpArticulationLink@physx@@UEAAXW4Enum@PxForceMode@2@@Z 0000000180013130 f   NpArticulationLink.obj
 0001:00012160       ?copy@?$Array@UPxDebugLine@physx@@V?$ReflectionAllocator@UPxDebugLine@physx@@@shdfnd@2@@shdfnd@physx@@KAXPEAUPxDebugLine@3@0PEBU43@@Z 0000000180013160 f i NpArticulationLink.obj
 0001:00012160       ?copy@?$Array@VSpatialVector@Cm@physx@@V?$ReflectionAllocator@VSpatialVector@Cm@physx@@@shdfnd@3@@shdfnd@physx@@KAXPEAVSpatialVector@Cm@3@0PEBV453@@Z 0000000180013160 f i LowLevelDynamics_static_64:DyTGSDynamics.obj
 0001:00012310       ?createObject@NpArticulationLink@physx@@SAPEAV12@AEAPEAEAEAVPxDeserializationContext@2@@Z 0000000180013310 f   NpArticulationLink.obj
 0001:00012420       ?detachShape@?$NpRigidActorTemplate@VPxRigidDynamic@physx@@@physx@@UEAAXAEAVPxShape@2@_N@Z 0000000180013420 f i NpRigidDynamic.obj
 0001:00012420       ?detachShape@?$NpRigidActorTemplate@VPxRigidStatic@physx@@@physx@@UEAAXAEAVPxShape@2@_N@Z 0000000180013420 f i NpRigidStatic.obj
 0001:00012420       ?detachShape@?$NpRigidActorTemplate@VPxArticulationLink@physx@@@physx@@UEAAXAEAVPxShape@2@_N@Z 0000000180013420 f i NpArticulationLink.obj
 0001:000124d0       ?exportExtraData@?$NpActorTemplate@VPxRigidStatic@physx@@@physx@@UEAAXAEAVPxSerializationContext@2@@Z 00000001800134d0 f i NpRigidStatic.obj
 0001:000124d0       ?exportExtraData@?$NpActorTemplate@VPxArticulationLink@physx@@@physx@@UEAAXAEAVPxSerializationContext@2@@Z 00000001800134d0 f i NpArticulationLink.obj
 0001:000124d0       ?exportExtraData@?$NpActorTemplate@VPxRigidDynamic@physx@@@physx@@UEAAXAEAVPxSerializationContext@2@@Z 00000001800134d0 f i NpRigidDynamic.obj
 0001:000124e0       ?exportExtraData@?$NpRigidActorTemplate@VPxArticulationLink@physx@@@physx@@UEAAXAEAVPxSerializationContext@2@@Z 00000001800134e0 f i NpArticulationLink.obj
 0001:000124e0       ?exportExtraData@?$NpRigidActorTemplate@VPxRigidStatic@physx@@@physx@@UEAAXAEAVPxSerializationContext@2@@Z 00000001800134e0 f i NpRigidStatic.obj
 0001:000124e0       ?exportExtraData@?$NpRigidActorTemplate@VPxRigidDynamic@physx@@@physx@@UEAAXAEAVPxSerializationContext@2@@Z 00000001800134e0 f i NpRigidDynamic.obj
 0001:00012510       ?exportExtraData@NpArticulationLink@physx@@UEAAXAEAVPxSerializationContext@2@@Z 0000000180013510 f   NpArticulationLink.obj
 0001:00012580       ?getActorFlags@?$NpActorTemplate@VPxRigidDynamic@physx@@@physx@@UEBA?AV?$PxFlags@W4Enum@PxActorFlag@physx@@E@2@XZ 0000000180013580 f i NpRigidDynamic.obj
 0001:00012580       ?getActorFlags@?$NpActorTemplate@VPxArticulationLink@physx@@@physx@@UEBA?AV?$PxFlags@W4Enum@PxActorFlag@physx@@E@2@XZ 0000000180013580 f i NpArticulationLink.obj
 0001:00012580       ?getActorFlags@?$NpActorTemplate@VPxRigidStatic@physx@@@physx@@UEBA?AV?$PxFlags@W4Enum@PxActorFlag@physx@@E@2@XZ 0000000180013580 f i NpRigidStatic.obj
 0001:000125d0       ?getAggregate@?$NpActorTemplate@VPxRigidDynamic@physx@@@physx@@UEBAPEAVPxAggregate@2@XZ 00000001800135d0 f i NpRigidDynamic.obj
 0001:000125d0       ?getAggregate@?$NpActorTemplate@VPxRigidStatic@physx@@@physx@@UEBAPEAVPxAggregate@2@XZ 00000001800135d0 f i NpRigidStatic.obj
 0001:000125d0       ?getAggregate@?$NpActorTemplate@VPxArticulationLink@physx@@@physx@@UEBAPEAVPxAggregate@2@XZ 00000001800135d0 f i NpArticulationLink.obj
 0001:000125e0       ?getAngularDamping@NpArticulationLink@physx@@UEBAMXZ 00000001800135e0 f   NpArticulationLink.obj
 0001:000125e0       ?getAngularDamping@NpRigidDynamic@physx@@UEBAMXZ 00000001800135e0 f   NpRigidDynamic.obj
 0001:00012600       ?getAngularVelocity@?$NpRigidBodyTemplate@VPxArticulationLink@physx@@@physx@@UEBA?AVPxVec3@2@XZ 0000000180013600 f i NpArticulationLink.obj
 0001:00012600       ?getAngularVelocity@?$NpRigidBodyTemplate@VPxRigidDynamic@physx@@@physx@@UEBA?AVPxVec3@2@XZ 0000000180013600 f i NpRigidDynamic.obj
 0001:00012620       ?getArticulation@NpArticulationLink@physx@@UEBAAEAVPxArticulationBase@2@XZ 0000000180013620 f   NpArticulationLink.obj
 0001:00012630       ?getCMassLocalPose@?$NpRigidBodyTemplate@VPxRigidDynamic@physx@@@physx@@UEBA?AVPxTransform@2@XZ 0000000180013630 f i NpRigidDynamic.obj
 0001:00012630       ?getCMassLocalPose@?$NpRigidBodyTemplate@VPxArticulationLink@physx@@@physx@@UEBA?AVPxTransform@2@XZ 0000000180013630 f i NpArticulationLink.obj
 0001:00012680       ?getChildren@NpArticulationLink@physx@@UEBAIPEAPEAVPxArticulationLink@2@II@Z 0000000180013680 f   NpArticulationLink.obj
 0001:000126e0       ?getConcreteTypeName@PxArticulationLink@physx@@UEBAPEBDXZ 00000001800136e0 f i NpArticulationLink.obj
 0001:000126f0       ?getConstraints@?$NpRigidActorTemplate@VPxArticulationLink@physx@@@physx@@UEBAIPEAPEAVPxConstraint@2@II@Z 00000001800136f0 f i NpArticulationLink.obj
 0001:000126f0       ?getConstraints@?$NpRigidActorTemplate@VPxRigidDynamic@physx@@@physx@@UEBAIPEAPEAVPxConstraint@2@II@Z 00000001800136f0 f i NpRigidDynamic.obj
 0001:000126f0       ?getConstraints@?$NpRigidActorTemplate@VPxRigidStatic@physx@@@physx@@UEBAIPEAPEAVPxConstraint@2@II@Z 00000001800136f0 f i NpRigidStatic.obj
 0001:000127a0       ?getDominanceGroup@?$NpActorTemplate@VPxRigidStatic@physx@@@physx@@UEBAEXZ 00000001800137a0 f i NpRigidStatic.obj
 0001:000127a0       ?getDominanceGroup@?$NpActorTemplate@VPxArticulationLink@physx@@@physx@@UEBAEXZ 00000001800137a0 f i NpArticulationLink.obj
 0001:000127a0       ?getDominanceGroup@?$NpActorTemplate@VPxRigidDynamic@physx@@@physx@@UEBAEXZ 00000001800137a0 f i NpRigidDynamic.obj
 0001:000127e0       ?getGlobalInertiaTensorInverse@Body@Scb@physx@@QEBA?AVPxMat33@3@XZ 00000001800137e0 f i NpArticulationLink.obj
 0001:00012a70       ?getGlobalPose@NpArticulationLink@physx@@UEBA?AVPxTransform@2@XZ 0000000180013a70 f   NpArticulationLink.obj
 0001:00012d80       ?getBroadPhasePairs@BroadPhaseSap@Bp@physx@@UEBAPEAUBroadPhasePair@23@XZ 0000000180013d80 f   LowLevelAABB_static_64:BpBroadPhaseSap.obj
 0001:00012d80       ?getName@ProcessAggPairsParallelTask@Bp@physx@@UEBAPEBDXZ 0000000180013d80 f   LowLevelAABB_static_64:BpAABBManager.obj
 0001:00012d80       ?getInboundJoint@NpArticulationLink@physx@@UEBAPEAVPxArticulationJointBase@2@XZ 0000000180013d80 f   NpArticulationLink.obj
 0001:00012d90       ?getInboundJointDof@NpArticulationLink@physx@@UEBAIXZ 0000000180013d90 f   NpArticulationLink.obj
 0001:00012da0       ?getInternalIslandNodeIndex@?$NpRigidBodyTemplate@VPxRigidDynamic@physx@@@physx@@UEBAIXZ 0000000180013da0 f i NpRigidDynamic.obj
 0001:00012da0       ?getInternalIslandNodeIndex@?$NpRigidBodyTemplate@VPxArticulationLink@physx@@@physx@@UEBAIXZ 0000000180013da0 f i NpArticulationLink.obj
 0001:00012db0       ?getInvMass@?$NpRigidBodyTemplate@VPxRigidDynamic@physx@@@physx@@UEBAMXZ 0000000180013db0 f i NpRigidDynamic.obj
 0001:00012db0       ?getInvMass@?$NpRigidBodyTemplate@VPxArticulationLink@physx@@@physx@@UEBAMXZ 0000000180013db0 f i NpArticulationLink.obj
 0001:00012dd0       ?getLinearDamping@NpArticulationLink@physx@@UEBAMXZ 0000000180013dd0 f   NpArticulationLink.obj
 0001:00012dd0       ?getLinearDamping@NpRigidDynamic@physx@@UEBAMXZ 0000000180013dd0 f   NpRigidDynamic.obj
 0001:00012df0       ?getLinearVelocity@?$NpRigidBodyTemplate@VPxRigidDynamic@physx@@@physx@@UEBA?AVPxVec3@2@XZ 0000000180013df0 f i NpRigidDynamic.obj
 0001:00012df0       ?getLinearVelocity@?$NpRigidBodyTemplate@VPxArticulationLink@physx@@@physx@@UEBA?AVPxVec3@2@XZ 0000000180013df0 f i NpArticulationLink.obj
 0001:00012e10       ?getLinkIndex@NpArticulationLink@physx@@UEBAIXZ 0000000180013e10 f   NpArticulationLink.obj
 0001:00012e20       ?getMass@?$NpRigidBodyTemplate@VPxRigidDynamic@physx@@@physx@@UEBAMXZ 0000000180013e20 f i NpRigidDynamic.obj
 0001:00012e20       ?getMass@?$NpRigidBodyTemplate@VPxArticulationLink@physx@@@physx@@UEBAMXZ 0000000180013e20 f i NpArticulationLink.obj
 0001:00012e60       ?getMassSpaceInertiaTensor@?$NpRigidBodyTemplate@VPxRigidDynamic@physx@@@physx@@UEBA?AVPxVec3@2@XZ 0000000180013e60 f i NpRigidDynamic.obj
 0001:00012e60       ?getMassSpaceInertiaTensor@?$NpRigidBodyTemplate@VPxArticulationLink@physx@@@physx@@UEBA?AVPxVec3@2@XZ 0000000180013e60 f i NpArticulationLink.obj
 0001:00012ef0       ?getMassSpaceInvInertiaTensor@?$NpRigidBodyTemplate@VPxRigidDynamic@physx@@@physx@@UEBA?AVPxVec3@2@XZ 0000000180013ef0 f i NpRigidDynamic.obj
 0001:00012ef0       ?getMassSpaceInvInertiaTensor@?$NpRigidBodyTemplate@VPxArticulationLink@physx@@@physx@@UEBA?AVPxVec3@2@XZ 0000000180013ef0 f i NpArticulationLink.obj
 0001:00012f30       ?getMaxAngularVelocity@NpRigidDynamic@physx@@UEBAMXZ 0000000180013f30 f   NpRigidDynamic.obj
 0001:00012f30       ?getMaxAngularVelocity@NpArticulationLink@physx@@UEBAMXZ 0000000180013f30 f   NpArticulationLink.obj
 0001:00012f60       ?getMaxContactImpulse@?$NpRigidBodyTemplate@VPxRigidDynamic@physx@@@physx@@UEBAMXZ 0000000180013f60 f i NpRigidDynamic.obj
 0001:00012f60       ?getMaxContactImpulse@?$NpRigidBodyTemplate@VPxArticulationLink@physx@@@physx@@UEBAMXZ 0000000180013f60 f i NpArticulationLink.obj
 0001:00012f90       ?getMaxDepenetrationVelocity@?$NpRigidBodyTemplate@VPxArticulationLink@physx@@@physx@@UEBAMXZ 0000000180013f90 f i NpArticulationLink.obj
 0001:00012f90       ?getMaxDepenetrationVelocity@?$NpRigidBodyTemplate@VPxRigidDynamic@physx@@@physx@@UEBAMXZ 0000000180013f90 f i NpRigidDynamic.obj
 0001:00012fc0       ?getMaxLinearVelocity@NpArticulationLink@physx@@UEBAMXZ 0000000180013fc0 f   NpArticulationLink.obj
 0001:00012fc0       ?getMaxLinearVelocity@NpRigidDynamic@physx@@UEBAMXZ 0000000180013fc0 f   NpRigidDynamic.obj
 0001:00012ff0       ?getMinCCDAdvanceCoefficient@?$NpRigidBodyTemplate@VPxRigidDynamic@physx@@@physx@@UEBAMXZ 0000000180013ff0 f i NpRigidDynamic.obj
 0001:00012ff0       ?getMinCCDAdvanceCoefficient@?$NpRigidBodyTemplate@VPxArticulationLink@physx@@@physx@@UEBAMXZ 0000000180013ff0 f i NpArticulationLink.obj
 0001:00013010       ?getNbChildren@NpArticulationLink@physx@@UEBAIXZ 0000000180014010 f   NpArticulationLink.obj
 0001:00013020       ?getNbConstraints@?$NpRigidActorTemplate@VPxArticulationLink@physx@@@physx@@UEBAIXZ 0000000180014020 f i NpArticulationLink.obj
 0001:00013020       ?getNbConstraints@?$NpRigidActorTemplate@VPxRigidDynamic@physx@@@physx@@UEBAIXZ 0000000180014020 f i NpRigidDynamic.obj
 0001:00013020       ?getNbConstraints@?$NpRigidActorTemplate@VPxRigidStatic@physx@@@physx@@UEBAIXZ 0000000180014020 f i NpRigidStatic.obj
 0001:00013030       ?getNbShapes@?$NpRigidActorTemplate@VPxRigidStatic@physx@@@physx@@UEBAIXZ 0000000180014030 f i NpRigidStatic.obj
 0001:00013030       ?getNbShapes@?$NpRigidActorTemplate@VPxRigidDynamic@physx@@@physx@@UEBAIXZ 0000000180014030 f i NpRigidDynamic.obj
 0001:00013030       ?getNbShapes@?$NpRigidActorTemplate@VPxArticulationLink@physx@@@physx@@UEBAIXZ 0000000180014030 f i NpArticulationLink.obj
 0001:00013040       ?getOwnerClient@?$NpActorTemplate@VPxRigidDynamic@physx@@@physx@@UEBAEXZ 0000000180014040 f i NpRigidDynamic.obj
 0001:00013040       ?getOwnerClient@?$NpActorTemplate@VPxRigidStatic@physx@@@physx@@UEBAEXZ 0000000180014040 f i NpRigidStatic.obj
 0001:00013040       ?getOwnerClient@?$NpActorTemplate@VPxArticulationLink@physx@@@physx@@UEBAEXZ 0000000180014040 f i NpArticulationLink.obj
 0001:00013070       ?getRigidBodyFlags@?$NpRigidBodyTemplate@VPxRigidDynamic@physx@@@physx@@UEBA?AV?$PxFlags@W4Enum@PxRigidBodyFlag@physx@@G@2@XZ 0000000180014070 f i NpRigidDynamic.obj
 0001:00013070       ?getRigidBodyFlags@?$NpRigidBodyTemplate@VPxArticulationLink@physx@@@physx@@UEBA?AV?$PxFlags@W4Enum@PxRigidBodyFlag@physx@@G@2@XZ 0000000180014070 f i NpArticulationLink.obj
 0001:000130b0       ?getScene@?$NpActorTemplate@VPxRigidStatic@physx@@@physx@@UEBAPEAVPxScene@2@XZ 00000001800140b0 f i NpRigidStatic.obj
 0001:000130b0       ?getScene@?$NpActorTemplate@VPxRigidDynamic@physx@@@physx@@UEBAPEAVPxScene@2@XZ 00000001800140b0 f i NpRigidDynamic.obj
 0001:000130b0       ?getScene@?$NpActorTemplate@VPxArticulationLink@physx@@@physx@@UEBAPEAVPxScene@2@XZ 00000001800140b0 f i NpArticulationLink.obj
 0001:000130c0       ?getShapes@?$NpRigidActorTemplate@VPxArticulationLink@physx@@@physx@@UEBAIPEAPEAVPxShape@2@II@Z 00000001800140c0 f i NpArticulationLink.obj
 0001:000130c0       ?getShapes@?$NpRigidActorTemplate@VPxRigidDynamic@physx@@@physx@@UEBAIPEAPEAVPxShape@2@II@Z 00000001800140c0 f i NpRigidDynamic.obj
 0001:000130c0       ?getShapes@?$NpRigidActorTemplate@VPxRigidStatic@physx@@@physx@@UEBAIPEAPEAVPxShape@2@II@Z 00000001800140c0 f i NpRigidStatic.obj
 0001:000130d0       ?getType@NpArticulationLink@physx@@UEBA?AW4Enum@PxActorType@2@XZ 00000001800140d0 f i NpArticulationLink.obj
 0001:000130d0       ?getType@BroadPhaseABP@Bp@physx@@UEBA?AW4Enum@PxBroadPhaseType@3@XZ 00000001800140d0 f i LowLevelAABB_static_64:BpBroadPhaseABP.obj
 0001:000130e0       ?getWorldBounds@?$NpRigidActorTemplate@VPxRigidStatic@physx@@@physx@@UEBA?AVPxBounds3@2@M@Z 00000001800140e0 f i NpRigidStatic.obj
 0001:000130e0       ?getWorldBounds@?$NpRigidActorTemplate@VPxArticulationLink@physx@@@physx@@UEBA?AVPxBounds3@2@M@Z 00000001800140e0 f i NpArticulationLink.obj
 0001:000130e0       ?getWorldBounds@?$NpRigidActorTemplate@VPxRigidDynamic@physx@@@physx@@UEBA?AVPxBounds3@2@M@Z 00000001800140e0 f i NpRigidDynamic.obj
 0001:000132c0       ?importExtraData@?$NpActorTemplate@VPxArticulationLink@physx@@@physx@@UEAAXAEAVPxDeserializationContext@2@@Z 00000001800142c0 f i NpArticulationLink.obj
 0001:000132c0       ?importExtraData@?$NpActorTemplate@VPxRigidStatic@physx@@@physx@@UEAAXAEAVPxDeserializationContext@2@@Z 00000001800142c0 f i NpRigidStatic.obj
 0001:000132c0       ?importExtraData@?$NpActorTemplate@VPxRigidDynamic@physx@@@physx@@UEAAXAEAVPxDeserializationContext@2@@Z 00000001800142c0 f i NpRigidDynamic.obj
 0001:000132d0       ?importExtraData@?$NpRigidActorTemplate@VPxRigidStatic@physx@@@physx@@UEAAXAEAVPxDeserializationContext@2@@Z 00000001800142d0 f i NpRigidStatic.obj
 0001:000132d0       ?importExtraData@?$NpRigidActorTemplate@VPxRigidDynamic@physx@@@physx@@UEAAXAEAVPxDeserializationContext@2@@Z 00000001800142d0 f i NpRigidDynamic.obj
 0001:000132d0       ?importExtraData@?$NpRigidActorTemplate@VPxArticulationLink@physx@@@physx@@UEAAXAEAVPxDeserializationContext@2@@Z 00000001800142d0 f i NpArticulationLink.obj
 0001:00013300       ?importExtraData@NpArticulationLink@physx@@UEAAXAEAVPxDeserializationContext@2@@Z 0000000180014300 f   NpArticulationLink.obj
 0001:00013380       ?isKindOf@PxArticulationLink@physx@@MEBA_NPEBD@Z 0000000180014380 f i NpArticulationLink.obj
 0001:000133d0       ?isKindOf@PxRigidActor@physx@@MEBA_NPEBD@Z 00000001800143d0 f i NpArticulationLink.obj
 0001:00013460       ?isKindOf@PxRigidBody@physx@@MEBA_NPEBD@Z 0000000180014460 f i NpArticulationLink.obj
 0001:000134f0       ?putToSleepInternal@Body@Scb@physx@@QEAAXXZ 00000001800144f0 f i NpArticulationLink.obj
 0001:00013660       ?recreate@?$Array@UPxDebugLine@physx@@V?$ReflectionAllocator@UPxDebugLine@physx@@@shdfnd@2@@shdfnd@physx@@IEAAXI@Z 0000000180014660 f i NpArticulationLink.obj
 0001:000136f0       ?release@?$NpActorTemplate@VPxRigidDynamic@physx@@@physx@@UEAAXXZ 00000001800146f0 f i NpRigidDynamic.obj
 0001:000136f0       ?release@?$NpActorTemplate@VPxRigidStatic@physx@@@physx@@UEAAXXZ 00000001800146f0 f i NpRigidStatic.obj
 0001:000136f0       ?release@?$NpActorTemplate@VPxArticulationLink@physx@@@physx@@UEAAXXZ 00000001800146f0 f i NpArticulationLink.obj
 0001:00013700       ?release@?$NpRigidActorTemplate@VPxRigidDynamic@physx@@@physx@@UEAAXXZ 0000000180014700 f i NpRigidDynamic.obj
 0001:00013700       ?release@?$NpRigidActorTemplate@VPxArticulationLink@physx@@@physx@@UEAAXXZ 0000000180014700 f i NpArticulationLink.obj
 0001:00013700       ?release@?$NpRigidActorTemplate@VPxRigidStatic@physx@@@physx@@UEAAXXZ 0000000180014700 f i NpRigidStatic.obj
 0001:000137a0       ?release@NpArticulationLink@physx@@UEAAXXZ 00000001800147a0 f   NpArticulationLink.obj
 0001:00013840       ?releaseInternal@NpArticulationLink@physx@@QEAAXXZ 0000000180014840 f   NpArticulationLink.obj
 0001:000139d0       ?requiresObjects@NpRigidStatic@physx@@UEAAXAEAVPxProcessPxBaseCallback@2@@Z 00000001800149d0 f i NpRigidStatic.obj
 0001:000139d0       ?requiresObjects@?$NpRigidActorTemplate@VPxArticulationLink@physx@@@physx@@UEAAXAEAVPxProcessPxBaseCallback@2@@Z 00000001800149d0 f i NpArticulationLink.obj
 0001:000139d0       ?requiresObjects@NpRigidDynamic@physx@@UEAAXAEAVPxProcessPxBaseCallback@2@@Z 00000001800149d0 f i NpRigidDynamic.obj
 0001:000139d0       ?requiresObjects@?$NpRigidActorTemplate@VPxRigidDynamic@physx@@@physx@@UEAAXAEAVPxProcessPxBaseCallback@2@@Z 00000001800149d0 f i NpRigidDynamic.obj
 0001:000139d0       ?requiresObjects@?$NpRigidActorTemplate@VPxRigidStatic@physx@@@physx@@UEAAXAEAVPxProcessPxBaseCallback@2@@Z 00000001800149d0 f i NpRigidStatic.obj
 0001:00013a40       ?requiresObjects@NpArticulationLink@physx@@UEAAXAEAVPxProcessPxBaseCallback@2@@Z 0000000180014a40 f   NpArticulationLink.obj
 0001:00013ad0       ?resolveReferences@?$NpActorTemplate@VPxRigidStatic@physx@@@physx@@UEAAXAEAVPxDeserializationContext@2@@Z 0000000180014ad0 f i NpRigidStatic.obj
 0001:00013ad0       ?resolveReferences@?$NpActorTemplate@VPxArticulationLink@physx@@@physx@@UEAAXAEAVPxDeserializationContext@2@@Z 0000000180014ad0 f i NpArticulationLink.obj
 0001:00013ad0       ?resolveReferences@?$NpActorTemplate@VPxRigidDynamic@physx@@@physx@@UEAAXAEAVPxDeserializationContext@2@@Z 0000000180014ad0 f i NpRigidDynamic.obj
 0001:00013ae0       ?resolveReferences@?$NpRigidActorTemplate@VPxRigidStatic@physx@@@physx@@UEAAXAEAVPxDeserializationContext@2@@Z 0000000180014ae0 f i NpRigidStatic.obj
 0001:00013ae0       ?resolveReferences@?$NpRigidActorTemplate@VPxArticulationLink@physx@@@physx@@UEAAXAEAVPxDeserializationContext@2@@Z 0000000180014ae0 f i NpArticulationLink.obj
 0001:00013ae0       ?resolveReferences@?$NpRigidActorTemplate@VPxRigidDynamic@physx@@@physx@@UEAAXAEAVPxDeserializationContext@2@@Z 0000000180014ae0 f i NpRigidDynamic.obj
 0001:00013b70       ?resolveReferences@NpArticulationLink@physx@@UEAAXAEAVPxDeserializationContext@2@@Z 0000000180014b70 f   NpArticulationLink.obj
 0001:00013cb0       ?setActorFlag@?$NpActorTemplate@VPxRigidStatic@physx@@@physx@@UEAAXW4Enum@PxActorFlag@2@_N@Z 0000000180014cb0 f i NpRigidStatic.obj
 0001:00013cb0       ?setActorFlag@?$NpActorTemplate@VPxArticulationLink@physx@@@physx@@UEAAXW4Enum@PxActorFlag@2@_N@Z 0000000180014cb0 f i NpArticulationLink.obj
 0001:00013cb0       ?setActorFlag@?$NpActorTemplate@VPxRigidDynamic@physx@@@physx@@UEAAXW4Enum@PxActorFlag@2@_N@Z 0000000180014cb0 f i NpRigidDynamic.obj
 0001:00013d70       ?setActorFlag@?$NpRigidActorTemplate@VPxArticulationLink@physx@@@physx@@UEAAXW4Enum@PxActorFlag@2@_N@Z 0000000180014d70 f i NpArticulationLink.obj
 0001:00013f30       ?setActorFlags@?$NpActorTemplate@VPxRigidStatic@physx@@@physx@@UEAAXV?$PxFlags@W4Enum@PxActorFlag@physx@@E@2@@Z 0000000180014f30 f i NpRigidStatic.obj
 0001:00013f30       ?setActorFlags@?$NpActorTemplate@VPxRigidDynamic@physx@@@physx@@UEAAXV?$PxFlags@W4Enum@PxActorFlag@physx@@E@2@@Z 0000000180014f30 f i NpRigidDynamic.obj
 0001:00013f30       ?setActorFlags@?$NpActorTemplate@VPxArticulationLink@physx@@@physx@@UEAAXV?$PxFlags@W4Enum@PxActorFlag@physx@@E@2@@Z 0000000180014f30 f i NpArticulationLink.obj
 0001:00013f60       ?setActorFlags@?$NpRigidActorTemplate@VPxArticulationLink@physx@@@physx@@UEAAXV?$PxFlags@W4Enum@PxActorFlag@physx@@E@2@@Z 0000000180014f60 f i NpArticulationLink.obj
 0001:000140a0       ?setActorFlags@Actor@Scb@physx@@QEAAXV?$PxFlags@W4Enum@PxActorFlag@physx@@E@3@@Z 00000001800150a0 f i NpArticulationLink.obj
 0001:00014140       ?setAngularDamping@NpArticulationLink@physx@@UEAAXM@Z 0000000180015140 f   NpArticulationLink.obj
 0001:00014140       ?setAngularDamping@NpRigidDynamic@physx@@UEAAXM@Z 0000000180015140 f   NpRigidDynamic.obj
 0001:000141d0       ?setAngularVelocity@Body@Scb@physx@@QEAAXAEBVPxVec3@3@@Z 00000001800151d0 f i NpArticulationLink.obj
 0001:00014240       ?setAngularVelocity@NpArticulationLink@physx@@UEAAXAEBVPxVec3@2@_N@Z 0000000180015240 f   NpArticulationLink.obj
 0001:000142d0       ?setCMassLocalPose@NpArticulationLink@physx@@UEAAXAEBVPxTransform@2@@Z 00000001800152d0 f   NpArticulationLink.obj
 0001:00014a30       ?setCMassLocalPoseInternal@?$NpRigidBodyTemplate@VPxArticulationLink@physx@@@physx@@IEAAXAEBVPxTransform@2@@Z 0000000180015a30 f i NpArticulationLink.obj
 0001:00014a30       ?setCMassLocalPoseInternal@?$NpRigidBodyTemplate@VPxRigidDynamic@physx@@@physx@@IEAAXAEBVPxTransform@2@@Z 0000000180015a30 f i NpRigidDynamic.obj
 0001:00014db0       ?setChildPose@ArticulationJoint@Scb@physx@@QEAAXAEBVPxTransform@3@@Z 0000000180015db0 f i NpArticulationLink.obj
 0001:00014e60       ?setDominanceGroup@?$NpActorTemplate@VPxRigidStatic@physx@@@physx@@UEAAXE@Z 0000000180015e60 f i NpRigidStatic.obj
 0001:00014e60       ?setDominanceGroup@?$NpActorTemplate@VPxArticulationLink@physx@@@physx@@UEAAXE@Z 0000000180015e60 f i NpArticulationLink.obj
 0001:00014e60       ?setDominanceGroup@?$NpActorTemplate@VPxRigidDynamic@physx@@@physx@@UEAAXE@Z 0000000180015e60 f i NpRigidDynamic.obj
 0001:00014f00       ?setFlags@Body@Scb@physx@@QEAAXV?$PxFlags@W4Enum@PxRigidBodyFlag@physx@@G@3@@Z 0000000180015f00 f i NpArticulationLink.obj
 0001:00015050       ?setForceAndTorque@NpArticulationLink@physx@@UEAAXAEBVPxVec3@2@0W4Enum@PxForceMode@2@@Z 0000000180016050 f   NpArticulationLink.obj
 0001:000150e0       ?setGlobalPose@NpArticulationLink@physx@@UEAAXAEBVPxTransform@2@_N@Z 00000001800160e0 f   NpArticulationLink.obj
 0001:000150f0       ?setGlobalPoseInternal@NpArticulationLink@physx@@QEAAXAEBVPxTransform@2@_N@Z 00000001800160f0 f   NpArticulationLink.obj
 0001:00015540       ?setKinematicLink@NpArticulationLink@physx@@QEAAX_N@Z 0000000180016540 f   NpArticulationLink.obj
 0001:00015550       ?setLinearDamping@NpRigidDynamic@physx@@UEAAXM@Z 0000000180016550 f   NpRigidDynamic.obj
 0001:00015550       ?setLinearDamping@NpArticulationLink@physx@@UEAAXM@Z 0000000180016550 f   NpArticulationLink.obj
 0001:000155e0       ?setLinearVelocity@Body@Scb@physx@@QEAAXAEBVPxVec3@3@@Z 00000001800165e0 f i NpArticulationLink.obj
 0001:00015650       ?setLinearVelocity@NpArticulationLink@physx@@UEAAXAEBVPxVec3@2@_N@Z 0000000180016650 f   NpArticulationLink.obj
 0001:000156e0       ?setMass@?$NpRigidBodyTemplate@VPxRigidDynamic@physx@@@physx@@UEAAXM@Z 00000001800166e0 f i NpRigidDynamic.obj
 0001:000156e0       ?setMass@?$NpRigidBodyTemplate@VPxArticulationLink@physx@@@physx@@UEAAXM@Z 00000001800166e0 f i NpArticulationLink.obj
 0001:00015780       ?setMassSpaceInertiaTensor@?$NpRigidBodyTemplate@VPxRigidDynamic@physx@@@physx@@UEAAXAEBVPxVec3@2@@Z 0000000180016780 f i NpRigidDynamic.obj
 0001:00015780       ?setMassSpaceInertiaTensor@?$NpRigidBodyTemplate@VPxArticulationLink@physx@@@physx@@UEAAXAEBVPxVec3@2@@Z 0000000180016780 f i NpArticulationLink.obj
 0001:00015880       ?setMaxAngularVelocity@NpArticulationLink@physx@@UEAAXM@Z 0000000180016880 f   NpArticulationLink.obj
 0001:00015880       ?setMaxAngularVelocity@NpRigidDynamic@physx@@UEAAXM@Z 0000000180016880 f   NpRigidDynamic.obj
 0001:00015910       ?setMaxContactImpulse@?$NpRigidBodyTemplate@VPxArticulationLink@physx@@@physx@@UEAAXM@Z 0000000180016910 f i NpArticulationLink.obj
 0001:00015910       ?setMaxContactImpulse@?$NpRigidBodyTemplate@VPxRigidDynamic@physx@@@physx@@UEAAXM@Z 0000000180016910 f i NpRigidDynamic.obj
 0001:000159a0       ?setMaxDepenetrationVelocity@?$NpRigidBodyTemplate@VPxArticulationLink@physx@@@physx@@UEAAXM@Z 00000001800169a0 f i NpArticulationLink.obj
 0001:000159a0       ?setMaxDepenetrationVelocity@?$NpRigidBodyTemplate@VPxRigidDynamic@physx@@@physx@@UEAAXM@Z 00000001800169a0 f i NpRigidDynamic.obj
 0001:00015a30       ?setMaxLinearVelocity@NpRigidDynamic@physx@@UEAAXM@Z 0000000180016a30 f   NpRigidDynamic.obj
 0001:00015a30       ?setMaxLinearVelocity@NpArticulationLink@physx@@UEAAXM@Z 0000000180016a30 f   NpArticulationLink.obj
 0001:00015ac0       ?setMinCCDAdvanceCoefficient@?$NpRigidBodyTemplate@VPxArticulationLink@physx@@@physx@@UEAAXM@Z 0000000180016ac0 f i NpArticulationLink.obj
 0001:00015ac0       ?setMinCCDAdvanceCoefficient@?$NpRigidBodyTemplate@VPxRigidDynamic@physx@@@physx@@UEAAXM@Z 0000000180016ac0 f i NpRigidDynamic.obj
 0001:00015b50       ?setOwnerClient@?$NpActorTemplate@VPxRigidDynamic@physx@@@physx@@UEAAXE@Z 0000000180016b50 f i NpRigidDynamic.obj
 0001:00015b50       ?setOwnerClient@?$NpActorTemplate@VPxRigidStatic@physx@@@physx@@UEAAXE@Z 0000000180016b50 f i NpRigidStatic.obj
 0001:00015b50       ?setOwnerClient@?$NpActorTemplate@VPxArticulationLink@physx@@@physx@@UEAAXE@Z 0000000180016b50 f i NpArticulationLink.obj
 0001:00015c20       ?setRigidBodyFlag@?$NpRigidBodyTemplate@VPxRigidDynamic@physx@@@physx@@UEAAXW4Enum@PxRigidBodyFlag@2@_N@Z 0000000180016c20 f i NpRigidDynamic.obj
 0001:00015c20       ?setRigidBodyFlag@?$NpRigidBodyTemplate@VPxArticulationLink@physx@@@physx@@UEAAXW4Enum@PxRigidBodyFlag@2@_N@Z 0000000180016c20 f i NpArticulationLink.obj
 0001:00016100       ?setRigidBodyFlags@?$NpRigidBodyTemplate@VPxRigidDynamic@physx@@@physx@@UEAAXV?$PxFlags@W4Enum@PxRigidBodyFlag@physx@@G@2@@Z 0000000180017100 f i NpRigidDynamic.obj
 0001:00016100       ?setRigidBodyFlags@?$NpRigidBodyTemplate@VPxArticulationLink@physx@@@physx@@UEAAXV?$PxFlags@W4Enum@PxRigidBodyFlag@physx@@G@2@@Z 0000000180017100 f i NpArticulationLink.obj
 0001:000165d0       ?setSpatialAcceleration@Body@Scb@physx@@QEAAXPEBVPxVec3@3@0@Z 00000001800175d0 f i NpArticulationLink.obj
 0001:000166f0       ?setSpatialForce@?$NpRigidBodyTemplate@VPxArticulationLink@physx@@@physx@@IEAAXPEBVPxVec3@2@0W4Enum@PxForceMode@2@@Z 00000001800176f0 f i NpArticulationLink.obj
 0001:000166f0       ?setSpatialForce@?$NpRigidBodyTemplate@VPxRigidDynamic@physx@@@physx@@IEAAXPEBVPxVec3@2@0W4Enum@PxForceMode@2@@Z 00000001800176f0 f i NpRigidDynamic.obj
 0001:00016950       ?visualize@?$NpRigidBodyTemplate@VPxArticulationLink@physx@@@physx@@QEAAXAEAVRenderOutput@Cm@2@PEAVNpScene@2@@Z 0000000180017950 f i NpArticulationLink.obj
 0001:00016950       ?visualize@?$NpRigidBodyTemplate@VPxRigidDynamic@physx@@@physx@@QEAAXAEAVRenderOutput@Cm@2@PEAVNpScene@2@@Z 0000000180017950 f i NpRigidDynamic.obj
 0001:00016d10       ?visualize@NpArticulationLink@physx@@QEAAXAEAVRenderOutput@Cm@2@PEAVNpScene@2@@Z 0000000180017d10 f   NpArticulationLink.obj
 0001:00017030       ?visualizeAngularLimit@ConstraintImmediateVisualizer@Cm@physx@@UEAAXAEBVPxTransform@3@MM_N@Z 0000000180018030 f i NpArticulationLink.obj
 0001:00017060       ?visualizeDoubleCone@ConstraintImmediateVisualizer@Cm@physx@@UEAAXAEBVPxTransform@3@M_N@Z 0000000180018060 f i NpArticulationLink.obj
 0001:00017090       ?visualizeJoint@NpArticulationLink@physx@@QEAAXAEAVPxConstraintVisualizer@2@@Z 0000000180018090 f   NpArticulationLink.obj
 0001:00018160       ?visualizeJointFrames@ConstraintImmediateVisualizer@Cm@physx@@UEAAXAEBVPxTransform@3@0@Z 0000000180019160 f i NpArticulationLink.obj
 0001:00018180       ?visualizeLimitCone@ConstraintImmediateVisualizer@Cm@physx@@UEAAXAEBVPxTransform@3@MM_N@Z 0000000180019180 f i NpArticulationLink.obj
 0001:000181b0       ?visualizeLine@ConstraintImmediateVisualizer@Cm@physx@@UEAAXAEBVPxVec3@3@0I@Z 00000001800191b0 f i NpArticulationLink.obj
 0001:00018230       ?visualizeLinearLimit@ConstraintImmediateVisualizer@Cm@physx@@UEAAXAEBVPxTransform@3@0M_N@Z 0000000180019230 f i NpArticulationLink.obj
 0001:00018260       ??0NpBatchQuery@physx@@QEAA@AEAVNpScene@1@AEBVPxBatchQueryDesc@1@@Z 0000000180019260 f   NpBatchQuery.obj
 0001:00018390       ??_G?$PxHitBuffer@UPxRaycastHit@physx@@@physx@@UEAAPEAXI@Z 0000000180019390 f i NpBatchQuery.obj
 0001:00018390       ??_G?$PxHitCallback@UPxRaycastHit@physx@@@physx@@UEAAPEAXI@Z 0000000180019390 f i NpBatchQuery.obj
 0001:00018390       ??_G?$PxHitBuffer@UPxSweepHit@physx@@@physx@@UEAAPEAXI@Z 0000000180019390 f i NpBatchQuery.obj
 0001:00018390       ??_G?$PxHitCallback@UPxSweepHit@physx@@@physx@@UEAAPEAXI@Z 0000000180019390 f i NpBatchQuery.obj
 0001:00018390       ??_E?$PxHitCallback@UPxRaycastHit@physx@@@physx@@UEAAPEAXI@Z 0000000180019390 f i NpBatchQuery.obj
 0001:00018390       ??_E?$PxHitBuffer@UPxRaycastHit@physx@@@physx@@UEAAPEAXI@Z 0000000180019390 f i NpBatchQuery.obj
 0001:00018390       ??_E?$PxHitCallback@UPxSweepHit@physx@@@physx@@UEAAPEAXI@Z 0000000180019390 f i NpBatchQuery.obj
 0001:00018390       ??_E?$PxHitBuffer@UPxSweepHit@physx@@@physx@@UEAAPEAXI@Z 0000000180019390 f i NpBatchQuery.obj
 0001:000183c0       ??_G?$PxHitCallback@UPxOverlapHit@physx@@@physx@@UEAAPEAXI@Z 00000001800193c0 f i NpBatchQuery.obj
 0001:000183c0       ??_E?$PxHitCallback@UPxOverlapHit@physx@@@physx@@UEAAPEAXI@Z 00000001800193c0 f i NpBatchQuery.obj
 0001:000183f0       ??_E?$PxOverflowBuffer@UPxOverlapHit@physx@@@@UEAAPEAXI@Z 00000001800193f0 f i NpBatchQuery.obj
 0001:000183f0       ??_G?$PxOverflowBuffer@UPxOverlapHit@physx@@@@UEAAPEAXI@Z 00000001800193f0 f i NpBatchQuery.obj
 0001:00018420       ??_G?$PxOverflowBuffer@UPxSweepHit@physx@@@@UEAAPEAXI@Z 0000000180019420 f i NpBatchQuery.obj
 0001:00018420       ??_G?$PxOverflowBuffer@UPxRaycastHit@physx@@@@UEAAPEAXI@Z 0000000180019420 f i NpBatchQuery.obj
 0001:00018420       ??_E?$PxOverflowBuffer@UPxSweepHit@physx@@@@UEAAPEAXI@Z 0000000180019420 f i NpBatchQuery.obj
 0001:00018420       ??_E?$PxOverflowBuffer@UPxRaycastHit@physx@@@@UEAAPEAXI@Z 0000000180019420 f i NpBatchQuery.obj
 0001:00018450       ??_GNpBatchQuery@physx@@UEAAPEAXI@Z 0000000180019450 f i NpBatchQuery.obj
 0001:00018450       ??_ENpBatchQuery@physx@@UEAAPEAXI@Z 0000000180019450 f i NpBatchQuery.obj
 0001:00018520       ??_GPxBatchQuery@physx@@MEAAPEAXI@Z 0000000180019520 f i NpBatchQuery.obj
 0001:00018520       ??_EPxBatchQuery@physx@@MEAAPEAXI@Z 0000000180019520 f i NpBatchQuery.obj
 0001:00018550       ?execute@NpBatchQuery@physx@@UEAAXXZ 0000000180019550 f   NpBatchQuery.obj
 0001:00018e00       ?finalizeQuery@?$PxOverflowBuffer@UPxOverlapHit@physx@@@@UEAAXXZ 0000000180019e00 f i NpBatchQuery.obj
 0001:00018e20       ?finalizeQuery@?$PxOverflowBuffer@UPxRaycastHit@physx@@@@UEAAXXZ 0000000180019e20 f i NpBatchQuery.obj
 0001:00018e20       ?finalizeQuery@?$PxOverflowBuffer@UPxSweepHit@physx@@@@UEAAXXZ 0000000180019e20 f i NpBatchQuery.obj
 0001:00018e50       ?getDesc@NpBatchQuery@physx@@UEBAAEBVPxBatchQueryDesc@2@XZ 0000000180019e50 f i NpBatchQuery.obj
 0001:00018e60       ?getPreFilterShader@NpBatchQuery@physx@@UEBAP6A?AW4Enum@PxQueryHitType@2@UPxFilterData@2@0PEBXIAEAV?$PxFlags@W4Enum@PxHitFlag@physx@@G@2@@ZXZ 0000000180019e60 f   NpBatchQuery.obj
 0001:00018e70       ?getUserMemory@NpBatchQuery@physx@@UEAAAEBUPxBatchQueryMemory@2@XZ 0000000180019e70 f   NpBatchQuery.obj
 0001:00018e80       ?overlap@NpBatchQuery@physx@@UEAAXAEBVPxGeometry@2@AEBVPxTransform@2@GAEBUPxQueryFilterData@2@PEAXPEBUPxQueryCache@2@@Z 0000000180019e80 f   NpBatchQuery.obj
 0001:00019090       ?isSubordinate@?$PxSerializerDefaultAdapter@VNpShape@physx@@@physx@@UEBA_NXZ 000000018001a090 f i NpSerializerAdapter.obj
 0001:00019090       ?removeRegion@BroadPhaseBase@Bp@physx@@UEAA_NI@Z 000000018001a090 f i LowLevelAABB_static_64:BpBroadPhaseSap.obj
 0001:00019090       ?update@PersistentPairs@Bp@physx@@UEAA_NAEAVAABBManager@23@PEAUBpCacheData@23@@Z 000000018001a090 f i LowLevelAABB_static_64:BpAABBManager.obj
 0001:00019090       ?getLambda@ArticulationV@Dy@physx@@UEAA_NPEAUArticulationLoopConstraint@23@IAEAVPxArticulationCache@3@1PEBMAEBVPxVec3@3@I@Z 000000018001a090 f i LowLevelDynamics_static_64:DyArticulation.obj
 0001:00019090       ?isSubordinate@?$PxSerializerDefaultAdapter@VNpArticulationReducedCoordinate@physx@@@physx@@UEBA_NXZ 000000018001a090 f i NpSerializerAdapter.obj
 0001:00019090       ?storeStaticConstraint@ArticulationV@Dy@physx@@UEAA_NAEBUPxSolverConstraintDesc@3@@Z 000000018001a090 f i LowLevelDynamics_static_64:DyArticulation.obj
 0001:00019090       ?processTouches@?$PxHitBuffer@UPxSweepHit@physx@@@physx@@MEAA_NPEBUPxSweepHit@2@I@Z 000000018001a090 f i NpBatchQuery.obj
 0001:00019090       ?isSubordinate@?$PxSerializerDefaultAdapter@VPruningStructure@Sq@physx@@@physx@@UEBA_NXZ 000000018001a090 f i NpSerializerAdapter.obj
 0001:00019090       ?isSubordinate@?$PxSerializerDefaultAdapter@VNpMaterial@physx@@@physx@@UEBA_NXZ 000000018001a090 f i NpSerializerAdapter.obj
 0001:00019090       ?applyCache@ArticulationV@Dy@physx@@UEAA_NAEAVPxArticulationCache@3@V?$PxFlags@W4Enum@PxArticulationCache@physx@@E@3@@Z 000000018001a090 f i LowLevelDynamics_static_64:DyArticulation.obj
 0001:00019090       ?isSubordinate@?$PxSerializerDefaultAdapter@VBV4TriangleMesh@Gu@physx@@@physx@@UEBA_NXZ 000000018001a090 f i NpSerializerAdapter.obj
 0001:00019090       ?isSubordinate@?$PxSerializerDefaultAdapter@VConvexMesh@Gu@physx@@@physx@@UEBA_NXZ 000000018001a090 f i NpSerializerAdapter.obj
 0001:00019090       ?isSubordinate@?$PxSerializerDefaultAdapter@VHeightField@Gu@physx@@@physx@@UEBA_NXZ 000000018001a090 f i NpSerializerAdapter.obj
 0001:00019090       ?isSubordinate@?$PxSerializerDefaultAdapter@VRTreeTriangleMesh@Gu@physx@@@physx@@UEBA_NXZ 000000018001a090 f i NpSerializerAdapter.obj
 0001:00019090       ?isSubordinate@?$PxSerializerDefaultAdapter@VNpRigidStatic@physx@@@physx@@UEBA_NXZ 000000018001a090 f i NpSerializerAdapter.obj
 0001:00019090       ?isSubordinate@?$PxSerializerDefaultAdapter@VNpRigidDynamic@physx@@@physx@@UEBA_NXZ 000000018001a090 f i NpSerializerAdapter.obj
 0001:00019090       ?isSubordinate@?$PxSerializerDefaultAdapter@VNpArticulationJointReducedCoordinate@physx@@@physx@@UEBA_NXZ 000000018001a090 f i NpSerializerAdapter.obj
 0001:00019090       ?isSubordinate@?$PxSerializerDefaultAdapter@VNpArticulation@physx@@@physx@@UEBA_NXZ 000000018001a090 f i NpSerializerAdapter.obj
 0001:00019090       ?processTouches@?$PxHitBuffer@UPxRaycastHit@physx@@@physx@@MEAA_NPEBUPxRaycastHit@2@I@Z 000000018001a090 f i NpBatchQuery.obj
 0001:00019090       ?isSubordinate@?$PxSerializerDefaultAdapter@VNpAggregate@physx@@@physx@@UEBA_NXZ 000000018001a090 f i NpSerializerAdapter.obj
 0001:00019090       ?willStoreStaticConstraint@ArticulationV@Dy@physx@@UEAA_NXZ 000000018001a090 f i LowLevelDynamics_static_64:DyArticulation.obj
 0001:000190a0       ?processTouches@?$PxOverflowBuffer@UPxOverlapHit@physx@@@@UEAA_NPEBUPxOverlapHit@physx@@I@Z 000000018001a0a0 f i NpBatchQuery.obj
 0001:000190d0       ?processTouches@?$PxOverflowBuffer@UPxSweepHit@physx@@@@UEAA_NPEBUPxSweepHit@physx@@I@Z 000000018001a0d0 f i NpBatchQuery.obj
 0001:000190d0       ?processTouches@?$PxOverflowBuffer@UPxRaycastHit@physx@@@@UEAA_NPEBUPxRaycastHit@physx@@I@Z 000000018001a0d0 f i NpBatchQuery.obj
 0001:00019110       ?raycast@NpBatchQuery@physx@@UEAAXAEBVPxVec3@2@0MGV?$PxFlags@W4Enum@PxHitFlag@physx@@G@2@AEBUPxQueryFilterData@2@PEAXPEBUPxQueryCache@2@@Z 000000018001a110 f   NpBatchQuery.obj
 0001:00019270       ?recreate@?$Array@DV?$ReflectionAllocator@D@shdfnd@physx@@@shdfnd@physx@@IEAAXI@Z 000000018001a270 f i NpBatchQuery.obj
 0001:00019370       ?release@NpBatchQuery@physx@@UEAAXXZ 000000018001a370 f   NpBatchQuery.obj
 0001:000193d0       ?resizeUninitialized@?$Array@DV?$ReflectionAllocator@D@shdfnd@physx@@@shdfnd@physx@@QEAAXI@Z 000000018001a3d0 f i NpBatchQuery.obj
 0001:00019410       ?setUserMemory@NpBatchQuery@physx@@UEAAXAEBUPxBatchQueryMemory@2@@Z 000000018001a410 f   NpBatchQuery.obj
 0001:000194b0       ?sweep@NpBatchQuery@physx@@UEAAXAEBVPxGeometry@2@AEBVPxTransform@2@AEBVPxVec3@2@MGV?$PxFlags@W4Enum@PxHitFlag@physx@@G@2@AEBUPxQueryFilterData@2@PEAXPEBUPxQueryCache@2@M@Z 000000018001a4b0 f   NpBatchQuery.obj
 0001:00019720       ?writeBatchHeader@NpBatchQuery@physx@@AEAAXAEBUBatchStreamHeader@2@@Z 000000018001a720 f   NpBatchQuery.obj
 0001:00019b60       ??0NpConstraint@physx@@QEAA@PEAVPxRigidActor@1@0AEAVPxConstraintConnector@1@AEBUPxConstraintShaderTable@1@I@Z 000000018001ab60 f   NpConstraint.obj
 0001:00019d60       ??_GNpConstraint@physx@@UEAAPEAXI@Z 000000018001ad60 f i NpConstraint.obj
 0001:00019d60       ??_ENpConstraint@physx@@UEAAPEAXI@Z 000000018001ad60 f i NpConstraint.obj
 0001:00019e00       ?NpConstraintGetRigidObjectsFromScb@physx@@YAXAEBVConstraint@Scb@1@AEAPEAVRigidObject@31@1@Z 000000018001ae00 f   NpConstraint.obj
 0001:00019e70       ?actorDeleted@NpConstraint@physx@@QEAAXPEAVPxRigidActor@2@@Z 000000018001ae70 f   NpConstraint.obj
 0001:00019e90       ?comShift@NpConstraint@physx@@QEAAXPEAVPxRigidActor@2@@Z 000000018001ae90 f   NpConstraint.obj
 0001:00019ee0       ?createObject@NpConstraint@physx@@SAPEAV12@AEAPEAEAEAVPxDeserializationContext@2@@Z 000000018001aee0 f   NpConstraint.obj
 0001:00019f80       ?getActors@NpConstraint@physx@@UEBAXAEAPEAVPxRigidActor@2@0@Z 000000018001af80 f   NpConstraint.obj
 0001:00019f90       ?getBreakForce@NpConstraint@physx@@UEBAXAEAM0@Z 000000018001af90 f   NpConstraint.obj
 0001:00019ff0       ?getConcreteTypeName@PxConstraint@physx@@UEBAPEBDXZ 000000018001aff0 f i NpConstraint.obj
 0001:0001a000       ?getExternalReference@NpConstraint@physx@@UEAAPEAXAEAI@Z 000000018001b000 f   NpConstraint.obj
 0001:0001a010       ?getFlags@NpConstraint@physx@@UEBA?AV?$PxFlags@W4Enum@PxConstraintFlag@physx@@G@2@XZ 000000018001b010 f   NpConstraint.obj
 0001:0001a050       ?getForce@NpConstraint@physx@@UEBAXAEAVPxVec3@2@0@Z 000000018001b050 f   NpConstraint.obj
 0001:0001a090       ?getMinResponseThreshold@NpConstraint@physx@@UEBAMXZ 000000018001b090 f   NpConstraint.obj
 0001:0001a0e0       ?getScene@NpConstraint@physx@@UEBAPEAVPxScene@2@XZ 000000018001b0e0 f   NpConstraint.obj
 0001:0001a0e0       ?getNpScene@NpConstraint@physx@@QEBAPEAVNpScene@2@XZ 000000018001b0e0 f   NpConstraint.obj
 0001:0001a110       ?getSceneFromActors@NpConstraint@physx@@QEBAPEAVNpScene@2@XZ 000000018001b110 f   NpConstraint.obj
 0001:0001a1b0       ?isKindOf@PxConstraint@physx@@MEBA_NPEBD@Z 000000018001b1b0 f i NpConstraint.obj
 0001:0001a200       ?isValid@NpConstraint@physx@@UEBA_NXZ 000000018001b200 f   NpConstraint.obj
 0001:0001a250       ?markDirty@NpConstraint@physx@@UEAAXXZ 000000018001b250 f   NpConstraint.obj
 0001:0001a260       ?release@NpConstraint@physx@@UEAAXXZ 000000018001b260 f   NpConstraint.obj
 0001:0001a370       ?setActors@NpConstraint@physx@@UEAAXPEAVPxRigidActor@2@0@Z 000000018001b370 f   NpConstraint.obj
 0001:0001a5f0       ?setBodies@Constraint@Scb@physx@@QEAAXPEAVRigidObject@23@0@Z 000000018001b5f0 f i NpConstraint.obj
 0001:0001a6e0       ?setBreakForce@NpConstraint@physx@@UEAAXMM@Z 000000018001b6e0 f   NpConstraint.obj
 0001:0001a7b0       ?setConstraintFunctions@NpConstraint@physx@@UEAAXAEAVPxConstraintConnector@2@AEBUPxConstraintShaderTable@2@@Z 000000018001b7b0 f   NpConstraint.obj
 0001:0001a990       ?setFlag@NpConstraint@physx@@UEAAXW4Enum@PxConstraintFlag@2@_N@Z 000000018001b990 f   NpConstraint.obj
 0001:0001aa40       ?setFlags@Constraint@Scb@physx@@QEAAXV?$PxFlags@W4Enum@PxConstraintFlag@physx@@G@3@@Z 000000018001ba40 f i NpConstraint.obj
 0001:0001aad0       ?setFlags@NpConstraint@physx@@UEAAXV?$PxFlags@W4Enum@PxConstraintFlag@physx@@G@2@@Z 000000018001bad0 f   NpConstraint.obj
 0001:0001ab20       ?setMinResponseThreshold@NpConstraint@physx@@UEAAXM@Z 000000018001bb20 f   NpConstraint.obj
 0001:0001abe0       ?updateConstants@NpConstraint@physx@@QEAAXXZ 000000018001bbe0 f   NpConstraint.obj
 0001:0001b1a0       ??$sort@PEAXU?$Less@PEAX@shdfnd@physx@@V?$ReflectionAllocator@V?$PtrBlock@$03@NpPtrTableStorageManager@physx@@@23@@shdfnd@physx@@YAXPEAPEAXIAEBU?$Less@PEAX@01@AEBV?$ReflectionAllocator@V?$PtrBlock@$03@NpPtrTableStorageManager@physx@@@01@I@Z 000000018001c1a0 f i NpFactory.obj
 0001:0001b600       ??$sort@PEAXU?$Less@PEAX@shdfnd@physx@@V?$ReflectionAllocator@V?$PtrBlock@$0BA@@NpPtrTableStorageManager@physx@@@23@@shdfnd@physx@@YAXPEAPEAXIAEBU?$Less@PEAX@01@AEBV?$ReflectionAllocator@V?$PtrBlock@$0BA@@NpPtrTableStorageManager@physx@@@01@I@Z 000000018001c600 f i NpFactory.obj
 0001:0001ba60       ??$sort@PEAXU?$Less@PEAX@shdfnd@physx@@V?$ReflectionAllocator@V?$PtrBlock@$0EA@@NpPtrTableStorageManager@physx@@@23@@shdfnd@physx@@YAXPEAPEAXIAEBU?$Less@PEAX@01@AEBV?$ReflectionAllocator@V?$PtrBlock@$0EA@@NpPtrTableStorageManager@physx@@@01@I@Z 000000018001ca60 f i NpFactory.obj
 0001:0001bec0       ??$sort@PEAXU?$Less@PEAX@shdfnd@physx@@V?$ReflectionAllocator@VNpAggregate@physx@@@23@@shdfnd@physx@@YAXPEAPEAXIAEBU?$Less@PEAX@01@AEBV?$ReflectionAllocator@VNpAggregate@physx@@@01@I@Z 000000018001cec0 f i NpFactory.obj
 0001:0001c320       ??$sort@PEAXU?$Less@PEAX@shdfnd@physx@@V?$ReflectionAllocator@VNpArticulation@physx@@@23@@shdfnd@physx@@YAXPEAPEAXIAEBU?$Less@PEAX@01@AEBV?$ReflectionAllocator@VNpArticulation@physx@@@01@I@Z 000000018001d320 f i NpFactory.obj
 0001:0001c780       ??$sort@PEAXU?$Less@PEAX@shdfnd@physx@@V?$ReflectionAllocator@VNpArticulationJoint@physx@@@23@@shdfnd@physx@@YAXPEAPEAXIAEBU?$Less@PEAX@01@AEBV?$ReflectionAllocator@VNpArticulationJoint@physx@@@01@I@Z 000000018001d780 f i NpFactory.obj
 0001:0001cbe0       ??$sort@PEAXU?$Less@PEAX@shdfnd@physx@@V?$ReflectionAllocator@VNpArticulationJointReducedCoordinate@physx@@@23@@shdfnd@physx@@YAXPEAPEAXIAEBU?$Less@PEAX@01@AEBV?$ReflectionAllocator@VNpArticulationJointReducedCoordinate@physx@@@01@I@Z 000000018001dbe0 f i NpFactory.obj
 0001:0001d040       ??$sort@PEAXU?$Less@PEAX@shdfnd@physx@@V?$ReflectionAllocator@VNpArticulationLink@physx@@@23@@shdfnd@physx@@YAXPEAPEAXIAEBU?$Less@PEAX@01@AEBV?$ReflectionAllocator@VNpArticulationLink@physx@@@01@I@Z 000000018001e040 f i NpFactory.obj
 0001:0001d4a0       ??$sort@PEAXU?$Less@PEAX@shdfnd@physx@@V?$ReflectionAllocator@VNpArticulationReducedCoordinate@physx@@@23@@shdfnd@physx@@YAXPEAPEAXIAEBU?$Less@PEAX@01@AEBV?$ReflectionAllocator@VNpArticulationReducedCoordinate@physx@@@01@I@Z 000000018001e4a0 f i NpFactory.obj
 0001:0001d900       ??$sort@PEAXU?$Less@PEAX@shdfnd@physx@@V?$ReflectionAllocator@VNpConnectorArray@physx@@@23@@shdfnd@physx@@YAXPEAPEAXIAEBU?$Less@PEAX@01@AEBV?$ReflectionAllocator@VNpConnectorArray@physx@@@01@I@Z 000000018001e900 f i NpFactory.obj
 0001:0001dd60       ??$sort@PEAXU?$Less@PEAX@shdfnd@physx@@V?$ReflectionAllocator@VNpConstraint@physx@@@23@@shdfnd@physx@@YAXPEAPEAXIAEBU?$Less@PEAX@01@AEBV?$ReflectionAllocator@VNpConstraint@physx@@@01@I@Z 000000018001ed60 f i NpFactory.obj
 0001:0001e1c0       ??$sort@PEAXU?$Less@PEAX@shdfnd@physx@@V?$ReflectionAllocator@VNpMaterial@physx@@@23@@shdfnd@physx@@YAXPEAPEAXIAEBU?$Less@PEAX@01@AEBV?$ReflectionAllocator@VNpMaterial@physx@@@01@I@Z 000000018001f1c0 f i NpFactory.obj
 0001:0001e620       ??$sort@PEAXU?$Less@PEAX@shdfnd@physx@@V?$ReflectionAllocator@VNpRigidDynamic@physx@@@23@@shdfnd@physx@@YAXPEAPEAXIAEBU?$Less@PEAX@01@AEBV?$ReflectionAllocator@VNpRigidDynamic@physx@@@01@I@Z 000000018001f620 f i NpFactory.obj
 0001:0001ea80       ??$sort@PEAXU?$Less@PEAX@shdfnd@physx@@V?$ReflectionAllocator@VNpRigidStatic@physx@@@23@@shdfnd@physx@@YAXPEAPEAXIAEBU?$Less@PEAX@01@AEBV?$ReflectionAllocator@VNpRigidStatic@physx@@@01@I@Z 000000018001fa80 f i NpFactory.obj
 0001:0001eee0       ??$sort@PEAXU?$Less@PEAX@shdfnd@physx@@V?$ReflectionAllocator@VNpShape@physx@@@23@@shdfnd@physx@@YAXPEAPEAXIAEBU?$Less@PEAX@01@AEBV?$ReflectionAllocator@VNpShape@physx@@@01@I@Z 000000018001fee0 f i NpFactory.obj
 0001:0001f340       ??0NpFactory@physx@@QEAA@XZ 0000000180020340 f   NpFactory.obj
 0001:0001fe90       ??1?$Array@PEAXV?$InlineAllocator@$0CAA@V?$ReflectionAllocator@VNpArticulationJoint@physx@@@shdfnd@physx@@@shdfnd@physx@@@shdfnd@physx@@QEAA@XZ 0000000180020e90 f i NpFactory.obj
 0001:0001fe90       ??1?$Array@PEAXV?$InlineAllocator@$0CAA@V?$ReflectionAllocator@VNpRigidDynamic@physx@@@shdfnd@physx@@@shdfnd@physx@@@shdfnd@physx@@QEAA@XZ 0000000180020e90 f i NpFactory.obj
 0001:0001fe90       ??1?$Array@PEAXV?$InlineAllocator@$0CAA@V?$ReflectionAllocator@VNpConnectorArray@physx@@@shdfnd@physx@@@shdfnd@physx@@@shdfnd@physx@@QEAA@XZ 0000000180020e90 f i NpFactory.obj
 0001:0001fe90       ??1?$Array@PEAXV?$InlineAllocator@$0CAA@V?$ReflectionAllocator@V?$PtrBlock@$03@NpPtrTableStorageManager@physx@@@shdfnd@physx@@@shdfnd@physx@@@shdfnd@physx@@QEAA@XZ 0000000180020e90 f i NpFactory.obj
 0001:0001fe90       ??1?$Array@PEAXV?$InlineAllocator@$0CAA@V?$ReflectionAllocator@VNpArticulation@physx@@@shdfnd@physx@@@shdfnd@physx@@@shdfnd@physx@@QEAA@XZ 0000000180020e90 f i NpFactory.obj
 0001:0001fe90       ??1?$Array@PEAXV?$InlineAllocator@$0CAA@V?$ReflectionAllocator@VNpShape@physx@@@shdfnd@physx@@@shdfnd@physx@@@shdfnd@physx@@QEAA@XZ 0000000180020e90 f i NpFactory.obj
 0001:0001fe90       ??1?$Array@PEAXV?$InlineAllocator@$0CAA@V?$ReflectionAllocator@VNpArticulationJointReducedCoordinate@physx@@@shdfnd@physx@@@shdfnd@physx@@@shdfnd@physx@@QEAA@XZ 0000000180020e90 f i NpFactory.obj
 0001:0001fe90       ??1?$Array@PEAXV?$InlineAllocator@$0CAA@V?$ReflectionAllocator@VNpRigidStatic@physx@@@shdfnd@physx@@@shdfnd@physx@@@shdfnd@physx@@QEAA@XZ 0000000180020e90 f i NpFactory.obj
 0001:0001fe90       ??1?$Array@PEAXV?$InlineAllocator@$0CAA@V?$ReflectionAllocator@V?$PtrBlock@$0BA@@NpPtrTableStorageManager@physx@@@shdfnd@physx@@@shdfnd@physx@@@shdfnd@physx@@QEAA@XZ 0000000180020e90 f i NpFactory.obj
 0001:0001fe90       ??1?$Array@PEAXV?$InlineAllocator@$0CAA@V?$ReflectionAllocator@VNpArticulationReducedCoordinate@physx@@@shdfnd@physx@@@shdfnd@physx@@@shdfnd@physx@@QEAA@XZ 0000000180020e90 f i NpFactory.obj
 0001:0001fe90       ??1?$Array@PEAXV?$InlineAllocator@$0CAA@V?$ReflectionAllocator@VNpAggregate@physx@@@shdfnd@physx@@@shdfnd@physx@@@shdfnd@physx@@QEAA@XZ 0000000180020e90 f i NpFactory.obj
 0001:0001fe90       ??1?$Array@PEAXV?$InlineAllocator@$0CAA@V?$ReflectionAllocator@V?$PtrBlock@$0EA@@NpPtrTableStorageManager@physx@@@shdfnd@physx@@@shdfnd@physx@@@shdfnd@physx@@QEAA@XZ 0000000180020e90 f i NpFactory.obj
 0001:0001fe90       ??1?$Array@PEAXV?$InlineAllocator@$0CAA@V?$ReflectionAllocator@VNpArticulationLink@physx@@@shdfnd@physx@@@shdfnd@physx@@@shdfnd@physx@@QEAA@XZ 0000000180020e90 f i NpFactory.obj
 0001:0001fe90       ??1?$Array@PEAXV?$InlineAllocator@$0CAA@V?$ReflectionAllocator@VNpConstraint@physx@@@shdfnd@physx@@@shdfnd@physx@@@shdfnd@physx@@QEAA@XZ 0000000180020e90 f i NpFactory.obj
 0001:0001fe90       ??1?$Array@PEAXV?$InlineAllocator@$0CAA@V?$ReflectionAllocator@VNpMaterial@physx@@@shdfnd@physx@@@shdfnd@physx@@@shdfnd@physx@@QEAA@XZ 0000000180020e90 f i NpFactory.obj
 0001:0001ff00       ??1?$PoolBase@V?$PtrBlock@$03@NpPtrTableStorageManager@physx@@V?$ReflectionAllocator@V?$PtrBlock@$03@NpPtrTableStorageManager@physx@@@shdfnd@3@@shdfnd@physx@@QEAA@XZ 0000000180020f00 f i NpFactory.obj
 0001:00020060       ??1?$PoolBase@V?$PtrBlock@$0BA@@NpPtrTableStorageManager@physx@@V?$ReflectionAllocator@V?$PtrBlock@$0BA@@NpPtrTableStorageManager@physx@@@shdfnd@3@@shdfnd@physx@@QEAA@XZ 0000000180021060 f i NpFactory.obj
 0001:000201c0       ??1?$PoolBase@V?$PtrBlock@$0EA@@NpPtrTableStorageManager@physx@@V?$ReflectionAllocator@V?$PtrBlock@$0EA@@NpPtrTableStorageManager@physx@@@shdfnd@3@@shdfnd@physx@@QEAA@XZ 00000001800211c0 f i NpFactory.obj
 0001:00020320       ??1?$PoolBase@VNpAggregate@physx@@V?$ReflectionAllocator@VNpAggregate@physx@@@shdfnd@2@@shdfnd@physx@@QEAA@XZ 0000000180021320 f i NpFactory.obj
 0001:00020520       ??1?$PoolBase@VNpArticulation@physx@@V?$ReflectionAllocator@VNpArticulation@physx@@@shdfnd@2@@shdfnd@physx@@QEAA@XZ 0000000180021520 f i NpFactory.obj
 0001:00020720       ??1?$PoolBase@VNpArticulationJoint@physx@@V?$ReflectionAllocator@VNpArticulationJoint@physx@@@shdfnd@2@@shdfnd@physx@@QEAA@XZ 0000000180021720 f i NpFactory.obj
 0001:00020920       ??1?$PoolBase@VNpArticulationJointReducedCoordinate@physx@@V?$ReflectionAllocator@VNpArticulationJointReducedCoordinate@physx@@@shdfnd@2@@shdfnd@physx@@QEAA@XZ 0000000180021920 f i NpFactory.obj
 0001:00020b20       ??1?$PoolBase@VNpArticulationLink@physx@@V?$ReflectionAllocator@VNpArticulationLink@physx@@@shdfnd@2@@shdfnd@physx@@QEAA@XZ 0000000180021b20 f i NpFactory.obj
 0001:00020d20       ??1?$PoolBase@VNpArticulationReducedCoordinate@physx@@V?$ReflectionAllocator@VNpArticulationReducedCoordinate@physx@@@shdfnd@2@@shdfnd@physx@@QEAA@XZ 0000000180021d20 f i NpFactory.obj
 0001:00020f20       ??1?$PoolBase@VNpConnectorArray@physx@@V?$ReflectionAllocator@VNpConnectorArray@physx@@@shdfnd@2@@shdfnd@physx@@QEAA@XZ 0000000180021f20 f i NpFactory.obj
 0001:00020fa0       ??1?$PoolBase@VNpConstraint@physx@@V?$ReflectionAllocator@VNpConstraint@physx@@@shdfnd@2@@shdfnd@physx@@QEAA@XZ 0000000180021fa0 f i NpFactory.obj
 0001:000211a0       ??1?$PoolBase@VNpMaterial@physx@@V?$ReflectionAllocator@VNpMaterial@physx@@@shdfnd@2@@shdfnd@physx@@QEAA@XZ 00000001800221a0 f i NpFactory.obj
 0001:000213a0       ??1?$PoolBase@VNpRigidDynamic@physx@@V?$ReflectionAllocator@VNpRigidDynamic@physx@@@shdfnd@2@@shdfnd@physx@@QEAA@XZ 00000001800223a0 f i NpFactory.obj
 0001:000215a0       ??1?$PoolBase@VNpRigidStatic@physx@@V?$ReflectionAllocator@VNpRigidStatic@physx@@@shdfnd@2@@shdfnd@physx@@QEAA@XZ 00000001800225a0 f i NpFactory.obj
 0001:000217a0       ??1?$PoolBase@VNpShape@physx@@V?$ReflectionAllocator@VNpShape@physx@@@shdfnd@2@@shdfnd@physx@@QEAA@XZ 00000001800227a0 f i NpFactory.obj
 0001:000219a0       ??1NpFactory@physx@@EEAA@XZ 00000001800229a0 f   NpFactory.obj
 0001:00021d00       ??_GNpFactory@physx@@EEAAPEAXI@Z 0000000180022d00 f i NpFactory.obj
 0001:00021d00       ??_ENpFactory@physx@@EEAAPEAXI@Z 0000000180022d00 f i NpFactory.obj
 0001:00021d60       ??_ENpPtrTableStorageManager@physx@@UEAAPEAXI@Z 0000000180022d60 f i NpFactory.obj
 0001:00021d60       ??_GNpPtrTableStorageManager@physx@@UEAAPEAXI@Z 0000000180022d60 f i NpFactory.obj
 0001:00021e20       ??_GPtrTableStorageManager@Cm@physx@@MEAAPEAXI@Z 0000000180022e20 f i NpFactory.obj
 0001:00021e20       ??_EPtrTableStorageManager@Cm@physx@@MEAAPEAXI@Z 0000000180022e20 f i NpFactory.obj
 0001:00021e50       ?NpDestroy@physx@@YAXAEAVBase@Scb@1@@Z 0000000180022e50 f   NpFactory.obj
 0001:00022260       ?acquireConnectorArray@NpFactory@physx@@QEAAPEAVNpConnectorArray@2@XZ 0000000180023260 f   NpFactory.obj
 0001:000223c0       ?addCollection@NpFactory@physx@@QEAAXAEBVCollection@Cm@2@@Z 00000001800233c0 f   NpFactory.obj
 0001:00022660       ?allocate@?$Array@PEAVPxActor@physx@@V?$ReflectionAllocator@PEAVPxActor@physx@@@shdfnd@2@@shdfnd@physx@@IEAAPEAPEAVPxActor@3@I@Z 0000000180023660 f i NpFactory.obj
 0001:00022700       ?allocate@?$Array@PEAVPxAggregate@physx@@V?$ReflectionAllocator@PEAVPxAggregate@physx@@@shdfnd@2@@shdfnd@physx@@IEAAPEAPEAVPxAggregate@3@I@Z 0000000180023700 f i NpFactory.obj
 0001:000227a0       ?allocate@?$Array@PEAVPxArticulationBase@physx@@V?$ReflectionAllocator@PEAVPxArticulationBase@physx@@@shdfnd@2@@shdfnd@physx@@IEAAPEAPEAVPxArticulationBase@3@I@Z 00000001800237a0 f i NpFactory.obj
 0001:00022840       ?allocate@?$Array@PEAVPxConstraint@physx@@V?$ReflectionAllocator@PEAVPxConstraint@physx@@@shdfnd@2@@shdfnd@physx@@IEAAPEAPEAVPxConstraint@3@I@Z 0000000180023840 f i NpFactory.obj
 0001:000228e0       ?allocate@?$ReflectionAllocator@G@shdfnd@physx@@QEAAPEAX_KPEBDH@Z 00000001800238e0 f i NpFactory.obj
 0001:00022980       ?allocate@?$ReflectionAllocator@V?$PtrBlock@$03@NpPtrTableStorageManager@physx@@@shdfnd@physx@@QEAAPEAX_KPEBDH@Z 0000000180023980 f i NpFactory.obj
 0001:00022a20       ?allocate@?$ReflectionAllocator@V?$PtrBlock@$0BA@@NpPtrTableStorageManager@physx@@@shdfnd@physx@@QEAAPEAX_KPEBDH@Z 0000000180023a20 f i NpFactory.obj
 0001:00022ac0       ?allocate@?$ReflectionAllocator@V?$PtrBlock@$0EA@@NpPtrTableStorageManager@physx@@@shdfnd@physx@@QEAAPEAX_KPEBDH@Z 0000000180023ac0 f i NpFactory.obj
 0001:00022b60       ?allocate@?$ReflectionAllocator@VNpAggregate@physx@@@shdfnd@physx@@QEAAPEAX_KPEBDH@Z 0000000180023b60 f i NpFactory.obj
 0001:00022c00       ?allocate@?$ReflectionAllocator@VNpArticulation@physx@@@shdfnd@physx@@QEAAPEAX_KPEBDH@Z 0000000180023c00 f i NpFactory.obj
 0001:00022ca0       ?allocate@?$ReflectionAllocator@VNpArticulationJoint@physx@@@shdfnd@physx@@QEAAPEAX_KPEBDH@Z 0000000180023ca0 f i NpFactory.obj
 0001:00022d40       ?allocate@?$ReflectionAllocator@VNpArticulationJointReducedCoordinate@physx@@@shdfnd@physx@@QEAAPEAX_KPEBDH@Z 0000000180023d40 f i NpFactory.obj
 0001:00022de0       ?allocate@?$ReflectionAllocator@VNpArticulationLink@physx@@@shdfnd@physx@@QEAAPEAX_KPEBDH@Z 0000000180023de0 f i NpFactory.obj
 0001:00022e80       ?allocate@?$ReflectionAllocator@VNpArticulationReducedCoordinate@physx@@@shdfnd@physx@@QEAAPEAX_KPEBDH@Z 0000000180023e80 f i NpFactory.obj
 0001:00022f20       ?allocate@?$ReflectionAllocator@VNpConnectorArray@physx@@@shdfnd@physx@@QEAAPEAX_KPEBDH@Z 0000000180023f20 f i NpFactory.obj
 0001:00022fc0       ?allocate@?$ReflectionAllocator@VNpConstraint@physx@@@shdfnd@physx@@QEAAPEAX_KPEBDH@Z 0000000180023fc0 f i NpFactory.obj
 0001:00023060       ?allocate@?$ReflectionAllocator@VNpMaterial@physx@@@shdfnd@physx@@QEAAPEAX_KPEBDH@Z 0000000180024060 f i NpFactory.obj
 0001:00023100       ?allocate@?$ReflectionAllocator@VNpRigidDynamic@physx@@@shdfnd@physx@@QEAAPEAX_KPEBDH@Z 0000000180024100 f i NpFactory.obj
 0001:000231a0       ?allocate@?$ReflectionAllocator@VNpRigidStatic@physx@@@shdfnd@physx@@QEAAPEAX_KPEBDH@Z 00000001800241a0 f i NpFactory.obj
 0001:00023240       ?allocate@?$ReflectionAllocator@VNpShape@physx@@@shdfnd@physx@@QEAAPEAX_KPEBDH@Z 0000000180024240 f i NpFactory.obj
 0001:000232e0       ?allocate@NpPtrTableStorageManager@physx@@UEAAPEAPEAXI@Z 00000001800242e0 f i NpFactory.obj
 0001:000236c0       ?canReuse@NpPtrTableStorageManager@physx@@UEAA_NII@Z 00000001800246c0 f i NpFactory.obj
 0001:00023710       ?create@?$HashBase@PEAVPxAggregate@physx@@PEAV12@U?$Hash@PEAVPxAggregate@physx@@@shdfnd@2@UGetKey@?$HashSetBase@PEAVPxAggregate@physx@@U?$Hash@PEAVPxAggregate@physx@@@shdfnd@2@VNonTrackingAllocator@42@$0A@@internal@42@VNonTrackingAllocator@42@$0A@@internal@shdfnd@physx@@QEAAPEAPEAVPxAggregate@4@AEBQEAV54@AEA_N@Z 0000000180024710 f i NpFactory.obj
 0001:00023710       ?create@?$HashBase@PEAVPxActor@physx@@PEAV12@U?$Hash@PEAVPxActor@physx@@@shdfnd@2@UGetKey@?$HashSetBase@PEAVPxActor@physx@@U?$Hash@PEAVPxActor@physx@@@shdfnd@2@VNonTrackingAllocator@42@$0A@@internal@42@VNonTrackingAllocator@42@$0A@@internal@shdfnd@physx@@QEAAPEAPEAVPxActor@4@AEBQEAV54@AEA_N@Z 0000000180024710 f i NpFactory.obj
 0001:00023710       ?create@?$HashBase@PEAVPxConstraint@physx@@PEAV12@U?$Hash@PEAVPxConstraint@physx@@@shdfnd@2@UGetKey@?$HashSetBase@PEAVPxConstraint@physx@@U?$Hash@PEAVPxConstraint@physx@@@shdfnd@2@VNonTrackingAllocator@42@$0A@@internal@42@VNonTrackingAllocator@42@$0A@@internal@shdfnd@physx@@QEAAPEAPEAVPxConstraint@4@AEBQEAV54@AEA_N@Z 0000000180024710 f i NpFactory.obj
 0001:00023710       ?create@?$HashBase@PEBVPxBase@physx@@PEBV12@U?$Hash@PEBVPxBase@physx@@@shdfnd@2@UGetKey@?$HashSetBase@PEBVPxBase@physx@@U?$Hash@PEBVPxBase@physx@@@shdfnd@2@VNonTrackingAllocator@42@$0A@@internal@42@VNonTrackingAllocator@42@$0A@@internal@shdfnd@physx@@QEAAPEAPEBVPxBase@4@AEBQEBV54@AEA_N@Z 0000000180024710 f i NpPhysics.obj
 0001:00023710       ?create@?$HashBase@PEAVPxArticulationBase@physx@@PEAV12@U?$Hash@PEAVPxArticulationBase@physx@@@shdfnd@2@UGetKey@?$HashSetBase@PEAVPxArticulationBase@physx@@U?$Hash@PEAVPxArticulationBase@physx@@@shdfnd@2@VNonTrackingAllocator@42@$0A@@internal@42@VNonTrackingAllocator@42@$0A@@internal@shdfnd@physx@@QEAAPEAPEAVPxArticulationBase@4@AEBQEAV54@AEA_N@Z 0000000180024710 f i NpFactory.obj
 0001:000238c0       ?createAggregate@NpFactory@physx@@QEAAPEAVPxAggregate@2@I_N@Z 00000001800248c0 f   NpFactory.obj
 0001:00023c30       ?createArticulation@NpFactory@physx@@QEAAPEAVPxArticulation@2@XZ 0000000180024c30 f   NpFactory.obj
 0001:00024160       ?createArticulationLink@NpFactory@physx@@QEAAPEAVPxArticulationLink@2@AEAVPxArticulationBase@2@PEAVNpArticulationLink@2@AEBVPxTransform@2@@Z 0000000180025160 f   NpFactory.obj
 0001:00024370       ?createArticulationRC@NpFactory@physx@@QEAAPEAVPxArticulationReducedCoordinate@2@XZ 0000000180025370 f   NpFactory.obj
 0001:00024410       ?createConstraint@NpFactory@physx@@QEAAPEAVPxConstraint@2@PEAVPxRigidActor@2@0AEAVPxConstraintConnector@2@AEBUPxConstraintShaderTable@2@I@Z 0000000180025410 f   NpFactory.obj
 0001:000245f0       ?createInstance@NpFactory@physx@@SAXXZ 00000001800255f0 f   NpFactory.obj
 0001:00024680       ?createMaterial@NpFactory@physx@@QEAAPEAVPxMaterial@2@MMM@Z 0000000180025680 f   NpFactory.obj
 0001:00024860       ?createNpArticulationJoint@NpFactory@physx@@QEAAPEAVNpArticulationJoint@2@AEAVNpArticulationLink@2@AEBVPxTransform@2@01@Z 0000000180025860 f   NpFactory.obj
 0001:000249f0       ?createNpArticulationJointRC@NpFactory@physx@@QEAAPEAVNpArticulationJointReducedCoordinate@2@AEAVNpArticulationLink@2@AEBVPxTransform@2@01@Z 00000001800259f0 f   NpFactory.obj
 0001:00024b80       ?createRigidDynamic@NpFactory@physx@@QEAAPEAVPxRigidDynamic@2@AEBVPxTransform@2@@Z 0000000180025b80 f   NpFactory.obj
 0001:00024d30       ?createRigidStatic@NpFactory@physx@@QEAAPEAVPxRigidStatic@2@AEBVPxTransform@2@@Z 0000000180025d30 f   NpFactory.obj
 0001:00024ed0       ?createShape@NpFactory@physx@@QEAAPEAVNpShape@2@AEBVPxGeometry@2@V?$PxFlags@W4Enum@PxShapeFlag@physx@@E@2@PEBQEAVPxMaterial@2@G_N@Z 0000000180025ed0 f   NpFactory.obj
 0001:00025210       ?deallocate@NpPtrTableStorageManager@physx@@UEAAXPEAPEAXI@Z 0000000180026210 f i NpFactory.obj
 0001:000252c0       ?destroyInstance@NpFactory@physx@@SAXXZ 00000001800262c0 f   NpFactory.obj
 0001:00025350       ?disposeElements@?$PoolBase@VNpConnectorArray@physx@@V?$ReflectionAllocator@VNpConnectorArray@physx@@@shdfnd@2@@shdfnd@physx@@IEAAXXZ 0000000180026350 f i NpFactory.obj
 0001:00025550       ?getNbShapes@NpFactory@physx@@QEBAIXZ 0000000180026550 f   NpFactory.obj
 0001:00025560       ?getShapes@NpFactory@physx@@QEBAIPEAPEAVPxShape@2@II@Z 0000000180026560 f   NpFactory.obj
 0001:000255c0       ?growAndPushBack@?$Array@PEAVPxActor@physx@@V?$ReflectionAllocator@PEAVPxActor@physx@@@shdfnd@2@@shdfnd@physx@@IEAAAEAPEAVPxActor@3@AEBQEAV43@@Z 00000001800265c0 f i NpFactory.obj
 0001:00025680       ?growAndPushBack@?$Array@PEAVPxAggregate@physx@@V?$ReflectionAllocator@PEAVPxAggregate@physx@@@shdfnd@2@@shdfnd@physx@@IEAAAEAPEAVPxAggregate@3@AEBQEAV43@@Z 0000000180026680 f i NpFactory.obj
 0001:00025740       ?growAndPushBack@?$Array@PEAVPxArticulationBase@physx@@V?$ReflectionAllocator@PEAVPxArticulationBase@physx@@@shdfnd@2@@shdfnd@physx@@IEAAAEAPEAVPxArticulationBase@3@AEBQEAV43@@Z 0000000180026740 f i NpFactory.obj
 0001:00025800       ?growAndPushBack@?$Array@PEAVPxConstraint@physx@@V?$ReflectionAllocator@PEAVPxConstraint@physx@@@shdfnd@2@@shdfnd@physx@@IEAAAEAPEAVPxConstraint@3@AEBQEAV43@@Z 0000000180026800 f i NpFactory.obj
 0001:000258c0       ?growAndPushBack@?$Array@PEAXV?$InlineAllocator@$0CAA@V?$ReflectionAllocator@V?$PtrBlock@$03@NpPtrTableStorageManager@physx@@@shdfnd@physx@@@shdfnd@physx@@@shdfnd@physx@@IEAAAEAPEAXAEBQEAX@Z 00000001800268c0 f i NpFactory.obj
 0001:000259e0       ?growAndPushBack@?$Array@PEAXV?$InlineAllocator@$0CAA@V?$ReflectionAllocator@V?$PtrBlock@$0BA@@NpPtrTableStorageManager@physx@@@shdfnd@physx@@@shdfnd@physx@@@shdfnd@physx@@IEAAAEAPEAXAEBQEAX@Z 00000001800269e0 f i NpFactory.obj
 0001:00025b00       ?growAndPushBack@?$Array@PEAXV?$InlineAllocator@$0CAA@V?$ReflectionAllocator@V?$PtrBlock@$0EA@@NpPtrTableStorageManager@physx@@@shdfnd@physx@@@shdfnd@physx@@@shdfnd@physx@@IEAAAEAPEAXAEBQEAX@Z 0000000180026b00 f i NpFactory.obj
 0001:00025c20       ?growAndPushBack@?$Array@PEAXV?$InlineAllocator@$0CAA@V?$ReflectionAllocator@VNpAggregate@physx@@@shdfnd@physx@@@shdfnd@physx@@@shdfnd@physx@@IEAAAEAPEAXAEBQEAX@Z 0000000180026c20 f i NpFactory.obj
 0001:00025d40       ?growAndPushBack@?$Array@PEAXV?$InlineAllocator@$0CAA@V?$ReflectionAllocator@VNpArticulation@physx@@@shdfnd@physx@@@shdfnd@physx@@@shdfnd@physx@@IEAAAEAPEAXAEBQEAX@Z 0000000180026d40 f i NpFactory.obj
 0001:00025e60       ?growAndPushBack@?$Array@PEAXV?$InlineAllocator@$0CAA@V?$ReflectionAllocator@VNpArticulationJoint@physx@@@shdfnd@physx@@@shdfnd@physx@@@shdfnd@physx@@IEAAAEAPEAXAEBQEAX@Z 0000000180026e60 f i NpFactory.obj
 0001:00025f80       ?growAndPushBack@?$Array@PEAXV?$InlineAllocator@$0CAA@V?$ReflectionAllocator@VNpArticulationJointReducedCoordinate@physx@@@shdfnd@physx@@@shdfnd@physx@@@shdfnd@physx@@IEAAAEAPEAXAEBQEAX@Z 0000000180026f80 f i NpFactory.obj
 0001:000260a0       ?growAndPushBack@?$Array@PEAXV?$InlineAllocator@$0CAA@V?$ReflectionAllocator@VNpArticulationLink@physx@@@shdfnd@physx@@@shdfnd@physx@@@shdfnd@physx@@IEAAAEAPEAXAEBQEAX@Z 00000001800270a0 f i NpFactory.obj
 0001:000261c0       ?growAndPushBack@?$Array@PEAXV?$InlineAllocator@$0CAA@V?$ReflectionAllocator@VNpArticulationReducedCoordinate@physx@@@shdfnd@physx@@@shdfnd@physx@@@shdfnd@physx@@IEAAAEAPEAXAEBQEAX@Z 00000001800271c0 f i NpFactory.obj
 0001:000262e0       ?growAndPushBack@?$Array@PEAXV?$InlineAllocator@$0CAA@V?$ReflectionAllocator@VNpConnectorArray@physx@@@shdfnd@physx@@@shdfnd@physx@@@shdfnd@physx@@IEAAAEAPEAXAEBQEAX@Z 00000001800272e0 f i NpFactory.obj
 0001:00026400       ?growAndPushBack@?$Array@PEAXV?$InlineAllocator@$0CAA@V?$ReflectionAllocator@VNpConstraint@physx@@@shdfnd@physx@@@shdfnd@physx@@@shdfnd@physx@@IEAAAEAPEAXAEBQEAX@Z 0000000180027400 f i NpFactory.obj
 0001:00026520       ?growAndPushBack@?$Array@PEAXV?$InlineAllocator@$0CAA@V?$ReflectionAllocator@VNpMaterial@physx@@@shdfnd@physx@@@shdfnd@physx@@@shdfnd@physx@@IEAAAEAPEAXAEBQEAX@Z 0000000180027520 f i NpFactory.obj
 0001:00026640       ?growAndPushBack@?$Array@PEAXV?$InlineAllocator@$0CAA@V?$ReflectionAllocator@VNpRigidDynamic@physx@@@shdfnd@physx@@@shdfnd@physx@@@shdfnd@physx@@IEAAAEAPEAXAEBQEAX@Z 0000000180027640 f i NpFactory.obj
 0001:00026760       ?growAndPushBack@?$Array@PEAXV?$InlineAllocator@$0CAA@V?$ReflectionAllocator@VNpRigidStatic@physx@@@shdfnd@physx@@@shdfnd@physx@@@shdfnd@physx@@IEAAAEAPEAXAEBQEAX@Z 0000000180027760 f i NpFactory.obj
 0001:00026880       ?growAndPushBack@?$Array@PEAXV?$InlineAllocator@$0CAA@V?$ReflectionAllocator@VNpShape@physx@@@shdfnd@physx@@@shdfnd@physx@@@shdfnd@physx@@IEAAAEAPEAXAEBQEAX@Z 0000000180027880 f i NpFactory.obj
 0001:000269a0       ?growAndPushBack@?$Array@PEAXV?$ReflectionAllocator@V?$PtrBlock@$03@NpPtrTableStorageManager@physx@@@shdfnd@physx@@@shdfnd@physx@@IEAAAEAPEAXAEBQEAX@Z 00000001800279a0 f i NpFactory.obj
 0001:00026a80       ?growAndPushBack@?$Array@PEAXV?$ReflectionAllocator@V?$PtrBlock@$0BA@@NpPtrTableStorageManager@physx@@@shdfnd@physx@@@shdfnd@physx@@IEAAAEAPEAXAEBQEAX@Z 0000000180027a80 f i NpFactory.obj
 0001:00026b60       ?growAndPushBack@?$Array@PEAXV?$ReflectionAllocator@V?$PtrBlock@$0EA@@NpPtrTableStorageManager@physx@@@shdfnd@physx@@@shdfnd@physx@@IEAAAEAPEAXAEBQEAX@Z 0000000180027b60 f i NpFactory.obj
 0001:00026c40       ?growAndPushBack@?$Array@PEAXV?$ReflectionAllocator@VNpAggregate@physx@@@shdfnd@physx@@@shdfnd@physx@@IEAAAEAPEAXAEBQEAX@Z 0000000180027c40 f i NpFactory.obj
 0001:00026d20       ?growAndPushBack@?$Array@PEAXV?$ReflectionAllocator@VNpArticulation@physx@@@shdfnd@physx@@@shdfnd@physx@@IEAAAEAPEAXAEBQEAX@Z 0000000180027d20 f i NpFactory.obj
 0001:00026e00       ?growAndPushBack@?$Array@PEAXV?$ReflectionAllocator@VNpArticulationJoint@physx@@@shdfnd@physx@@@shdfnd@physx@@IEAAAEAPEAXAEBQEAX@Z 0000000180027e00 f i NpFactory.obj
 0001:00026ee0       ?growAndPushBack@?$Array@PEAXV?$ReflectionAllocator@VNpArticulationJointReducedCoordinate@physx@@@shdfnd@physx@@@shdfnd@physx@@IEAAAEAPEAXAEBQEAX@Z 0000000180027ee0 f i NpFactory.obj
 0001:00026fc0       ?growAndPushBack@?$Array@PEAXV?$ReflectionAllocator@VNpArticulationLink@physx@@@shdfnd@physx@@@shdfnd@physx@@IEAAAEAPEAXAEBQEAX@Z 0000000180027fc0 f i NpFactory.obj
 0001:000270a0       ?growAndPushBack@?$Array@PEAXV?$ReflectionAllocator@VNpArticulationReducedCoordinate@physx@@@shdfnd@physx@@@shdfnd@physx@@IEAAAEAPEAXAEBQEAX@Z 00000001800280a0 f i NpFactory.obj
 0001:00027180       ?growAndPushBack@?$Array@PEAXV?$ReflectionAllocator@VNpConnectorArray@physx@@@shdfnd@physx@@@shdfnd@physx@@IEAAAEAPEAXAEBQEAX@Z 0000000180028180 f i NpFactory.obj
 0001:00027260       ?growAndPushBack@?$Array@PEAXV?$ReflectionAllocator@VNpConstraint@physx@@@shdfnd@physx@@@shdfnd@physx@@IEAAAEAPEAXAEBQEAX@Z 0000000180028260 f i NpFactory.obj
 0001:00027340       ?growAndPushBack@?$Array@PEAXV?$ReflectionAllocator@VNpMaterial@physx@@@shdfnd@physx@@@shdfnd@physx@@IEAAAEAPEAXAEBQEAX@Z 0000000180028340 f i NpFactory.obj
 0001:00027420       ?growAndPushBack@?$Array@PEAXV?$ReflectionAllocator@VNpRigidDynamic@physx@@@shdfnd@physx@@@shdfnd@physx@@IEAAAEAPEAXAEBQEAX@Z 0000000180028420 f i NpFactory.obj
 0001:00027500       ?growAndPushBack@?$Array@PEAXV?$ReflectionAllocator@VNpRigidStatic@physx@@@shdfnd@physx@@@shdfnd@physx@@IEAAAEAPEAXAEBQEAX@Z 0000000180028500 f i NpFactory.obj
 0001:000275e0       ?growAndPushBack@?$Array@PEAXV?$ReflectionAllocator@VNpShape@physx@@@shdfnd@physx@@@shdfnd@physx@@IEAAAEAPEAXAEBQEAX@Z 00000001800285e0 f i NpFactory.obj
 0001:000276c0       ?onActorRelease@NpFactory@physx@@QEAAXPEAVPxActor@2@@Z 00000001800286c0 f   NpFactory.obj
 0001:000277e0       ?onAggregateRelease@NpFactory@physx@@QEAAXPEAVPxAggregate@2@@Z 00000001800287e0 f   NpFactory.obj
 0001:00027900       ?onArticulationRelease@NpFactory@physx@@QEAAXPEAVPxArticulationBase@2@@Z 0000000180028900 f   NpFactory.obj
 0001:00027a20       ?onConstraintRelease@NpFactory@physx@@QEAAXPEAVPxConstraint@2@@Z 0000000180028a20 f   NpFactory.obj
 0001:00027b40       ?onShapeRelease@NpFactory@physx@@QEAAXPEAVPxShape@2@@Z 0000000180028b40 f   NpFactory.obj
 0001:00027b80       ?recreate@?$Array@GV?$InlineAllocator@$07V?$ReflectionAllocator@G@shdfnd@physx@@@shdfnd@physx@@@shdfnd@physx@@IEAAXI@Z 0000000180028b80 f i NpFactory.obj
 0001:00027c40       ?recreate@?$Array@PEAVPxActor@physx@@V?$ReflectionAllocator@PEAVPxActor@physx@@@shdfnd@2@@shdfnd@physx@@IEAAXI@Z 0000000180028c40 f i NpFactory.obj
 0001:00027ce0       ?recreate@?$Array@PEAVPxAggregate@physx@@V?$ReflectionAllocator@PEAVPxAggregate@physx@@@shdfnd@2@@shdfnd@physx@@IEAAXI@Z 0000000180028ce0 f i NpFactory.obj
 0001:00027d80       ?recreate@?$Array@PEAVPxArticulationBase@physx@@V?$ReflectionAllocator@PEAVPxArticulationBase@physx@@@shdfnd@2@@shdfnd@physx@@IEAAXI@Z 0000000180028d80 f i NpFactory.obj
 0001:00027e20       ?recreate@?$Array@PEAVPxConstraint@physx@@V?$ReflectionAllocator@PEAVPxConstraint@physx@@@shdfnd@2@@shdfnd@physx@@IEAAXI@Z 0000000180028e20 f i NpFactory.obj
 0001:00027ec0       ?registerArticulationRCs@NpFactory@physx@@SAXXZ 0000000180028ec0 f   NpFactory.obj
 0001:00027ee0       ?registerArticulations@NpFactory@physx@@SAXXZ 0000000180028ee0 f   NpFactory.obj
 0001:00027f00       ?releaseArticulationJointRCToPool@NpFactory@physx@@QEAAXAEAVNpArticulationJointReducedCoordinate@2@@Z 0000000180028f00 f   NpFactory.obj
 0001:00027f60       ?releaseArticulationJointToPool@NpFactory@physx@@QEAAXAEAVNpArticulationJoint@2@@Z 0000000180028f60 f   NpFactory.obj
 0001:00027fc0       ?releaseConnectorArray@NpFactory@physx@@QEAAXPEAVNpConnectorArray@2@@Z 0000000180028fc0 f   NpFactory.obj
 0001:00028050       ?releaseMaterialToPool@NpFactory@physx@@QEAAXAEAVNpMaterial@2@@Z 0000000180029050 f   NpFactory.obj
 0001:000280b0       ?reserveInternal@?$HashBase@PEAVPxAggregate@physx@@PEAV12@U?$Hash@PEAVPxAggregate@physx@@@shdfnd@2@UGetKey@?$HashSetBase@PEAVPxAggregate@physx@@U?$Hash@PEAVPxAggregate@physx@@@shdfnd@2@VNonTrackingAllocator@42@$0A@@internal@42@VNonTrackingAllocator@42@$0A@@internal@shdfnd@physx@@AEAAXI@Z 00000001800290b0 f i NpFactory.obj
 0001:000280b0       ?reserveInternal@?$HashBase@PEAVPxActor@physx@@PEAV12@U?$Hash@PEAVPxActor@physx@@@shdfnd@2@UGetKey@?$HashSetBase@PEAVPxActor@physx@@U?$Hash@PEAVPxActor@physx@@@shdfnd@2@VNonTrackingAllocator@42@$0A@@internal@42@VNonTrackingAllocator@42@$0A@@internal@shdfnd@physx@@AEAAXI@Z 00000001800290b0 f i NpFactory.obj
 0001:000280b0       ?reserveInternal@?$HashBase@PEBVPxBase@physx@@PEBV12@U?$Hash@PEBVPxBase@physx@@@shdfnd@2@UGetKey@?$HashSetBase@PEBVPxBase@physx@@U?$Hash@PEBVPxBase@physx@@@shdfnd@2@VNonTrackingAllocator@42@$0A@@internal@42@VNonTrackingAllocator@42@$0A@@internal@shdfnd@physx@@AEAAXI@Z 00000001800290b0 f i NpPhysics.obj
 0001:000280b0       ?reserveInternal@?$HashBase@PEAVPxArticulationBase@physx@@PEAV12@U?$Hash@PEAVPxArticulationBase@physx@@@shdfnd@2@UGetKey@?$HashSetBase@PEAVPxArticulationBase@physx@@U?$Hash@PEAVPxArticulationBase@physx@@@shdfnd@2@VNonTrackingAllocator@42@$0A@@internal@42@VNonTrackingAllocator@42@$0A@@internal@shdfnd@physx@@AEAAXI@Z 00000001800290b0 f i NpFactory.obj
 0001:000280b0       ?reserveInternal@?$HashBase@PEAVPxConstraint@physx@@PEAV12@U?$Hash@PEAVPxConstraint@physx@@@shdfnd@2@UGetKey@?$HashSetBase@PEAVPxConstraint@physx@@U?$Hash@PEAVPxConstraint@physx@@@shdfnd@2@VNonTrackingAllocator@42@$0A@@internal@42@VNonTrackingAllocator@42@$0A@@internal@shdfnd@physx@@AEAAXI@Z 00000001800290b0 f i NpFactory.obj
 0001:000284a0       ?resize@?$Array@GV?$InlineAllocator@$07V?$ReflectionAllocator@G@shdfnd@physx@@@shdfnd@physx@@@shdfnd@physx@@QEAAXIAEBG@Z 00000001800294a0 f i NpFactory.obj
 0001:00028560       ??0NpMaterial@physx@@QEAA@AEBVMaterialCore@Sc@1@@Z 0000000180029560 f   NpMaterial.obj
 0001:000285e8       ??_ENpMaterial@physx@@WBI@EAAPEAXI@Z 00000001800295e8 f i NpMaterial.obj
 0001:00028600       ??_GNpMaterial@physx@@UEAAPEAXI@Z 0000000180029600 f i NpMaterial.obj
 0001:00028600       ??_ENpMaterial@physx@@UEAAPEAXI@Z 0000000180029600 f i NpMaterial.obj
 0001:00028690       ??_GRefCountable@Cm@physx@@UEAAPEAXI@Z 0000000180029690 f i NpMaterial.obj
 0001:00028690       ??_ERefCountable@Cm@physx@@UEAAPEAXI@Z 0000000180029690 f i NpMaterial.obj
 0001:000286c0       ?acquireReference@NpShape@physx@@UEAAXXZ 00000001800296c0 f   NpShape.obj
 0001:000286c0       ?acquireReference@NpMaterial@physx@@UEAAXXZ 00000001800296c0 f   NpMaterial.obj
 0001:000286d0       ?createObject@NpMaterial@physx@@SAPEAV12@AEAPEAEAEAVPxDeserializationContext@2@@Z 00000001800296d0 f   NpMaterial.obj
 0001:00028760       ?getConcreteTypeName@PxMaterial@physx@@UEBAPEBDXZ 0000000180029760 f i NpMaterial.obj
 0001:00028770       ?getDynamicFriction@NpMaterial@physx@@UEBAMXZ 0000000180029770 f   NpMaterial.obj
 0001:00028780       ?getFlags@NpMaterial@physx@@UEBA?AV?$PxFlags@W4Enum@PxMaterialFlag@physx@@G@2@XZ 0000000180029780 f   NpMaterial.obj
 0001:00028790       ?getFrictionCombineMode@NpMaterial@physx@@UEBA?AW4Enum@PxCombineMode@2@XZ 0000000180029790 f   NpMaterial.obj
 0001:000287a0       ?getReference@PxLightCpuTask@physx@@UEBAHXZ 00000001800297a0 f   NpScene.obj
 0001:000287a0       ?getReferenceCount@NpShape@physx@@UEBAIXZ 00000001800297a0 f   NpShape.obj
 0001:000287a0       ?getNbLines@RenderBuffer@Cm@physx@@UEBAIXZ 00000001800297a0 f   NpScene.obj
 0001:000287a0       ?getReferenceCount@NpMaterial@physx@@UEBAIXZ 00000001800297a0 f   NpMaterial.obj
 0001:000287b0       ?getRestitution@NpMaterial@physx@@UEBAMXZ 00000001800297b0 f   NpMaterial.obj
 0001:000287c0       ?getRestitutionCombineMode@NpMaterial@physx@@UEBA?AW4Enum@PxCombineMode@2@XZ 00000001800297c0 f   NpMaterial.obj
 0001:000287d0       ?getStaticFriction@NpMaterial@physx@@UEBAMXZ 00000001800297d0 f   NpMaterial.obj
 0001:000287e0       ?isKindOf@PxMaterial@physx@@MEBA_NPEBD@Z 00000001800297e0 f i NpMaterial.obj
 0001:00028830       ?onRefCountZero@NpMaterial@physx@@UEAAXXZ 0000000180029830 f   NpMaterial.obj
 0001:00028890       ?destroy@BroadPhaseMBP@Bp@physx@@UEAAXXZ 0000000180029890 f i LowLevelAABB_static_64:BpBroadPhaseMBP.obj
 0001:00028890       ?onRefCountZero@RefCountable@Cm@physx@@UEAAXXZ 0000000180029890 f i NpMaterial.obj
 0001:00028890       ?destroy@BroadPhaseABP@Bp@physx@@UEAAXXZ 0000000180029890 f i LowLevelAABB_static_64:BpBroadPhaseABP.obj
 0001:000288b0       ?release@NpMaterial@physx@@UEAAXXZ 00000001800298b0 f   NpMaterial.obj
 0001:000288b0       ?release@NpShape@physx@@UEAAXXZ 00000001800298b0 f   NpShape.obj
 0001:000288b0       ?releaseInternal@NpShape@physx@@QEAAXXZ 00000001800298b0 f   NpShape.obj
 0001:000288e0       ?resolveReferences@NpMaterial@physx@@UEAAXAEAVPxDeserializationContext@2@@Z 00000001800298e0 f   NpMaterial.obj
 0001:00028900       ?setDynamicFriction@NpMaterial@physx@@UEAAXM@Z 0000000180029900 f   NpMaterial.obj
 0001:00028920       ?setFlag@NpMaterial@physx@@UEAAXW4Enum@PxMaterialFlag@2@_N@Z 0000000180029920 f   NpMaterial.obj
 0001:00028950       ?setFlags@NpMaterial@physx@@UEAAXV?$PxFlags@W4Enum@PxMaterialFlag@physx@@G@2@@Z 0000000180029950 f   NpMaterial.obj
 0001:00028970       ?setFrictionCombineMode@NpMaterial@physx@@UEAAXW4Enum@PxCombineMode@2@@Z 0000000180029970 f   NpMaterial.obj
 0001:00028990       ?setRestitution@NpMaterial@physx@@UEAAXM@Z 0000000180029990 f   NpMaterial.obj
 0001:00028a20       ?setRestitutionCombineMode@NpMaterial@physx@@UEAAXW4Enum@PxCombineMode@2@@Z 0000000180029a20 f   NpMaterial.obj
 0001:00028a40       ?setStaticFriction@NpMaterial@physx@@UEAAXM@Z 0000000180029a40 f   NpMaterial.obj
 0001:00028a60       ?getBinaryMetaData@NpArticulationLink@physx@@SAXAEAVPxOutputStream@2@@Z 0000000180029a60 f   NpMetaData.obj
 0001:00028e40       ?getBinaryMetaData@NpArticulationLinkArray@physx@@SAXAEAVPxOutputStream@2@@Z 0000000180029e40 f   NpMetaData.obj
 0001:00029070       ?getBinaryMetaData@NpArticulationReducedCoordinate@physx@@SAXAEAVPxOutputStream@2@@Z 000000018002a070 f   NpMetaData.obj
 0001:000292d0       ?getBinaryMetaData@NpConnectorArray@physx@@SAXAEAVPxOutputStream@2@@Z 000000018002a2d0 f   NpMetaData.obj
 0001:00029500       ?getBinaryMetaData@NpRigidDynamic@physx@@SAXAEAVPxOutputStream@2@@Z 000000018002a500 f   NpMetaData.obj
 0001:00029750       ?getBinaryMetaData@NpRigidStatic@physx@@SAXAEAVPxOutputStream@2@@Z 000000018002a750 f   NpMetaData.obj
 0001:000299a0       ?getBinaryMetaData@NpShape@physx@@SAXAEAVPxOutputStream@2@@Z 000000018002a9a0 f   NpMetaData.obj
 0001:0002a990       PxGetPhysicsBinaryMetaData 000000018002b990 f   NpMetaData.obj
 0001:0002b770       ??0NpPhysics@physx@@AEAA@AEBVPxTolerancesScale@1@AEBUPxvOffsetTable@1@_NPEAVPsPvd@pvdsdk@1@@Z 000000018002c770 f   NpPhysics.obj
 0001:0002b9d0       ??1NpPhysics@physx@@EEAA@XZ 000000018002c9d0 f   NpPhysics.obj
 0001:0002bce0       ??_GGuMeshFactoryListener@physx@@MEAAPEAXI@Z 000000018002cce0 f i NpPhysics.obj
 0001:0002bce0       ??_EMeshDeletionListener@NpPhysics@physx@@UEAAPEAXI@Z 000000018002cce0 f i NpPhysics.obj
 0001:0002bce0       ??_EPxProcessPxBaseCallback@physx@@UEAAPEAXI@Z 000000018002cce0 f i NpSerializerAdapter.obj
 0001:0002bce0       ??_GMeshDeletionListener@NpPhysics@physx@@UEAAPEAXI@Z 000000018002cce0 f i NpPhysics.obj
 0001:0002bce0       ??_EGuMeshFactoryListener@physx@@MEAAPEAXI@Z 000000018002cce0 f i NpPhysics.obj
 0001:0002bce0       ??_GPxProcessPxBaseCallback@physx@@UEAAPEAXI@Z 000000018002cce0 f i NpSerializerAdapter.obj
 0001:0002bd10       ??_ENpPhysics@physx@@EEAAPEAXI@Z 000000018002cd10 f i NpPhysics.obj
 0001:0002bd10       ??_GNpPhysics@physx@@EEAAPEAXI@Z 000000018002cd10 f i NpPhysics.obj
 0001:0002bd70       ??_GSqRefFinder@Sc@physx@@UEAAPEAXI@Z 000000018002cd70 f i NpScene.obj
 0001:0002bd70       ??_ESqBoundsSync@Sc@physx@@UEAAPEAXI@Z 000000018002cd70 f i SceneQuery_static_64:SqSceneQueryManager.obj
 0001:0002bd70       ??_GNpPhysicsInsertionCallback@physx@@UEAAPEAXI@Z 000000018002cd70 f i NpPhysics.obj
 0001:0002bd70       ??_EPrunerCallback@Sq@physx@@UEAAPEAXI@Z 000000018002cd70 f i NpSceneQueries.obj
 0001:0002bd70       ??_ESqRefFinder@@UEAAPEAXI@Z 000000018002cd70 f i NpScene.obj
 0001:0002bd70       ??_GSqBoundsSync@Sc@physx@@UEAAPEAXI@Z 000000018002cd70 f i SceneQuery_static_64:SqSceneQueryManager.obj
 0001:0002bd70       ??_ESqRefFinder@Sc@physx@@UEAAPEAXI@Z 000000018002cd70 f i NpScene.obj
 0001:0002bd70       ??_GPxPhysicsInsertionCallback@physx@@MEAAPEAXI@Z 000000018002cd70 f i NpPhysics.obj
 0001:0002bd70       ??_ENpPhysicsInsertionCallback@physx@@UEAAPEAXI@Z 000000018002cd70 f i NpPhysics.obj
 0001:0002bd70       ??_GPrunerCallback@Sq@physx@@UEAAPEAXI@Z 000000018002cd70 f i NpSceneQueries.obj
 0001:0002bd70       ??_GSqRefFinder@@UEAAPEAXI@Z 000000018002cd70 f i NpScene.obj
 0001:0002bd70       ??_EPxPhysicsInsertionCallback@physx@@MEAAPEAXI@Z 000000018002cd70 f i NpPhysics.obj
 0001:0002bda0       ??_GPxPhysics@physx@@UEAAPEAXI@Z 000000018002cda0 f i NpPhysics.obj
 0001:0002bda0       ??_EPxPhysics@physx@@UEAAPEAXI@Z 000000018002cda0 f i NpPhysics.obj
 0001:0002bdd0       ?addMaterial@NpPhysics@physx@@QEAAPEAVNpMaterial@2@PEAV32@@Z 000000018002cdd0 f   NpPhysics.obj
 0001:0002bfa0       ?allocate@?$ReflectionAllocator@I@shdfnd@physx@@QEAAPEAX_KPEBDH@Z 000000018002cfa0 f i NpPhysics.obj
 0001:0002c040       ?buildObjectFromData@NpPhysicsInsertionCallback@physx@@UEAAPEAVPxBase@2@W4Enum@PxConcreteType@2@PEAX@Z 000000018002d040 f i NpPhysics.obj
 0001:0002c0e0       ?create@?$HashBase@V?$Pair@QEAVPxDeletionListener@physx@@PEAUNpDelListenerEntry@NpPhysics@2@@shdfnd@physx@@PEAVPxDeletionListener@3@U?$Hash@PEAVPxDeletionListener@physx@@@23@UGetKey@?$HashMapBase@PEAVPxDeletionListener@physx@@PEAUNpDelListenerEntry@NpPhysics@2@U?$Hash@PEAVPxDeletionListener@physx@@@shdfnd@2@VNonTrackingAllocator@62@@internal@23@VNonTrackingAllocator@23@$00@internal@shdfnd@physx@@QEAAPEAV?$Pair@QEAVPxDeletionListener@physx@@PEAUNpDelListenerEntry@NpPhysics@2@@34@AEBQEAVPxDeletionListener@4@AEA_N@Z 000000018002d0e0 f i NpPhysics.obj
 0001:0002c280       ?createAggregate@NpPhysics@physx@@UEAAPEAVPxAggregate@2@I_N@Z 000000018002d280 f   NpPhysics.obj
 0001:0002c290       ?createArticulation@NpPhysics@physx@@UEAAPEAVPxArticulation@2@XZ 000000018002d290 f   NpPhysics.obj
 0001:0002c2a0       ?createArticulationReducedCoordinate@NpPhysics@physx@@UEAAPEAVPxArticulationReducedCoordinate@2@XZ 000000018002d2a0 f   NpPhysics.obj
 0001:0002c2b0       ?createBVHStructure@NpPhysics@physx@@UEAAPEAVPxBVHStructure@2@AEAVPxInputStream@2@@Z 000000018002d2b0 f   NpPhysics.obj
 0001:0002c2c0       ?createConstraint@NpPhysics@physx@@UEAAPEAVPxConstraint@2@PEAVPxRigidActor@2@0AEAVPxConstraintConnector@2@AEBUPxConstraintShaderTable@2@I@Z 000000018002d2c0 f   NpPhysics.obj
 0001:0002c2d0       ?createConvexMesh@NpPhysics@physx@@UEAAPEAVPxConvexMesh@2@AEAVPxInputStream@2@@Z 000000018002d2d0 f   NpPhysics.obj
 0001:0002c2e0       ?createHeightField@NpPhysics@physx@@UEAAPEAVPxHeightField@2@AEAVPxInputStream@2@@Z 000000018002d2e0 f   NpPhysics.obj
 0001:0002c2f0       ?createInstance@NpPhysics@physx@@SAPEAV12@IAEAVPxFoundation@2@AEBVPxTolerancesScale@2@_NPEAVPsPvd@pvdsdk@2@@Z 000000018002d2f0 f   NpPhysics.obj
 0001:0002c510       ?createMaterial@NpPhysics@physx@@UEAAPEAVPxMaterial@2@MMM@Z 000000018002d510 f   NpPhysics.obj
 0001:0002c540       ?createPruningStructure@NpPhysics@physx@@UEAAPEAVPxPruningStructure@2@PEBQEAVPxRigidActor@2@I@Z 000000018002d540 f   NpPhysics.obj
 0001:0002c630       ?createRigidDynamic@NpPhysics@physx@@UEAAPEAVPxRigidDynamic@2@AEBVPxTransform@2@@Z 000000018002d630 f   NpPhysics.obj
 0001:0002c6f0       ?createRigidStatic@NpPhysics@physx@@UEAAPEAVPxRigidStatic@2@AEBVPxTransform@2@@Z 000000018002d6f0 f   NpPhysics.obj
 0001:0002c7b0       ?createScene@NpPhysics@physx@@UEAAPEAVPxScene@2@AEBVPxSceneDesc@2@@Z 000000018002d7b0 f   NpPhysics.obj
 0001:0002c970       ?createShape@NpPhysics@physx@@UEAAPEAVPxShape@2@AEBVPxGeometry@2@PEBQEAVPxMaterial@2@G_NV?$PxFlags@W4Enum@PxShapeFlag@physx@@E@2@@Z 000000018002d970 f   NpPhysics.obj
 0001:0002c9b0       ?createTriangleMesh@NpPhysics@physx@@UEAAPEAVPxTriangleMesh@2@AEAVPxInputStream@2@@Z 000000018002d9b0 f   NpPhysics.obj
 0001:0002c9c0       ?erase@?$HashBase@V?$Pair@QEAVPxDeletionListener@physx@@PEAUNpDelListenerEntry@NpPhysics@2@@shdfnd@physx@@PEAVPxDeletionListener@3@U?$Hash@PEAVPxDeletionListener@physx@@@23@UGetKey@?$HashMapBase@PEAVPxDeletionListener@physx@@PEAUNpDelListenerEntry@NpPhysics@2@U?$Hash@PEAVPxDeletionListener@physx@@@shdfnd@2@VNonTrackingAllocator@62@@internal@23@VNonTrackingAllocator@23@$00@internal@shdfnd@physx@@QEAA_NAEBQEAVPxDeletionListener@4@@Z 000000018002d9c0 f i NpPhysics.obj
 0001:0002cb60       ?getBVHStructures@NpPhysics@physx@@UEBAIPEAPEAVPxBVHStructure@2@II@Z 000000018002db60 f   NpPhysics.obj
 0001:0002cb70       ?getConvexMeshes@NpPhysics@physx@@UEBAIPEAPEAVPxConvexMesh@2@II@Z 000000018002db70 f   NpPhysics.obj
 0001:0002cb80       ?getFoundation@NpPhysics@physx@@UEAAAEAVPxFoundation@2@XZ 000000018002db80 f   NpPhysics.obj
 0001:0002cb90       ?getHeightFields@NpPhysics@physx@@UEBAIPEAPEAVPxHeightField@2@II@Z 000000018002db90 f   NpPhysics.obj
 0001:0002cba0       ?getMaterials@NpPhysics@physx@@UEBAIPEAPEAVPxMaterial@2@II@Z 000000018002dba0 f   NpPhysics.obj
 0001:0002cc60       ?getNbBVHStructures@NpPhysics@physx@@UEBAIXZ 000000018002dc60 f   NpPhysics.obj
 0001:0002cc70       ?getNbConvexMeshes@NpPhysics@physx@@UEBAIXZ 000000018002dc70 f   NpPhysics.obj
 0001:0002cc80       ?getNbHeightFields@NpPhysics@physx@@UEBAIXZ 000000018002dc80 f   NpPhysics.obj
 0001:0002cc90       ?getNbMaterials@NpPhysics@physx@@UEBAIXZ 000000018002dc90 f   NpPhysics.obj
 0001:0002ccd0       ?getNbScenes@NpPhysics@physx@@UEBAIXZ 000000018002dcd0 f   NpPhysics.obj
 0001:0002cd10       ?getNbShapes@NpPhysics@physx@@UEBAIXZ 000000018002dd10 f   NpPhysics.obj
 0001:0002cd20       ?getNbTriangleMeshes@NpPhysics@physx@@UEBAIXZ 000000018002dd20 f   NpPhysics.obj
 0001:0002cd30       ?getPhysicsInsertionCallback@NpPhysics@physx@@UEAAAEAVPxPhysicsInsertionCallback@2@XZ 000000018002dd30 f i NpPhysics.obj
 0001:0002cd40       ?getScenes@NpPhysics@physx@@UEBAIPEAPEAVPxScene@2@II@Z 000000018002dd40 f   NpPhysics.obj
 0001:0002cdd0       ?getShapes@NpPhysics@physx@@UEBAIPEAPEAVPxShape@2@II@Z 000000018002ddd0 f   NpPhysics.obj
 0001:0002cde0       ?getTriangleMeshes@NpPhysics@physx@@UEBAIPEAPEAVPxTriangleMesh@2@II@Z 000000018002dde0 f   NpPhysics.obj
 0001:0002cdf0       ?growAndPushBack@?$Array@IV?$ReflectionAllocator@I@shdfnd@physx@@@shdfnd@physx@@IEAAAEAIAEBI@Z 000000018002ddf0 f i NpPhysics.obj
 0001:0002cec0       ?growAndPushBack@?$Array@PEAVNpScene@physx@@V?$ReflectionAllocator@PEAVNpScene@physx@@@shdfnd@2@@shdfnd@physx@@IEAAAEAPEAVNpScene@3@AEBQEAV43@@Z 000000018002dec0 f i NpPhysics.obj
 0001:0002cfe0       ?notifyDeletionListeners@NpPhysics@physx@@QEAAXPEBVPxBase@2@PEAXW4Enum@PxDeletionEventFlag@2@@Z 000000018002dfe0 f   NpPhysics.obj
 0001:0002d120       ?onGuMeshFactoryBufferRelease@MeshDeletionListener@NpPhysics@physx@@UEAAXPEBVPxBase@3@G@Z 000000018002e120 f i NpPhysics.obj
 0001:0002d140       ?registerDeletionListener@NpPhysics@physx@@UEAAXAEAVPxDeletionListener@2@AEBV?$PxFlags@W4Enum@PxDeletionEventFlag@physx@@E@2@_N@Z 000000018002e140 f   NpPhysics.obj
 0001:0002d320       ?registerDeletionListenerObjects@NpPhysics@physx@@UEAAXAEAVPxDeletionListener@2@PEBQEBVPxBase@2@I@Z 000000018002e320 f   NpPhysics.obj
 0001:0002d460       ?release@NpPhysics@physx@@UEAAXXZ 000000018002e460 f   NpPhysics.obj
 0001:0002d4b0       ?releaseSceneInternal@NpPhysics@physx@@QEAAXAEAVPxScene@2@@Z 000000018002e4b0 f   NpPhysics.obj
 0001:0002d530       ?removeMaterialFromTable@NpPhysics@physx@@QEAAXAEAVNpMaterial@2@@Z 000000018002e530 f   NpPhysics.obj
 0001:0002d5f0       ?reserveInternal@?$HashBase@V?$Pair@QEAVPxDeletionListener@physx@@PEAUNpDelListenerEntry@NpPhysics@2@@shdfnd@physx@@PEAVPxDeletionListener@3@U?$Hash@PEAVPxDeletionListener@physx@@@23@UGetKey@?$HashMapBase@PEAVPxDeletionListener@physx@@PEAUNpDelListenerEntry@NpPhysics@2@U?$Hash@PEAVPxDeletionListener@physx@@@shdfnd@2@VNonTrackingAllocator@62@@internal@23@VNonTrackingAllocator@23@$00@internal@shdfnd@physx@@AEAAXI@Z 000000018002e5f0 f i NpPhysics.obj
 0001:0002d7d0       ?unregisterDeletionListener@NpPhysics@physx@@UEAAXAEAVPxDeletionListener@2@@Z 000000018002e7d0 f   NpPhysics.obj
 0001:0002d900       ?unregisterDeletionListenerObjects@NpPhysics@physx@@UEAAXAEAVPxDeletionListener@2@PEBQEBVPxBase@2@I@Z 000000018002e900 f   NpPhysics.obj
 0001:0002db00       ?updateMaterial@NpPhysics@physx@@QEAAXAEAVNpMaterial@2@@Z 000000018002eb00 f   NpPhysics.obj
 0001:0002db70       PxAddCollectionToPhysics   000000018002eb70 f   NpPhysics.obj
 0001:0002db80       PxCreateBasePhysics        000000018002eb80 f   NpPhysics.obj
 0001:0002db90       PxGetPhysics               000000018002eb90 f   NpPhysics.obj
 0001:0002db90       ?getPhysics@NpScene@physx@@UEAAAEAVPxPhysics@2@XZ 000000018002eb90 f   NpScene.obj
 0001:0002dba0       PxRegisterArticulations    000000018002eba0 f   NpPhysics.obj
 0001:0002dbc0       PxRegisterArticulationsReducedCoordinate 000000018002ebc0 f   NpPhysics.obj
 0001:0002dbe0       PxRegisterHeightFields     000000018002ebe0 f   NpPhysics.obj
 0001:0002dc00       ??0NpRigidDynamic@physx@@QEAA@AEBVPxTransform@1@@Z 000000018002ec00 f   NpRigidDynamic.obj
 0001:0002dd60       ??_G?$NpActorTemplate@VPxRigidDynamic@physx@@@physx@@UEAAPEAXI@Z 000000018002ed60 f i NpRigidDynamic.obj
 0001:0002dd60       ??_E?$NpActorTemplate@VPxRigidDynamic@physx@@@physx@@UEAAPEAXI@Z 000000018002ed60 f i NpRigidDynamic.obj
 0001:0002dde0       ??_G?$NpRigidActorTemplate@VPxRigidDynamic@physx@@@physx@@UEAAPEAXI@Z 000000018002ede0 f i NpRigidDynamic.obj
 0001:0002dde0       ??_E?$NpRigidActorTemplate@VPxRigidDynamic@physx@@@physx@@UEAAPEAXI@Z 000000018002ede0 f i NpRigidDynamic.obj
 0001:0002de70       ??_GNpRigidDynamic@physx@@UEAAPEAXI@Z 000000018002ee70 f i NpRigidDynamic.obj
 0001:0002de70       ??_E?$NpRigidBodyTemplate@VPxRigidDynamic@physx@@@physx@@UEAAPEAXI@Z 000000018002ee70 f i NpRigidDynamic.obj
 0001:0002de70       ??_G?$NpRigidBodyTemplate@VPxRigidDynamic@physx@@@physx@@UEAAPEAXI@Z 000000018002ee70 f i NpRigidDynamic.obj
 0001:0002de70       ??_ENpRigidDynamic@physx@@UEAAPEAXI@Z 000000018002ee70 f i NpRigidDynamic.obj
 0001:0002df20       ?NpRigidDynamicGetShapes@physx@@YAIAEAVBody@Scb@1@AEAPEBQEAXPEA_N@Z 000000018002ef20 f   NpRigidDynamic.obj
 0001:0002df70       ?addForce@NpRigidDynamic@physx@@UEAAXAEBVPxVec3@2@W4Enum@PxForceMode@2@_N@Z 000000018002ef70 f   NpRigidDynamic.obj
 0001:0002dfe0       ?addTorque@NpRigidDynamic@physx@@UEAAXAEBVPxVec3@2@W4Enum@PxForceMode@2@_N@Z 000000018002efe0 f   NpRigidDynamic.obj
 0001:0002e050       ?clearForce@NpRigidDynamic@physx@@UEAAXW4Enum@PxForceMode@2@@Z 000000018002f050 f   NpRigidDynamic.obj
 0001:0002e060       ?clearTorque@NpRigidDynamic@physx@@UEAAXW4Enum@PxForceMode@2@@Z 000000018002f060 f   NpRigidDynamic.obj
 0001:0002e070       ?createObject@NpRigidDynamic@physx@@SAPEAV12@AEAPEAEAEAVPxDeserializationContext@2@@Z 000000018002f070 f   NpRigidDynamic.obj
 0001:0002e180       ?getConcreteTypeName@PxRigidDynamic@physx@@UEBAPEBDXZ 000000018002f180 f i NpRigidDynamic.obj
 0001:0002e190       ?getContactReportThreshold@NpRigidDynamic@physx@@UEBAMXZ 000000018002f190 f   NpRigidDynamic.obj
 0001:0002e1c0       ?getGlobalPose@NpRigidDynamic@physx@@UEBA?AVPxTransform@2@XZ 000000018002f1c0 f i NpRigidDynamic.obj
 0001:0002e4d0       ?getKinematicTarget@NpRigidDynamic@physx@@UEBA_NAEAVPxTransform@2@@Z 000000018002f4d0 f   NpRigidDynamic.obj
 0001:0002e970       ?getRigidDynamicLockFlags@NpRigidDynamic@physx@@UEBA?AV?$PxFlags@W4Enum@PxRigidDynamicLockFlag@physx@@E@2@XZ 000000018002f970 f   NpRigidDynamic.obj
 0001:0002e9a0       ?getSleepThreshold@NpRigidDynamic@physx@@UEBAMXZ 000000018002f9a0 f   NpRigidDynamic.obj
 0001:0002e9c0       ?getSolverIterationCounts@NpRigidDynamic@physx@@UEBAXAEAI0@Z 000000018002f9c0 f   NpRigidDynamic.obj
 0001:0002ea00       ?getStabilizationThreshold@NpRigidDynamic@physx@@UEBAMXZ 000000018002fa00 f   NpRigidDynamic.obj
 0001:0002ea30       DllMain                    000000018002fa30 f i LIBCMT:dll_dllmain_stub.obj
 0001:0002ea30       _get_startup_argv_mode     000000018002fa30 f i LIBCMT:argv_mode.obj
 0001:0002ea30       ?length@charNode@@UEBAHXZ  000000018002fa30 f i libvcruntime:undname.obj
 0001:0002ea30       ?getType@BroadPhaseMBP@Bp@physx@@UEBA?AW4Enum@PxBroadPhaseType@3@XZ 000000018002fa30 f i LowLevelAABB_static_64:BpBroadPhaseMBP.obj
 0001:0002ea30       ?raw_length@charNode@@UEBAHXZ 000000018002fa30 f i libvcruntime:undname.obj
 0001:0002ea30       ?getType@NpRigidDynamic@physx@@UEBA?AW4Enum@PxActorType@2@XZ 000000018002fa30 f i NpRigidDynamic.obj
 0001:0002ea40       ?getWakeCounter@NpRigidDynamic@physx@@UEBAMXZ 000000018002fa40 f   NpRigidDynamic.obj
 0001:0002ea50       ?isKindOf@PxRigidDynamic@physx@@MEBA_NPEBD@Z 000000018002fa50 f i NpRigidDynamic.obj
 0001:0002eaf0       ?isSleeping@NpRigidDynamic@physx@@UEBA_NXZ 000000018002faf0 f   NpRigidDynamic.obj
 0001:0002eb00       ?preExportDataReset@NpRigidDynamic@physx@@QEAAXXZ 000000018002fb00 f   NpRigidDynamic.obj
 0001:0002eba0       ?putToSleep@NpRigidDynamic@physx@@UEAAXXZ 000000018002fba0 f   NpRigidDynamic.obj
 0001:0002ebb0       ?release@NpRigidDynamic@physx@@UEAAXXZ 000000018002fbb0 f   NpRigidDynamic.obj
 0001:0002eca0       ?setActorFlag@?$NpRigidActorTemplate@VPxRigidDynamic@physx@@@physx@@UEAAXW4Enum@PxActorFlag@2@_N@Z 000000018002fca0 f i NpRigidDynamic.obj
 0001:0002ee60       ?setActorFlags@?$NpRigidActorTemplate@VPxRigidDynamic@physx@@@physx@@UEAAXV?$PxFlags@W4Enum@PxActorFlag@physx@@E@2@@Z 000000018002fe60 f i NpRigidDynamic.obj
 0001:0002efa0       ?setAngularVelocity@NpRigidDynamic@physx@@UEAAXAEBVPxVec3@2@_N@Z 000000018002ffa0 f   NpRigidDynamic.obj
 0001:0002f020       ?setCMassLocalPose@NpRigidDynamic@physx@@UEAAXAEBVPxTransform@2@@Z 0000000180030020 f   NpRigidDynamic.obj
 0001:0002f760       ?setContactReportThreshold@NpRigidDynamic@physx@@UEAAXM@Z 0000000180030760 f   NpRigidDynamic.obj
 0001:0002f7f0       ?setForceAndTorque@NpRigidDynamic@physx@@UEAAXAEBVPxVec3@2@0W4Enum@PxForceMode@2@@Z 00000001800307f0 f   NpRigidDynamic.obj
 0001:0002f850       ?setGlobalPose@NpRigidDynamic@physx@@UEAAXAEBVPxTransform@2@_N@Z 0000000180030850 f   NpRigidDynamic.obj
 0001:0002fc80       ?setKinematicTarget@Body@Scb@physx@@QEAAXAEBVPxTransform@3@@Z 0000000180030c80 f i NpRigidDynamic.obj
 0001:0002fd90       ?setKinematicTarget@NpRigidDynamic@physx@@UEAAXAEBVPxTransform@2@@Z 0000000180030d90 f   NpRigidDynamic.obj
 0001:00030090       ?setLinearVelocity@NpRigidDynamic@physx@@UEAAXAEBVPxVec3@2@_N@Z 0000000180031090 f   NpRigidDynamic.obj
 0001:00030110       ?setLockFlags@Body@Scb@physx@@QEAAXV?$PxFlags@W4Enum@PxRigidDynamicLockFlag@physx@@E@3@@Z 0000000180031110 f i NpRigidDynamic.obj
 0001:00030190       ?setRigidDynamicLockFlag@NpRigidDynamic@physx@@UEAAXW4Enum@PxRigidDynamicLockFlag@2@_N@Z 0000000180031190 f   NpRigidDynamic.obj
 0001:000301e0       ?setRigidDynamicLockFlags@NpRigidDynamic@physx@@UEAAXV?$PxFlags@W4Enum@PxRigidDynamicLockFlag@physx@@E@2@@Z 00000001800311e0 f   NpRigidDynamic.obj
 0001:00030200       ?setSleepThreshold@NpRigidDynamic@physx@@UEAAXM@Z 0000000180031200 f   NpRigidDynamic.obj
 0001:00030290       ?setSolverIterationCounts@NpRigidDynamic@physx@@UEAAXII@Z 0000000180031290 f   NpRigidDynamic.obj
 0001:00030330       ?setStabilizationThreshold@NpRigidDynamic@physx@@UEAAXM@Z 0000000180031330 f   NpRigidDynamic.obj
 0001:000303c0       ?setWakeCounter@NpRigidDynamic@physx@@UEAAXM@Z 00000001800313c0 f   NpRigidDynamic.obj
 0001:000304a0       ?switchFromNoSim@NpRigidDynamic@physx@@UEAAXXZ 00000001800314a0 f   NpRigidDynamic.obj
 0001:000304c0       ?switchToNoSim@NpRigidDynamic@physx@@UEAAXXZ 00000001800314c0 f   NpRigidDynamic.obj
 0001:000305c0       ?visualize@NpRigidDynamic@physx@@QEAAXAEAVRenderOutput@Cm@2@PEAVNpScene@2@@Z 00000001800315c0 f   NpRigidDynamic.obj
 0001:00030850       ?wakeUp@NpRigidDynamic@physx@@UEAAXXZ 0000000180031850 f   NpRigidDynamic.obj
 0001:00030870       ?wakeUpInternal@Body@Scb@physx@@QEAAXM@Z 0000000180031870 f i NpRigidDynamic.obj
 0001:000308f0       ?wakeUpInternalNoKinematicTest@NpRigidDynamic@physx@@QEAAXAEAVBody@Scb@2@_N1@Z 00000001800318f0 f   NpRigidDynamic.obj
 0001:00030970       ??0NpRigidStatic@physx@@QEAA@AEBVPxTransform@1@@Z 0000000180031970 f   NpRigidStatic.obj
 0001:00030a40       ??_E?$NpActorTemplate@VPxRigidStatic@physx@@@physx@@UEAAPEAXI@Z 0000000180031a40 f i NpRigidStatic.obj
 0001:00030a40       ??_G?$NpActorTemplate@VPxRigidStatic@physx@@@physx@@UEAAPEAXI@Z 0000000180031a40 f i NpRigidStatic.obj
 0001:00030ac0       ??_E?$NpRigidActorTemplate@VPxRigidStatic@physx@@@physx@@UEAAPEAXI@Z 0000000180031ac0 f i NpRigidStatic.obj
 0001:00030ac0       ??_G?$NpRigidActorTemplate@VPxRigidStatic@physx@@@physx@@UEAAPEAXI@Z 0000000180031ac0 f i NpRigidStatic.obj
 0001:00030b50       ??_ENpRigidStatic@physx@@UEAAPEAXI@Z 0000000180031b50 f i NpRigidStatic.obj
 0001:00030b50       ??_GNpRigidStatic@physx@@UEAAPEAXI@Z 0000000180031b50 f i NpRigidStatic.obj
 0001:00030c00       ?NpRigidStaticGetShapes@physx@@YAIAEAVRigidStatic@Scb@1@AEAPEBQEAX@Z 0000000180031c00 f   NpRigidStatic.obj
 0001:00030c50       ?createObject@NpRigidStatic@physx@@SAPEAV12@AEAPEAEAEAVPxDeserializationContext@2@@Z 0000000180031c50 f   NpRigidStatic.obj
 0001:00030d50       ?getConcreteTypeName@PxRigidStatic@physx@@UEBAPEBDXZ 0000000180031d50 f i NpRigidStatic.obj
 0001:00030d60       ?getGlobalPose@NpRigidStatic@physx@@UEBA?AVPxTransform@2@XZ 0000000180031d60 f   NpRigidStatic.obj
 0001:00030db0       ?getNbUnfrozenShapes@SimulationController@Sc@physx@@UEAAIXZ 0000000180031db0 f i SimulationController_static_64:ScSimulationController.obj
 0001:00030db0       ?getDof@ArticulationV@Dy@physx@@UEAAII@Z 0000000180031db0 f i LowLevelDynamics_static_64:DyArticulation.obj
 0001:00030db0       ?getDeactiveBodies@SimulationController@Sc@physx@@UEAAPEAIXZ 0000000180031db0 f i SimulationController_static_64:ScSimulationController.obj
 0001:00030db0       ?getOutOfBoundsObjects@BroadPhaseBase@Bp@physx@@UEBAPEBIXZ 0000000180031db0 f i LowLevelAABB_static_64:BpBroadPhaseSap.obj
 0001:00030db0       ?getDofs@ArticulationV@Dy@physx@@UEAAIXZ 0000000180031db0 f i LowLevelDynamics_static_64:DyArticulation.obj
 0001:00030db0       ?getNbBodies@SimulationController@Sc@physx@@UEAAIXZ 0000000180031db0 f i SimulationController_static_64:ScSimulationController.obj
 0001:00030db0       ?getNbOutOfBoundsObjects@BroadPhaseBase@Bp@physx@@UEBAIXZ 0000000180031db0 f i LowLevelAABB_static_64:BpBroadPhaseSap.obj
 0001:00030db0       ?getType@BroadPhaseSap@Bp@physx@@UEBA?AW4Enum@PxBroadPhaseType@3@XZ 0000000180031db0 f i LowLevelAABB_static_64:BpBroadPhaseSap.obj
 0001:00030db0       ?getNbRegions@BroadPhaseBase@Bp@physx@@UEBAIXZ 0000000180031db0 f i LowLevelAABB_static_64:BpBroadPhaseSap.obj
 0001:00030db0       ?getActiveBodies@SimulationController@Sc@physx@@UEAAPEAIXZ 0000000180031db0 f i SimulationController_static_64:ScSimulationController.obj
 0001:00030db0       ?getBroadPhasePairs@BroadPhaseMBP@Bp@physx@@UEBAPEAUBroadPhasePair@23@XZ 0000000180031db0 f i LowLevelAABB_static_64:BpBroadPhaseMBP.obj
 0001:00030db0       ?getGPUContactManagerOutputBase@PxsNphaseImplementationContext@physx@@UEAAPEAUPxsContactManagerOutput@2@XZ 0000000180031db0 f i LowLevel_static_64:PxsNphaseImplementationContext.obj
 0001:00030db0       ?getRegions@BroadPhaseBase@Bp@physx@@UEBAIPEAUPxBroadPhaseRegionInfo@3@II@Z 0000000180031db0 f i LowLevelAABB_static_64:BpBroadPhaseSap.obj
 0001:00030db0       ?getNbShapes@SimulationController@Sc@physx@@UEAAIXZ 0000000180031db0 f i SimulationController_static_64:ScSimulationController.obj
 0001:00030db0       ?getScenePvdClient@NpScene@physx@@UEAAPEAVPxPvdSceneClient@2@XZ 0000000180031db0 f i NpScene.obj
 0001:00030db0       ?getRigidBodies@SimulationController@Sc@physx@@UEAAPEAPEAXXZ 0000000180031db0 f i SimulationController_static_64:ScSimulationController.obj
 0001:00030db0       ?createDeviceMemoryAllocator@PxsDefaultMemoryManager@physx@@UEAAPEAVVirtualAllocatorCallback@shdfnd@2@I@Z 0000000180031db0 f i LowLevel_static_64:PxsDefaultMemoryManager.obj
 0001:00030db0       ?getShapeSims@SimulationController@Sc@physx@@UEAAPEAPEAUPxsShapeSim@3@XZ 0000000180031db0 f i SimulationController_static_64:ScSimulationController.obj
 0001:00030db0       ?getNbFrozenShapes@SimulationController@Sc@physx@@UEAAIXZ 0000000180031db0 f i SimulationController_static_64:ScSimulationController.obj
 0001:00030db0       ?getBroadPhasePairs@BroadPhaseABP@Bp@physx@@UEBAPEAUBroadPhasePair@23@XZ 0000000180031db0 f i LowLevelAABB_static_64:BpBroadPhaseABP.obj
 0001:00030db0       ?getType@NpRigidStatic@physx@@UEBA?AW4Enum@PxActorType@2@XZ 0000000180031db0 f i NpRigidStatic.obj
 0001:00030db0       ?getUnfrozenShapes@SimulationController@Sc@physx@@UEAAPEAIXZ 0000000180031db0 f i SimulationController_static_64:ScSimulationController.obj
 0001:00030db0       ?getFrozenShapes@SimulationController@Sc@physx@@UEAAPEAIXZ 0000000180031db0 f i SimulationController_static_64:ScSimulationController.obj
 0001:00030dc0       ?isKindOf@PxRigidStatic@physx@@MEBA_NPEBD@Z 0000000180031dc0 f i NpRigidStatic.obj
 0001:00030e10       ?release@NpRigidStatic@physx@@UEAAXXZ 0000000180031e10 f   NpRigidStatic.obj
 0001:00030f00       ?setActorFlag@?$NpRigidActorTemplate@VPxRigidStatic@physx@@@physx@@UEAAXW4Enum@PxActorFlag@2@_N@Z 0000000180031f00 f i NpRigidStatic.obj
 0001:000310c0       ?setActorFlags@?$NpRigidActorTemplate@VPxRigidStatic@physx@@@physx@@UEAAXV?$PxFlags@W4Enum@PxActorFlag@physx@@E@2@@Z 00000001800320c0 f i NpRigidStatic.obj
 0001:00031200       ?setGlobalPose@NpRigidStatic@physx@@UEAAXAEBVPxTransform@2@_N@Z 0000000180032200 f   NpRigidStatic.obj
 0001:00031460       ?switchFromNoSim@NpRigidStatic@physx@@UEAAXXZ 0000000180032460 f   NpRigidStatic.obj
 0001:00031480       ?switchToNoSim@NpRigidStatic@physx@@UEAAXXZ 0000000180032480 f   NpRigidStatic.obj
 0001:000314a0       ?visualize@NpRigidStatic@physx@@QEAAXAEAVRenderOutput@Cm@2@PEAVNpScene@2@@Z 00000001800324a0 f   NpRigidStatic.obj
 0001:000315d0       ??$sort@PEAXU?$Less@PEAX@shdfnd@physx@@V?$ReflectionAllocator@U?$Block@E$0BAA@@Scene@Sc@physx@@@23@@shdfnd@physx@@YAXPEAPEAXIAEBU?$Less@PEAX@01@AEBV?$ReflectionAllocator@U?$Block@E$0BAA@@Scene@Sc@physx@@@01@I@Z 00000001800325d0 f i NpScene.obj
 0001:00031a30       ??$sort@PEAXU?$Less@PEAX@shdfnd@physx@@V?$ReflectionAllocator@U?$Block@E$0BIA@@Scene@Sc@physx@@@23@@shdfnd@physx@@YAXPEAPEAXIAEBU?$Less@PEAX@01@AEBV?$ReflectionAllocator@U?$Block@E$0BIA@@Scene@Sc@physx@@@01@I@Z 0000000180032a30 f i NpScene.obj
 0001:00031e90       ??$sort@PEAXU?$Less@PEAX@shdfnd@physx@@V?$ReflectionAllocator@U?$Block@E$0IA@@Scene@Sc@physx@@@23@@shdfnd@physx@@YAXPEAPEAXIAEBU?$Less@PEAX@01@AEBV?$ReflectionAllocator@U?$Block@E$0IA@@Scene@Sc@physx@@@01@I@Z 0000000180032e90 f i NpScene.obj
 0001:000322f0       ??$sort@PEAXU?$Less@PEAX@shdfnd@physx@@V?$ReflectionAllocator@U?$Block@PEAX$07@Scene@Sc@physx@@@23@@shdfnd@physx@@YAXPEAPEAXIAEBU?$Less@PEAX@01@AEBV?$ReflectionAllocator@U?$Block@PEAX$07@Scene@Sc@physx@@@01@I@Z 00000001800332f0 f i NpScene.obj
 0001:00032750       ??$sort@PEAXU?$Less@PEAX@shdfnd@physx@@V?$ReflectionAllocator@U?$Block@PEAX$0BA@@Scene@Sc@physx@@@23@@shdfnd@physx@@YAXPEAPEAXIAEBU?$Less@PEAX@01@AEBV?$ReflectionAllocator@U?$Block@PEAX$0BA@@Scene@Sc@physx@@@01@I@Z 0000000180033750 f i NpScene.obj
 0001:00032bb0       ??$sort@PEAXU?$Less@PEAX@shdfnd@physx@@V?$ReflectionAllocator@U?$Block@PEAX$0CA@@Scene@Sc@physx@@@23@@shdfnd@physx@@YAXPEAPEAXIAEBU?$Less@PEAX@01@AEBV?$ReflectionAllocator@U?$Block@PEAX$0CA@@Scene@Sc@physx@@@01@I@Z 0000000180033bb0 f i NpScene.obj
 0001:00033010       ??0NpScene@physx@@QEAA@AEBVPxSceneDesc@1@@Z 0000000180034010 f   NpScene.obj
 0001:000336b0       ??1FanoutTask@Cm@physx@@UEAA@XZ 00000001800346b0 f i NpScene.obj
 0001:00033770       ??1FlushPool@Cm@physx@@QEAA@XZ 0000000180034770 f i NpScene.obj
 0001:00033820       ??1NpScene@physx@@UEAA@XZ  0000000180034820 f   NpScene.obj
 0001:00033e60       ??1RenderBuffer@Cm@physx@@UEAA@XZ 0000000180034e60 f i NpScene.obj
 0001:00033f50       ??1Scene@Sc@physx@@QEAA@XZ 0000000180034f50 f i NpScene.obj
 0001:00035240       ??1Scene@Scb@physx@@QEAA@XZ 0000000180036240 f i NpScene.obj
 0001:00035430       ??_E?$DelegateTask@VNpScene@physx@@$H?executeScene@12@QEAAXPEAVPxBaseTask@2@@ZA@@Cm@physx@@UEAAPEAXI@Z 0000000180036430 f i NpScene.obj
 0001:00035430       ??_G?$DelegateTask@VNpScene@physx@@$H?executeAdvance@12@QEAAXPEAVPxBaseTask@2@@ZA@@Cm@physx@@UEAAPEAXI@Z 0000000180036430 f i NpScene.obj
 0001:00035430       ??_E?$DelegateTask@VNpScene@physx@@$H?executeCollide@12@QEAAXPEAVPxBaseTask@2@@ZA@@Cm@physx@@UEAAPEAXI@Z 0000000180036430 f i NpScene.obj
 0001:00035430       ??_G?$DelegateTask@VNpSceneQueries@physx@@$1?sceneQueriesDynamicPrunerUpdate@12@QEAAXPEAVPxBaseTask@2@@Z@Cm@physx@@UEAAPEAXI@Z 0000000180036430 f i NpScene.obj
 0001:00035430       ??_G?$DelegateTask@VNpScene@physx@@$H?executeScene@12@QEAAXPEAVPxBaseTask@2@@ZA@@Cm@physx@@UEAAPEAXI@Z 0000000180036430 f i NpScene.obj
 0001:00035430       ??_E?$DelegateTask@VNpScene@physx@@$H?executeAdvance@12@QEAAXPEAVPxBaseTask@2@@ZA@@Cm@physx@@UEAAPEAXI@Z 0000000180036430 f i NpScene.obj
 0001:00035430       ??_G?$DelegateTask@VNpSceneQueries@physx@@$1?sceneQueriesStaticPrunerUpdate@12@QEAAXPEAVPxBaseTask@2@@Z@Cm@physx@@UEAAPEAXI@Z 0000000180036430 f i NpScene.obj
 0001:00035430       ??_E?$DelegateTask@VNpSceneQueries@physx@@$1?sceneQueriesStaticPrunerUpdate@12@QEAAXPEAVPxBaseTask@2@@Z@Cm@physx@@UEAAPEAXI@Z 0000000180036430 f i NpScene.obj
 0001:00035430       ??_G?$DelegateTask@VNpScene@physx@@$H?executeCollide@12@QEAAXPEAVPxBaseTask@2@@ZA@@Cm@physx@@UEAAPEAXI@Z 0000000180036430 f i NpScene.obj
 0001:00035430       ??_E?$DelegateTask@VNpSceneQueries@physx@@$1?sceneQueriesDynamicPrunerUpdate@12@QEAAXPEAVPxBaseTask@2@@Z@Cm@physx@@UEAAPEAXI@Z 0000000180036430 f i NpScene.obj
 0001:00035490       ??_EUpdateContinuationTask@Dy@physx@@UEAAPEAXI@Z 0000000180036490 f i LowLevelDynamics_static_64:DyDynamics.obj
 0001:00035490       ??_GNpContactCallbackTask@physx@@UEAAPEAXI@Z 0000000180036490 f i NpScene.obj
 0001:00035490       ??_ENpContactCallbackTask@physx@@UEAAPEAXI@Z 0000000180036490 f i NpScene.obj
 0001:00035490       ??_ESetStepperTask@Dy@physx@@UEAAPEAXI@Z 0000000180036490 f i LowLevelDynamics_static_64:DyTGSDynamics.obj
 0001:00035490       ??_GUpdateContinuationTask@Dy@physx@@UEAAPEAXI@Z 0000000180036490 f i LowLevelDynamics_static_64:DyDynamics.obj
 0001:00035490       ??_GUpdateCCDBoundsTask@@UEAAPEAXI@Z 0000000180036490 f i SimulationController_static_64:ScScene.obj
 0001:00035490       ??_EUpdateContinuationTGSTask@Dy@physx@@UEAAPEAXI@Z 0000000180036490 f i LowLevelDynamics_static_64:DyTGSDynamics.obj
 0001:00035490       ??_EScKinematicAddDynamicTask@@UEAAPEAXI@Z 0000000180036490 f i SimulationController_static_64:ScScene.obj
 0001:00035490       ??_GSetStepperTask@Dy@physx@@UEAAPEAXI@Z 0000000180036490 f i LowLevelDynamics_static_64:DyTGSDynamics.obj
 0001:00035490       ??_GUpdateArticulationTask@@UEAAPEAXI@Z 0000000180036490 f i SimulationController_static_64:ScScene.obj
 0001:00035490       ??_GUpdateContinuationTGSTask@Dy@physx@@UEAAPEAXI@Z 0000000180036490 f i LowLevelDynamics_static_64:DyTGSDynamics.obj
 0001:00035490       ??_EUpdateCCDBoundsTask@@UEAAPEAXI@Z 0000000180036490 f i SimulationController_static_64:ScScene.obj
 0001:00035490       ??_GScKinematicAddDynamicTask@@UEAAPEAXI@Z 0000000180036490 f i SimulationController_static_64:ScScene.obj
 0001:00035490       ??_EUpdateArticulationTask@@UEAAPEAXI@Z 0000000180036490 f i SimulationController_static_64:ScScene.obj
 0001:000354d0       ??_ENpScene@physx@@UEAAPEAXI@Z 00000001800364d0 f i NpScene.obj
 0001:000354d0       ??_GNpScene@physx@@UEAAPEAXI@Z 00000001800364d0 f i NpScene.obj
 0001:00035530       ??_ENpSceneQueries@physx@@UEAAPEAXI@Z 0000000180036530 f i NpScene.obj
 0001:00035530       ??_GNpSceneQueries@physx@@UEAAPEAXI@Z 0000000180036530 f i NpScene.obj
 0001:000355b0       ??_EPxBaseTask@physx@@UEAAPEAXI@Z 00000001800365b0 f i NpScene.obj
 0001:000355b0       ??_GPxBaseTask@physx@@UEAAPEAXI@Z 00000001800365b0 f i NpScene.obj
 0001:000355e0       ??_EPxLightCpuTask@physx@@UEAAPEAXI@Z 00000001800365e0 f i NpScene.obj
 0001:000355e0       ??_GPxLightCpuTask@physx@@UEAAPEAXI@Z 00000001800365e0 f i NpScene.obj
 0001:00035620       ??_GPxRenderBuffer@physx@@UEAAPEAXI@Z 0000000180036620 f i NpScene.obj
 0001:00035620       ??_EPxRenderBuffer@physx@@UEAAPEAXI@Z 0000000180036620 f i NpScene.obj
 0001:00035650       ??_GPxScene@physx@@MEAAPEAXI@Z 0000000180036650 f i NpScene.obj
 0001:00035650       ??_EPxScene@physx@@MEAAPEAXI@Z 0000000180036650 f i NpScene.obj
 0001:00035680       ??_ERenderBuffer@Cm@physx@@UEAAPEAXI@Z 0000000180036680 f i NpScene.obj
 0001:00035680       ??_GRenderBuffer@Cm@physx@@UEAAPEAXI@Z 0000000180036680 f i NpScene.obj
 0001:000356e0       ??_EDynamicsMergeTask@Dy@physx@@UEAAPEAXI@Z 00000001800366e0 f i LowLevelDynamics_static_64:DyTGSDynamics.obj
 0001:000356e0       ??_GDynamicsMergeTask@Dy@physx@@UEAAPEAXI@Z 00000001800366e0 f i LowLevelDynamics_static_64:DyTGSDynamics.obj
 0001:000356e0       ??_EPxsForceThresholdTask@Dy@physx@@UEAAPEAXI@Z 00000001800366e0 f i LowLevelDynamics_static_64:DyDynamics.obj
 0001:000356e0       ??_GPostThirdPassTask@IG@physx@@UEAAPEAXI@Z 00000001800366e0 f i LowLevel_static_64:PxsSimpleIslandManager.obj
 0001:000356e0       ??_EPostThirdPassTask@IG@physx@@UEAAPEAXI@Z 00000001800366e0 f i LowLevel_static_64:PxsSimpleIslandManager.obj
 0001:000356e0       ??_GSceneCompletion@NpScene@physx@@UEAAPEAXI@Z 00000001800366e0 f i NpScene.obj
 0001:000356e0       ??_GPxsForceThresholdTask@Dy@physx@@UEAAPEAXI@Z 00000001800366e0 f i LowLevelDynamics_static_64:DyDynamics.obj
 0001:000356e0       ??_ESceneCompletion@NpScene@physx@@UEAAPEAXI@Z 00000001800366e0 f i NpScene.obj
 0001:00035720       ?addActor@NpScene@physx@@UEAAXAEAVPxActor@2@PEBVPxBVHStructure@2@@Z 0000000180036720 f   NpScene.obj
 0001:00035900       ?addActorInternal@NpScene@physx@@QEAAXAEAVPxActor@2@PEBVPxBVHStructure@2@@Z 0000000180036900 f   NpScene.obj
 0001:00035a10       ?addActors@NpScene@physx@@UEAAXAEBVPxPruningStructure@2@@Z 0000000180036a10 f   NpScene.obj
 0001:00035a60       ?addActors@NpScene@physx@@UEAAXPEBQEAVPxActor@2@I@Z 0000000180036a60 f   NpScene.obj
 0001:00035a70       ?addActorsInternal@NpScene@physx@@QEAAXPEIBQEAVPxActor@2@IPEBVPruningStructure@Sq@2@@Z 0000000180036a70 f   NpScene.obj
 0001:00036130       ?addAggregate@NpScene@physx@@UEAAXAEAVPxAggregate@2@@Z 0000000180037130 f   NpScene.obj
 0001:00036330       ?addArticulation@NpScene@physx@@UEAAXAEAVPxArticulationBase@2@@Z 0000000180037330 f   NpScene.obj
 0001:00036440       ?addArticulationInternal@NpScene@physx@@QEAAXAEAVPxArticulationBase@2@@Z 0000000180037440 f   NpScene.obj
 0001:00036a60       ?addArticulationLink@NpScene@physx@@QEAAXAEAVNpArticulationLink@2@@Z 0000000180037a60 f   NpScene.obj
 0001:00036b40       ?addBroadPhaseRegion@NpScene@physx@@UEAAIAEBUPxBroadPhaseRegion@2@_N@Z 0000000180037b40 f   NpScene.obj
 0001:00036b90       ?addCollection@NpScene@physx@@UEAAXAEBVPxCollection@2@@Z 0000000180037b90 f   NpScene.obj
 0001:00036d30       ?addMaterial@NpScene@physx@@QEAAXAEBVNpMaterial@2@@Z 0000000180037d30 f   NpScene.obj
 0001:00036d40       ?addReference@PxLightCpuTask@physx@@UEAAXXZ 0000000180037d40 f i NpScene.obj
 0001:00036d50       ?addRigidDynamic@NpScene@physx@@AEAAXAEAVNpRigidDynamic@2@PEBVBVHStructure@Gu@2@_N@Z 0000000180037d50 f   NpScene.obj
 0001:00036e70       ?addRigidStatic@NpScene@physx@@AEAAXAEAVNpRigidStatic@2@PEBVBVHStructure@Gu@2@_N@Z 0000000180037e70 f   NpScene.obj
 0001:00036f90       ?advance@NpScene@physx@@UEAAXPEAVPxBaseTask@2@@Z 0000000180037f90 f   NpScene.obj
 0001:00037060       ?allocate@?$Array@PEAVPxRigidActor@physx@@V?$ReflectionAllocator@PEAVPxRigidActor@physx@@@shdfnd@2@@shdfnd@physx@@IEAAPEAPEAVPxRigidActor@3@I@Z 0000000180038060 f i NpScene.obj
 0001:00037100       ?allocate@?$Array@UPxDebugPoint@physx@@V?$ReflectionAllocator@UPxDebugPoint@physx@@@shdfnd@2@@shdfnd@physx@@IEAAPEAUPxDebugPoint@3@I@Z 0000000180038100 f i NpScene.obj
 0001:000371a0       ?allocate@?$Array@UPxDebugText@physx@@V?$ReflectionAllocator@UPxDebugText@physx@@@shdfnd@2@@shdfnd@physx@@IEAAPEAUPxDebugText@3@I@Z 00000001800381a0 f i NpScene.obj
 0001:00037240       ?allocate@?$Array@UPxDebugTriangle@physx@@V?$ReflectionAllocator@UPxDebugTriangle@physx@@@shdfnd@2@@shdfnd@physx@@IEAAPEAUPxDebugTriangle@3@I@Z 0000000180038240 f i NpScene.obj
 0001:000372e0       ?allocate@?$Array@VPxBounds3@physx@@V?$InlineAllocator@$0MA@V?$ReflectionAllocator@VPxBounds3@physx@@@shdfnd@physx@@@shdfnd@2@@shdfnd@physx@@IEAAPEAVPxBounds3@3@I@Z 00000001800382e0 f i NpScene.obj
 0001:000373a0       ?allocate@?$ReflectionAllocator@PEAVShape@Scb@physx@@@shdfnd@physx@@QEAAPEAX_KPEBDH@Z 00000001800383a0 f i NpScene.obj
 0001:00037440       ?allocate@?$ReflectionAllocator@U?$Block@E$0BAA@@Scene@Sc@physx@@@shdfnd@physx@@QEAAPEAX_KPEBDH@Z 0000000180038440 f i NpScene.obj
 0001:000374e0       ?allocate@?$ReflectionAllocator@U?$Block@E$0BIA@@Scene@Sc@physx@@@shdfnd@physx@@QEAAPEAX_KPEBDH@Z 00000001800384e0 f i NpScene.obj
 0001:00037580       ?allocate@?$ReflectionAllocator@U?$Block@E$0IA@@Scene@Sc@physx@@@shdfnd@physx@@QEAAPEAX_KPEBDH@Z 0000000180038580 f i NpScene.obj
 0001:00037620       ?allocate@?$ReflectionAllocator@U?$Block@PEAX$07@Scene@Sc@physx@@@shdfnd@physx@@QEAAPEAX_KPEBDH@Z 0000000180038620 f i NpScene.obj
 0001:000376c0       ?allocate@?$ReflectionAllocator@U?$Block@PEAX$0BA@@Scene@Sc@physx@@@shdfnd@physx@@QEAAPEAX_KPEBDH@Z 00000001800386c0 f i NpScene.obj
 0001:00037760       ?allocate@?$ReflectionAllocator@U?$Block@PEAX$0CA@@Scene@Sc@physx@@@shdfnd@physx@@QEAAPEAX_KPEBDH@Z 0000000180038760 f i NpScene.obj
 0001:00037800       ?append@RenderBuffer@Cm@physx@@UEAAXAEBVPxRenderBuffer@3@@Z 0000000180038800 f i NpScene.obj
 0001:00037be0       ?checkCollision@NpScene@physx@@UEAA_N_N@Z 0000000180038be0 f   NpScene.obj
 0001:00037bf0       ?checkQueries@NpScene@physx@@UEAA_N_N@Z 0000000180038bf0 f   NpScene.obj
 0001:00037c00       ?checkResults@NpScene@physx@@UEAA_N_N@Z 0000000180038c00 f   NpScene.obj
 0001:00037c10       ?clear@RenderBuffer@Cm@physx@@UEAAXXZ 0000000180038c10 f i NpScene.obj
 0001:00037c30       ?collide@NpScene@physx@@UEAAXMPEAVPxBaseTask@2@PEAXI_N@Z 0000000180038c30 f   NpScene.obj
 0001:00037c70       ?copy@?$Array@UPxDebugPoint@physx@@V?$ReflectionAllocator@UPxDebugPoint@physx@@@shdfnd@2@@shdfnd@physx@@KAXPEAUPxDebugPoint@3@0PEBU43@@Z 0000000180038c70 f i NpScene.obj
 0001:00037d70       ?copy@?$Array@UPxDebugText@physx@@V?$ReflectionAllocator@UPxDebugText@physx@@@shdfnd@2@@shdfnd@physx@@KAXPEAUPxDebugText@3@0PEBU43@@Z 0000000180038d70 f i NpScene.obj
 0001:00037ee0       ?copy@?$Array@UPxDebugTriangle@physx@@V?$ReflectionAllocator@UPxDebugTriangle@physx@@@shdfnd@2@@shdfnd@physx@@KAXPEAUPxDebugTriangle@3@0PEBU43@@Z 0000000180038ee0 f i NpScene.obj
 0001:000380e0       ?createBatchQuery@NpScene@physx@@UEAAPEAVPxBatchQuery@2@AEBVPxBatchQueryDesc@2@@Z 00000001800390e0 f   NpScene.obj
 0001:000381d0       ?createClient@NpScene@physx@@UEAAEXZ 00000001800391d0 f   NpScene.obj
 0001:00038200       ?fetchCollision@NpScene@physx@@UEAA_N_N@Z 0000000180039200 f   NpScene.obj
 0001:00038270       ?fetchQueries@NpScene@physx@@UEAA_N_N@Z 0000000180039270 f   NpScene.obj
 0001:00038320       ?fetchResults@NpScene@physx@@UEAA_N_NPEAI@Z 0000000180039320 f   NpScene.obj
 0001:000383f0       ?fetchResultsFinish@NpScene@physx@@UEAAXPEAI@Z 00000001800393f0 f   NpScene.obj
 0001:00038450       ?fetchResultsPostContactCallbacks@NpScene@physx@@AEAAXXZ 0000000180039450 f   NpScene.obj
 0001:00038560       ?fetchResultsPreContactCallbacks@NpScene@physx@@AEAAXXZ 0000000180039560 f   NpScene.obj
 0001:00038660       ?fetchResultsStart@NpScene@physx@@UEAA_NAEAPEBUPxContactPairHeader@2@AEAI_N@Z 0000000180039660 f   NpScene.obj
 0001:00038740       ?find@SqRefFinder@@UEAAIPEBVPxRigidBody@physx@@PEBVPxShape@3@@Z 0000000180039740 f i NpScene.obj
 0001:00038770       ?flushQueryUpdates@NpScene@physx@@UEAAXXZ 0000000180039770 f   NpScene.obj
 0001:000387b0       ?flushSimulation@NpScene@physx@@UEAAX_N@Z 00000001800397b0 f   NpScene.obj
 0001:000388f0       ?forceDynamicTreeRebuild@NpScene@physx@@UEAAX_N0@Z 00000001800398f0 f   NpScene.obj
 0001:00038930       ?forceSceneQueryRebuild@NpScene@physx@@UEAAXXZ 0000000180039930 f   NpScene.obj
 0001:00038980       ?getActiveActors@NpScene@physx@@UEAAPEAPEAVPxActor@2@AEAI@Z 0000000180039980 f   NpScene.obj
 0001:000389e0       ?getActors@NpScene@physx@@UEBAIV?$PxFlags@W4Enum@PxActorTypeFlag@physx@@G@2@PEAPEAVPxActor@2@II@Z 00000001800399e0 f   NpScene.obj
 0001:00038ac0       ?getAggregates@NpScene@physx@@UEBAIPEAPEAVPxAggregate@2@II@Z 0000000180039ac0 f   NpScene.obj
 0001:00038b20       ?getArticulations@NpScene@physx@@UEBAIPEAPEAVPxArticulationBase@2@II@Z 0000000180039b20 f   NpScene.obj
 0001:00038b80       ?getBounceThresholdVelocity@NpScene@physx@@UEBAMXZ 0000000180039b80 f   NpScene.obj
 0001:00038ba0       ?getBroadPhaseCallback@NpScene@physx@@UEBAPEAVPxBroadPhaseCallback@2@XZ 0000000180039ba0 f   NpScene.obj
 0001:00038bb0       ?getBroadPhaseCaps@NpScene@physx@@UEBA_NAEAUPxBroadPhaseCaps@2@@Z 0000000180039bb0 f   NpScene.obj
 0001:00038bc0       ?getBroadPhaseRegions@NpScene@physx@@UEBAIPEAUPxBroadPhaseRegionInfo@2@II@Z 0000000180039bc0 f   NpScene.obj
 0001:00038bd0       ?getBroadPhaseType@NpScene@physx@@UEBA?AW4Enum@PxBroadPhaseType@2@XZ 0000000180039bd0 f   NpScene.obj
 0001:00038be0       ?getCCDContactModifyCallback@NpScene@physx@@UEBAPEAVPxCCDContactModifyCallback@2@XZ 0000000180039be0 f   NpScene.obj
 0001:00038bf0       ?getCCDMaxPasses@NpScene@physx@@UEBAIXZ 0000000180039bf0 f   NpScene.obj
 0001:00038c00       ?getConstraints@NpScene@physx@@UEBAIPEAPEAVPxConstraint@2@II@Z 0000000180039c00 f   NpScene.obj
 0001:00038c60       ?getContactModifyCallback@NpScene@physx@@UEBAPEAVPxContactModifyCallback@2@XZ 0000000180039c60 f   NpScene.obj
 0001:00038c70       ?getContactReportStreamBufferSize@NpScene@physx@@UEBAIXZ 0000000180039c70 f   NpScene.obj
 0001:00038c80       ?getCpuDispatcher@NpScene@physx@@UEBAPEAVPxCpuDispatcher@2@XZ 0000000180039c80 f   NpScene.obj
 0001:00038ca0       ?getCudaContextManager@NpScene@physx@@UEAAPEAVPxCudaContextManager@2@XZ 0000000180039ca0 f i NpScene.obj
 0001:00038ca0       ?getCudaContextManager@NpScene@physx@@UEBAPEAVPxCudaContextManager@2@XZ 0000000180039ca0 f i NpScene.obj
 0001:00038cb0       ?getDominanceGroupPair@NpScene@physx@@UEBA?AUPxDominanceGroupPair@2@EE@Z 0000000180039cb0 f   NpScene.obj
 0001:00038d70       ?getDynamicStructure@NpScene@physx@@UEBA?AW4Enum@PxPruningStructureType@2@XZ 0000000180039d70 f   NpScene.obj
 0001:00038d80       ?getDynamicTreeRebuildRateHint@NpScene@physx@@UEBAIXZ 0000000180039d80 f   NpScene.obj
 0001:00038d90       ?getFilterCallback@NpScene@physx@@UEBAPEAVPxSimulationFilterCallback@2@XZ 0000000180039d90 f   NpScene.obj
 0001:00038da0       ?getFilterShader@NpScene@physx@@UEBAP6A?AV?$PxFlags@W4Enum@PxFilterFlag@physx@@G@2@IUPxFilterData@2@I0AEAV?$PxFlags@W4Enum@PxPairFlag@physx@@G@2@PEBXI@ZXZ 0000000180039da0 f   NpScene.obj
 0001:00038db0       ?getFilterShaderData@NpScene@physx@@UEBAPEBXXZ 0000000180039db0 f   NpScene.obj
 0001:00038dc0       ?getFilterShaderDataSize@NpScene@physx@@UEBAIXZ 0000000180039dc0 f   NpScene.obj
 0001:00038dd0       ?getFlags@NpScene@physx@@UEBA?AV?$PxFlags@W4Enum@PxSceneFlag@physx@@I@2@XZ 0000000180039dd0 f   NpScene.obj
 0001:00038e00       ?getFrictionOffsetThreshold@NpScene@physx@@UEBAMXZ 0000000180039e00 f   NpScene.obj
 0001:00038e10       ?getFrictionType@NpScene@physx@@UEBA?AW4Enum@PxFrictionType@2@XZ 0000000180039e10 f   NpScene.obj
 0001:00038e20       ?getFrozenActors@NpScene@physx@@UEAAPEAPEAVPxActor@2@AEAI@Z 0000000180039e20 f   NpScene.obj
 0001:00038e80       ?getGravity@NpScene@physx@@UEBA?AVPxVec3@2@XZ 0000000180039e80 f   NpScene.obj
 0001:00038ee0       ?getKinematicKinematicFilteringMode@NpScene@physx@@UEBA?AW4Enum@PxPairFilteringMode@2@XZ 0000000180039ee0 f   NpScene.obj
 0001:00038ef0       ?getLimits@NpScene@physx@@UEBA?AVPxSceneLimits@2@XZ 0000000180039ef0 f   NpScene.obj
 0001:00038f10       ?getMaxNbContactDataBlocksUsed@NpScene@physx@@UEBAIXZ 0000000180039f10 f   NpScene.obj
 0001:00038f20       ?getName@?$DelegateTask@VScene@Sc@physx@@$1?destroyManagers@123@AEAAXPEAVPxBaseTask@3@@Z@Cm@physx@@UEBAPEBDXZ 0000000180039f20 f i SimulationController_static_64:ScScene.obj
 0001:00038f20       ?getName@?$DelegateTask@VScene@Sc@physx@@$1?postBroadPhaseContinuation@123@AEAAXPEAVPxBaseTask@3@@Z@Cm@physx@@UEBAPEBDXZ 0000000180039f20 f i SimulationController_static_64:ScScene.obj
 0001:00038f20       ?getName@?$DelegateTask@VPxsCCDContext@physx@@$1?postCCDDepenetrate@12@AEAAXPEAVPxBaseTask@2@@Z@Cm@physx@@UEBAPEBDXZ 0000000180039f20 f i LowLevel_static_64:PxsCCD.obj
 0001:00038f20       ?getName@?$DelegateTask@VScene@Sc@physx@@$1?broadPhase@123@AEAAXPEAVPxBaseTask@3@@Z@Cm@physx@@UEBAPEBDXZ 0000000180039f20 f i SimulationController_static_64:ScScene.obj
 0001:00038f20       ?getName@?$DelegateTask@VScene@Sc@physx@@$1?rigidBodyNarrowPhase@123@AEAAXPEAVPxBaseTask@3@@Z@Cm@physx@@UEBAPEBDXZ 0000000180039f20 f i SimulationController_static_64:ScScene.obj
 0001:00038f20       ?getName@?$DelegateTask@VScene@Sc@physx@@$1?updateBodiesAndShapes@123@AEAAXPEAVPxBaseTask@3@@Z@Cm@physx@@UEBAPEBDXZ 0000000180039f20 f i SimulationController_static_64:ScScene.obj
 0001:00038f20       ?getName@?$DelegateTask@VScene@Sc@physx@@$1?processLostContacts@123@AEAAXPEAVPxBaseTask@3@@Z@Cm@physx@@UEBAPEBDXZ 0000000180039f20 f i SimulationController_static_64:ScScene.obj
 0001:00038f20       ?getName@?$DelegateTask@VScene@Sc@physx@@$1?preallocateContactManagers@123@QEAAXPEAVPxBaseTask@3@@Z@Cm@physx@@UEBAPEBDXZ 0000000180039f20 f i SimulationController_static_64:ScScene.obj
 0001:00038f20       ?getName@?$DelegateTask@VScene@Sc@physx@@$1?updateSimulationController@123@AEAAXPEAVPxBaseTask@3@@Z@Cm@physx@@UEBAPEBDXZ 0000000180039f20 f i SimulationController_static_64:ScScene.obj
 0001:00038f20       ?getName@?$DelegateTask@VScene@Sc@physx@@$1?registerInteractions@123@QEAAXPEAVPxBaseTask@3@@Z@Cm@physx@@UEBAPEBDXZ 0000000180039f20 f i SimulationController_static_64:ScScene.obj
 0001:00038f20       ?getName@?$DelegateTask@VScene@Sc@physx@@$1?updateCCDMultiPass@123@AEAAXPEAVPxBaseTask@3@@Z@Cm@physx@@UEBAPEBDXZ 0000000180039f20 f i SimulationController_static_64:ScScene.obj
 0001:00038f20       ?getName@?$DelegateTask@VScene@Sc@physx@@$1?fetchPatchEvents@123@AEAAXPEAVPxBaseTask@3@@Z@Cm@physx@@UEBAPEBDXZ 0000000180039f20 f i SimulationController_static_64:ScScene.obj
 0001:00038f20       ?getName@?$DelegateTask@VScene@Sc@physx@@$1?unblockNarrowPhase@123@AEAAXPEAVPxBaseTask@3@@Z@Cm@physx@@UEBAPEBDXZ 0000000180039f20 f i SimulationController_static_64:ScScene.obj
 0001:00038f20       ?getName@?$DelegateTask@VScene@Sc@physx@@$1?registerContactManagers@123@QEAAXPEAVPxBaseTask@3@@Z@Cm@physx@@UEBAPEBDXZ 0000000180039f20 f i SimulationController_static_64:ScScene.obj
 0001:00038f20       ?getName@?$DelegateTask@VScene@Sc@physx@@$1?islandGen@123@AEAAXPEAVPxBaseTask@3@@Z@Cm@physx@@UEBAPEBDXZ 0000000180039f20 f i SimulationController_static_64:ScScene.obj
 0001:00038f20       ?getName@?$DelegateTask@VScene@Sc@physx@@$1?unregisterInteractions@123@AEAAXPEAVPxBaseTask@3@@Z@Cm@physx@@UEBAPEBDXZ 0000000180039f20 f i SimulationController_static_64:ScScene.obj
 0001:00038f20       ?getName@?$DelegateTask@VScene@Sc@physx@@$1?ccdBroadPhaseAABB@123@AEAAXPEAVPxBaseTask@3@@Z@Cm@physx@@UEBAPEBDXZ 0000000180039f20 f i SimulationController_static_64:ScScene.obj
 0001:00038f20       ?getName@?$DelegateTask@VScene@Sc@physx@@$1?lostTouchReports@123@AEAAXPEAVPxBaseTask@3@@Z@Cm@physx@@UEBAPEBDXZ 0000000180039f20 f i SimulationController_static_64:ScScene.obj
 0001:00038f20       ?getName@?$DelegateTask@VScene@Sc@physx@@$1?registerSceneInteractions@123@QEAAXPEAVPxBaseTask@3@@Z@Cm@physx@@UEBAPEBDXZ 0000000180039f20 f i SimulationController_static_64:ScScene.obj
 0001:00038f20       ?getName@?$DelegateTask@VPxsCCDContext@physx@@$1?postCCDSweep@12@AEAAXPEAVPxBaseTask@2@@Z@Cm@physx@@UEBAPEBDXZ 0000000180039f20 f i LowLevel_static_64:PxsCCD.obj
 0001:00038f20       ?getName@?$DelegateTask@VScene@Sc@physx@@$1?constraintProjection@123@AEAAXPEAVPxBaseTask@3@@Z@Cm@physx@@UEBAPEBDXZ 0000000180039f20 f i SimulationController_static_64:ScScene.obj
 0001:00038f20       ?getName@?$DelegateTask@VScene@Sc@physx@@$1?processLostContacts3@123@AEAAXPEAVPxBaseTask@3@@Z@Cm@physx@@UEBAPEBDXZ 0000000180039f20 f i SimulationController_static_64:ScScene.obj
 0001:00038f20       ?getName@?$DelegateTask@VScene@Sc@physx@@$1?advanceStep@123@AEAAXPEAVPxBaseTask@3@@Z@Cm@physx@@UEBAPEBDXZ 0000000180039f20 f i SimulationController_static_64:ScScene.obj
 0001:00038f20       ?getName@?$DelegateTask@VScene@Sc@physx@@$1?updateCCDSinglePass@123@AEAAXPEAVPxBaseTask@3@@Z@Cm@physx@@UEBAPEBDXZ 0000000180039f20 f i SimulationController_static_64:ScScene.obj
 0001:00038f20       ?getName@?$DelegateTask@VScene@Sc@physx@@$1?solver@123@AEAAXPEAVPxBaseTask@3@@Z@Cm@physx@@UEBAPEBDXZ 0000000180039f20 f i SimulationController_static_64:ScScene.obj
 0001:00038f20       ?getName@?$DelegateTask@VScene@Sc@physx@@$1?ccdBroadPhase@123@AEAAXPEAVPxBaseTask@3@@Z@Cm@physx@@UEBAPEBDXZ 0000000180039f20 f i SimulationController_static_64:ScScene.obj
 0001:00038f20       ?getName@?$DelegateTask@VScene@Sc@physx@@$1?processNarrowPhaseLostTouchEventsIslands@123@AEAAXPEAVPxBaseTask@3@@Z@Cm@physx@@UEBAPEBDXZ 0000000180039f20 f i SimulationController_static_64:ScScene.obj
 0001:00038f20       ?getName@?$DelegateTask@VScene@Sc@physx@@$1?processLostSolverPatches@123@AEAAXPEAVPxBaseTask@3@@Z@Cm@physx@@UEBAPEBDXZ 0000000180039f20 f i SimulationController_static_64:ScScene.obj
 0001:00038f20       ?getName@?$DelegateTask@VScene@Sc@physx@@$1?secondPassNarrowPhase@123@QEAAXPEAVPxBaseTask@3@@Z@Cm@physx@@UEBAPEBDXZ 0000000180039f20 f i SimulationController_static_64:ScScene.obj
 0001:00038f20       ?getName@?$DelegateTask@VScene@Sc@physx@@$1?afterIntegration@123@AEAAXPEAVPxBaseTask@3@@Z@Cm@physx@@UEBAPEBDXZ 0000000180039f20 f i SimulationController_static_64:ScScene.obj
 0001:00038f20       ?getName@?$DelegateTask@VScene@Sc@physx@@$1?postThirdPassIslandGen@123@AEAAXPEAVPxBaseTask@3@@Z@Cm@physx@@UEBAPEBDXZ 0000000180039f20 f i SimulationController_static_64:ScScene.obj
 0001:00038f20       ?getName@?$DelegateTask@VNpScene@physx@@$H?executeCollide@12@QEAAXPEAVPxBaseTask@2@@ZA@@Cm@physx@@UEBAPEBDXZ 0000000180039f20 f i NpScene.obj
 0001:00038f20       ?getName@?$DelegateTask@VScene@Sc@physx@@$1?setEdgesConnected@123@AEAAXPEAVPxBaseTask@3@@Z@Cm@physx@@UEBAPEBDXZ 0000000180039f20 f i SimulationController_static_64:ScScene.obj
 0001:00038f20       ?getName@?$DelegateTask@VScene@Sc@physx@@$1?postBroadPhaseStage2@123@AEAAXPEAVPxBaseTask@3@@Z@Cm@physx@@UEBAPEBDXZ 0000000180039f20 f i SimulationController_static_64:ScScene.obj
 0001:00038f20       ?getName@?$DelegateTask@VAABBManager@Bp@physx@@$1?postBpStage3@123@AEAAXPEAVPxBaseTask@3@@Z@Cm@physx@@UEBAPEBDXZ 0000000180039f20 f i LowLevelAABB_static_64:BpAABBManager.obj
 0001:00038f20       ?getName@?$DelegateTask@VScene@Sc@physx@@$1?processNarrowPhaseLostTouchEvents@123@AEAAXPEAVPxBaseTask@3@@Z@Cm@physx@@UEBAPEBDXZ 0000000180039f20 f i SimulationController_static_64:ScScene.obj
 0001:00038f20       ?getName@?$DelegateTask@VScene@Sc@physx@@$1?updateCCDSinglePassStage2@123@AEAAXPEAVPxBaseTask@3@@Z@Cm@physx@@UEBAPEBDXZ 0000000180039f20 f i SimulationController_static_64:ScScene.obj
 0001:00038f20       ?getName@?$DelegateTask@VScene@Sc@physx@@$1?postSolver@123@AEAAXPEAVPxBaseTask@3@@Z@Cm@physx@@UEBAPEBDXZ 0000000180039f20 f i SimulationController_static_64:ScScene.obj
 0001:00038f20       ?getName@?$DelegateTask@VScene@Sc@physx@@$1?processLostContacts2@123@AEAAXPEAVPxBaseTask@3@@Z@Cm@physx@@UEBAPEBDXZ 0000000180039f20 f i SimulationController_static_64:ScScene.obj
 0001:00038f20       ?getName@?$DelegateTask@VNpSceneQueries@physx@@$1?sceneQueriesStaticPrunerUpdate@12@QEAAXPEAVPxBaseTask@2@@Z@Cm@physx@@UEBAPEBDXZ 0000000180039f20 f i NpScene.obj
 0001:00038f20       ?getName@?$DelegateTask@VNpScene@physx@@$H?executeScene@12@QEAAXPEAVPxBaseTask@2@@ZA@@Cm@physx@@UEBAPEBDXZ 0000000180039f20 f i NpScene.obj
 0001:00038f20       ?getName@?$DelegateTask@VScene@Sc@physx@@$1?collideStep@123@AEAAXPEAVPxBaseTask@3@@Z@Cm@physx@@UEBAPEBDXZ 0000000180039f20 f i SimulationController_static_64:ScScene.obj
 0001:00038f20       ?getName@?$DelegateTask@VNpScene@physx@@$H?executeAdvance@12@QEAAXPEAVPxBaseTask@2@@ZA@@Cm@physx@@UEBAPEBDXZ 0000000180039f20 f i NpScene.obj
 0001:00038f20       ?getName@?$DelegateTask@VScene@Sc@physx@@$1?islandInsertion@123@QEAAXPEAVPxBaseTask@3@@Z@Cm@physx@@UEBAPEBDXZ 0000000180039f20 f i SimulationController_static_64:ScScene.obj
 0001:00038f20       ?getName@?$DelegateTask@VScene@Sc@physx@@$1?updateCCDSinglePassStage3@123@AEAAXPEAVPxBaseTask@3@@Z@Cm@physx@@UEBAPEBDXZ 0000000180039f20 f i SimulationController_static_64:ScScene.obj
 0001:00038f20       ?getName@?$DelegateTask@VNPhaseCore@Sc@physx@@$1?mergeProcessedTriggerInteractions@123@QEAAXPEAVPxBaseTask@3@@Z@Cm@physx@@UEBAPEBDXZ 0000000180039f20 f i SimulationController_static_64:ScNPhaseCore.obj
 0001:00038f20       ?getName@?$DelegateTask@VScene@Sc@physx@@$1?preRigidBodyNarrowPhase@123@AEAAXPEAVPxBaseTask@3@@Z@Cm@physx@@UEBAPEBDXZ 0000000180039f20 f i SimulationController_static_64:ScScene.obj
 0001:00038f20       ?getName@?$DelegateTask@VScene@Sc@physx@@$1?postBroadPhase@123@AEAAXPEAVPxBaseTask@3@@Z@Cm@physx@@UEBAPEBDXZ 0000000180039f20 f i SimulationController_static_64:ScScene.obj
 0001:00038f20       ?getName@?$DelegateTask@VPxsCCDContext@physx@@$1?postCCDAdvance@12@AEAAXPEAVPxBaseTask@2@@Z@Cm@physx@@UEBAPEBDXZ 0000000180039f20 f i LowLevel_static_64:PxsCCD.obj
 0001:00038f20       ?getName@?$DelegateTask@VScene@Sc@physx@@$1?updateDynamics@123@AEAAXPEAVPxBaseTask@3@@Z@Cm@physx@@UEBAPEBDXZ 0000000180039f20 f i SimulationController_static_64:ScScene.obj
 0001:00038f20       ?getName@?$DelegateTask@VScene@Sc@physx@@$1?postIslandGen@123@AEAAXPEAVPxBaseTask@3@@Z@Cm@physx@@UEBAPEBDXZ 0000000180039f20 f i SimulationController_static_64:ScScene.obj
 0001:00038f20       ?getName@?$DelegateTask@VNpSceneQueries@physx@@$1?sceneQueriesDynamicPrunerUpdate@12@QEAAXPEAVPxBaseTask@2@@Z@Cm@physx@@UEBAPEBDXZ 0000000180039f20 f i NpScene.obj
 0001:00038f20       ?getName@?$DelegateTask@VScene@Sc@physx@@$1?postCCDPass@123@AEAAXPEAVPxBaseTask@3@@Z@Cm@physx@@UEBAPEBDXZ 0000000180039f20 f i SimulationController_static_64:ScScene.obj
 0001:00038f30       ?getName@NpContactCallbackTask@physx@@UEBAPEBDXZ 0000000180039f30 f i NpScene.obj
 0001:00038f40       ?getName@SceneCompletion@NpScene@physx@@UEBAPEBDXZ 0000000180039f40 f i NpScene.obj
 0001:00038f50       ?getNbActors@NpScene@physx@@UEBAIV?$PxFlags@W4Enum@PxActorTypeFlag@physx@@G@2@@Z 0000000180039f50 f   NpScene.obj
 0001:00038ff0       ?getNbAggregates@NpScene@physx@@UEBAIXZ 0000000180039ff0 f   NpScene.obj
 0001:00039000       ?getNbArticulations@NpScene@physx@@UEBAIXZ 000000018003a000 f   NpScene.obj
 0001:00039010       ?getNbBroadPhaseRegions@NpScene@physx@@UEBAIXZ 000000018003a010 f   NpScene.obj
 0001:00039020       ?getNbConstraints@NpScene@physx@@UEBAIXZ 000000018003a020 f   NpScene.obj
 0001:00039030       ?getNbContactDataBlocksUsed@NpScene@physx@@UEBAIXZ 000000018003a030 f   NpScene.obj
 0001:00039040       ?getRenderBuffer@NpScene@physx@@UEAAAEBVPxRenderBuffer@2@XZ 000000018003a040 f   NpScene.obj
 0001:000390a0       ?getSceneQueryStaticTimestamp@NpScene@physx@@UEBAIXZ 000000018003a0a0 f   NpScene.obj
 0001:000390b0       ?getSceneQueryUpdateMode@NpScene@physx@@UEBA?AW4Enum@PxSceneQueryUpdateMode@2@XZ 000000018003a0b0 f   NpScene.obj
 0001:000390c0       ?getSimulationController@NpScene@physx@@UEAAPEAVPxsSimulationController@2@XZ 000000018003a0c0 f   NpScene.obj
 0001:000390d0       ?getSimulationEventCallback@NpScene@physx@@UEBAPEAVPxSimulationEventCallback@2@XZ 000000018003a0d0 f   NpScene.obj
 0001:000390e0       ?getSimulationStatistics@NpScene@physx@@UEBAXAEAVPxSimulationStatistics@2@@Z 000000018003a0e0 f   NpScene.obj
 0001:00039130       ?getSolverArticulationBatchSize@NpScene@physx@@UEBAIXZ 000000018003a130 f   NpScene.obj
 0001:00039150       ?getSolverBatchSize@NpScene@physx@@UEBAIXZ 000000018003a150 f   NpScene.obj
 0001:00039170       ?getStaticKinematicFilteringMode@NpScene@physx@@UEBA?AW4Enum@PxPairFilteringMode@2@XZ 000000018003a170 f   NpScene.obj
 0001:00039180       ?getStaticStructure@NpScene@physx@@UEBA?AW4Enum@PxPruningStructureType@2@XZ 000000018003a180 f   NpScene.obj
 0001:00039190       ?getTaskManager@NpScene@physx@@UEAAPEAVPxTaskManager@2@XZ 000000018003a190 f i NpScene.obj
 0001:00039190       ?getTaskManager@NpScene@physx@@UEBAPEAVPxTaskManager@2@XZ 000000018003a190 f i NpScene.obj
 0001:000391a0       ?getTimestamp@NpScene@physx@@UEBAIXZ 000000018003a1a0 f   NpScene.obj
 0001:000391b0       ?getVisualizationCullingBox@NpScene@physx@@UEBA?AVPxBounds3@2@XZ 000000018003a1b0 f   NpScene.obj
 0001:00039200       ?getVisualizationParameter@NpScene@physx@@UEBAMW4Enum@PxVisualizationParameter@2@@Z 000000018003a200 f   NpScene.obj
 0001:00039270       ?getWakeCounterResetValue@NpScene@physx@@UEBAMXZ 000000018003a270 f   NpScene.obj
 0001:00039280       ?growAndPushBack@?$Array@PEAEV?$ReflectionAllocator@PEAE@shdfnd@physx@@@shdfnd@physx@@IEAAAEAPEAEAEBQEAE@Z 000000018003a280 f i NpScene.obj
 0001:000393a0       ?growAndPushBack@?$Array@PEAVNpBatchQuery@physx@@V?$ReflectionAllocator@PEAVNpBatchQuery@physx@@@shdfnd@2@@shdfnd@physx@@IEAAAEAPEAVNpBatchQuery@3@AEBQEAV43@@Z 000000018003a3a0 f i NpScene.obj
 0001:000394c0       ?growAndPushBack@?$Array@PEAVPxRigidActor@physx@@V?$ReflectionAllocator@PEAVPxRigidActor@physx@@@shdfnd@2@@shdfnd@physx@@IEAAAEAPEAVPxRigidActor@3@AEBQEAV43@@Z 000000018003a4c0 f i NpScene.obj
 0001:00039580       ?growAndPushBack@?$Array@PEAXV?$ReflectionAllocator@U?$Block@E$0BAA@@Scene@Sc@physx@@@shdfnd@physx@@@shdfnd@physx@@IEAAAEAPEAXAEBQEAX@Z 000000018003a580 f i NpScene.obj
 0001:00039660       ?growAndPushBack@?$Array@PEAXV?$ReflectionAllocator@U?$Block@E$0BIA@@Scene@Sc@physx@@@shdfnd@physx@@@shdfnd@physx@@IEAAAEAPEAXAEBQEAX@Z 000000018003a660 f i NpScene.obj
 0001:00039740       ?growAndPushBack@?$Array@PEAXV?$ReflectionAllocator@U?$Block@E$0IA@@Scene@Sc@physx@@@shdfnd@physx@@@shdfnd@physx@@IEAAAEAPEAXAEBQEAX@Z 000000018003a740 f i NpScene.obj
 0001:00039820       ?growAndPushBack@?$Array@PEAXV?$ReflectionAllocator@U?$Block@PEAX$07@Scene@Sc@physx@@@shdfnd@physx@@@shdfnd@physx@@IEAAAEAPEAXAEBQEAX@Z 000000018003a820 f i NpScene.obj
 0001:00039900       ?growAndPushBack@?$Array@PEAXV?$ReflectionAllocator@U?$Block@PEAX$0BA@@Scene@Sc@physx@@@shdfnd@physx@@@shdfnd@physx@@IEAAAEAPEAXAEBQEAX@Z 000000018003a900 f i NpScene.obj
 0001:000399e0       ?growAndPushBack@?$Array@PEAXV?$ReflectionAllocator@U?$Block@PEAX$0CA@@Scene@Sc@physx@@@shdfnd@physx@@@shdfnd@physx@@IEAAAEAPEAXAEBQEAX@Z 000000018003a9e0 f i NpScene.obj
 0001:00039ac0       ?growAndPushBack@?$Array@UPxDebugLine@physx@@V?$ReflectionAllocator@UPxDebugLine@physx@@@shdfnd@2@@shdfnd@physx@@IEAAAEAUPxDebugLine@3@AEBU43@@Z 000000018003aac0 f i NpScene.obj
 0001:00039b90       ?growAndPushBack@?$Array@UPxDebugPoint@physx@@V?$ReflectionAllocator@UPxDebugPoint@physx@@@shdfnd@2@@shdfnd@physx@@IEAAAEAUPxDebugPoint@3@AEBU43@@Z 000000018003ab90 f i NpScene.obj
 0001:00039c50       ?growAndPushBack@?$Array@UPxDebugText@physx@@V?$ReflectionAllocator@UPxDebugText@physx@@@shdfnd@2@@shdfnd@physx@@IEAAAEAUPxDebugText@3@AEBU43@@Z 000000018003ac50 f i NpScene.obj
 0001:00039d20       ?growAndPushBack@?$Array@UPxDebugTriangle@physx@@V?$ReflectionAllocator@UPxDebugTriangle@physx@@@shdfnd@2@@shdfnd@physx@@IEAAAEAUPxDebugTriangle@3@AEBU43@@Z 000000018003ad20 f i NpScene.obj
 0001:00039e20       ?isAddedShape@RigidObject@Scb@physx@@QEAA_NAEAVShape@23@@Z 000000018003ae20 f i NpScene.obj
 0001:00039eb0       ?loadFromDesc@NpScene@physx@@QEAA_NAEBVPxSceneDesc@2@@Z 000000018003aeb0 f   NpScene.obj
 0001:00039f20       ?lockRead@NpScene@physx@@UEAAXPEBDI@Z 000000018003af20 f   NpScene.obj
 0001:00039fb0       ?lockWrite@NpScene@physx@@UEAAXPEBDI@Z 000000018003afb0 f   NpScene.obj
 0001:0003a0a0       ?processCallbacks@NpScene@physx@@UEAAXPEAVPxBaseTask@2@@Z 000000018003b0a0 f   NpScene.obj
 0001:0003a2c0       ?recreate@?$Array@GV?$ReflectionAllocator@G@shdfnd@physx@@@shdfnd@physx@@IEAAXI@Z 000000018003b2c0 f i NpScene.obj
 0001:0003a380       ?recreate@?$Array@PEAVActor@Scb@physx@@V?$ReflectionAllocator@PEAVActor@Scb@physx@@@shdfnd@3@@shdfnd@physx@@IEAAXI@Z 000000018003b380 f i NpScene.obj
 0001:0003a490       ?recreate@?$Array@PEAVPxRigidActor@physx@@V?$ReflectionAllocator@PEAVPxRigidActor@physx@@@shdfnd@2@@shdfnd@physx@@IEAAXI@Z 000000018003b490 f i NpScene.obj
 0001:0003a530       ?recreate@?$Array@PEAVShape@Scb@physx@@V?$ReflectionAllocator@PEAVShape@Scb@physx@@@shdfnd@3@@shdfnd@physx@@IEAAXI@Z 000000018003b530 f i NpScene.obj
 0001:0003a5f0       ?recreate@?$Array@UPxDebugPoint@physx@@V?$ReflectionAllocator@UPxDebugPoint@physx@@@shdfnd@2@@shdfnd@physx@@IEAAXI@Z 000000018003b5f0 f i NpScene.obj
 0001:0003a680       ?recreate@?$Array@UPxDebugText@physx@@V?$ReflectionAllocator@UPxDebugText@physx@@@shdfnd@2@@shdfnd@physx@@IEAAXI@Z 000000018003b680 f i NpScene.obj
 0001:0003a710       ?recreate@?$Array@UPxDebugTriangle@physx@@V?$ReflectionAllocator@UPxDebugTriangle@physx@@@shdfnd@2@@shdfnd@physx@@IEAAXI@Z 000000018003b710 f i NpScene.obj
 0001:0003a7a0       ?recreate@?$Array@VPxBounds3@physx@@V?$InlineAllocator@$0MA@V?$ReflectionAllocator@VPxBounds3@physx@@@shdfnd@physx@@@shdfnd@2@@shdfnd@physx@@IEAAXI@Z 000000018003b7a0 f i NpScene.obj
 0001:0003a960       ?release@NpScene@physx@@UEAAXXZ 000000018003b960 f   NpScene.obj
 0001:0003aa30       ?release@PxLightCpuTask@physx@@UEAAXXZ 000000018003ba30 f i NpScene.obj
 0001:0003aa50       ?release@SceneCompletion@NpScene@physx@@UEAAXXZ 000000018003ba50 f i NpScene.obj
 0001:0003aa80       ?releaseBatchQuery@NpScene@physx@@QEAAXPEAVPxBatchQuery@2@@Z 000000018003ba80 f   NpScene.obj
 0001:0003aae0       ?removeActor@NpScene@physx@@UEAAXAEAVPxActor@2@_N@Z 000000018003bae0 f   NpScene.obj
 0001:0003ab70       ?removeActorInternal@NpScene@physx@@QEAAXAEAVPxActor@2@_N1@Z 000000018003bb70 f   NpScene.obj
 0001:0003ada0       ?removeActors@NpScene@physx@@UEAAXPEBQEAVPxActor@2@I_N@Z 000000018003bda0 f   NpScene.obj
 0001:0003b2c0       ?removeAggregate@NpScene@physx@@UEAAXAEAVPxAggregate@2@_N@Z 000000018003c2c0 f   NpScene.obj
 0001:0003b490       ?removeArticulation@NpScene@physx@@UEAAXAEAVPxArticulationBase@2@_N@Z 000000018003c490 f   NpScene.obj
 0001:0003b520       ?removeArticulationInternal@NpScene@physx@@QEAAXAEAVPxArticulationBase@2@_N1@Z 000000018003c520 f   NpScene.obj
 0001:0003b7f0       ?removeBroadPhaseRegion@NpScene@physx@@UEAA_NI@Z 000000018003c7f0 f   NpScene.obj
 0001:0003b800       ?removeFromRigidActorList@NpScene@physx@@QEAAXAEBI@Z 000000018003c800 f   NpScene.obj
 0001:0003b870       ?removeMaterial@NpScene@physx@@QEAAXAEBVNpMaterial@2@@Z 000000018003c870 f   NpScene.obj
 0001:0003b880       ?removeReference@PxLightCpuTask@physx@@UEAAXXZ 000000018003c880 f i NpScene.obj
 0001:0003b8a0       ?resetFiltering@?$NpRigidActorTemplate@VPxRigidStatic@physx@@@physx@@QEAA_NAEAVRigidObject@Scb@2@PEBQEAVPxShape@2@I@Z 000000018003c8a0 f i NpScene.obj
 0001:0003b8a0       ?resetFiltering@?$NpRigidActorTemplate@VPxArticulationLink@physx@@@physx@@QEAA_NAEAVRigidObject@Scb@2@PEBQEAVPxShape@2@I@Z 000000018003c8a0 f i NpScene.obj
 0001:0003b8a0       ?resetFiltering@?$NpRigidActorTemplate@VPxRigidDynamic@physx@@@physx@@QEAA_NAEAVRigidObject@Scb@2@PEBQEAVPxShape@2@I@Z 000000018003c8a0 f i NpScene.obj
 0001:0003ba20       ?resetFiltering@NpScene@physx@@UEAAXAEAVPxActor@2@@Z 000000018003ca20 f   NpScene.obj
 0001:0003bb20       ?resetFiltering@NpScene@physx@@UEAAXAEAVPxRigidActor@2@PEBQEAVPxShape@2@I@Z 000000018003cb20 f   NpScene.obj
 0001:0003bc20       ?resetFiltering@RigidObject@Scb@physx@@QEAAXPEBQEAVShape@23@I@Z 000000018003cc20 f i NpScene.obj
 0001:0003bec0       ?resize@?$Array@GV?$ReflectionAllocator@G@shdfnd@physx@@@shdfnd@physx@@QEAAXIAEBG@Z 000000018003cec0 f i NpScene.obj
 0001:0003bf80       ?resize@?$Array@PEAVActor@Scb@physx@@V?$ReflectionAllocator@PEAVActor@Scb@physx@@@shdfnd@3@@shdfnd@physx@@QEAAXIAEBQEAVActor@Scb@3@@Z 000000018003cf80 f i NpScene.obj
 0001:0003c040       ?resize@?$Array@PEAVShape@Scb@physx@@V?$ReflectionAllocator@PEAVShape@Scb@physx@@@shdfnd@3@@shdfnd@physx@@QEAAXIAEBQEAVShape@Scb@3@@Z 000000018003d040 f i NpScene.obj
 0001:0003c100       ?resizeUninitialized@?$Array@VPxBounds3@physx@@V?$InlineAllocator@$0MA@V?$ReflectionAllocator@VPxBounds3@physx@@@shdfnd@physx@@@shdfnd@2@@shdfnd@physx@@QEAAXI@Z 000000018003d100 f i NpScene.obj
 0001:0003c150       ?run@NpContactCallbackTask@physx@@UEAAXXZ 000000018003d150 f   NpScene.obj
 0001:0003c1e0       ?run@Task@Cm@physx@@UEAAXXZ 000000018003d1e0 f i NpScene.obj
 0001:0003c1e0       ?run@BaseTask@Cm@physx@@UEAAXXZ 000000018003d1e0 f i SimulationController_static_64:ScScene.obj
 0001:0003c220       ?runInternal@?$DelegateTask@VNpScene@physx@@$H?executeAdvance@12@QEAAXPEAVPxBaseTask@2@@ZA@@Cm@physx@@UEAAXXZ 000000018003d220 f i NpScene.obj
 0001:0003c240       ?runInternal@?$DelegateTask@VNpScene@physx@@$H?executeCollide@12@QEAAXPEAVPxBaseTask@2@@ZA@@Cm@physx@@UEAAXXZ 000000018003d240 f i NpScene.obj
 0001:0003c260       ?runInternal@?$DelegateTask@VNpScene@physx@@$H?executeScene@12@QEAAXPEAVPxBaseTask@2@@ZA@@Cm@physx@@UEAAXXZ 000000018003d260 f i NpScene.obj
 0001:0003c280       ?runInternal@?$DelegateTask@VNpSceneQueries@physx@@$1?sceneQueriesDynamicPrunerUpdate@12@QEAAXPEAVPxBaseTask@2@@Z@Cm@physx@@UEAAXXZ 000000018003d280 f i NpScene.obj
 0001:0003c290       ?runInternal@?$DelegateTask@VNpSceneQueries@physx@@$1?sceneQueriesStaticPrunerUpdate@12@QEAAXPEAVPxBaseTask@2@@Z@Cm@physx@@UEAAXXZ 000000018003d290 f i NpScene.obj
 0001:0003c2a0       ?sceneQueriesUpdate@NpScene@physx@@UEAAXPEAVPxBaseTask@2@_N@Z 000000018003d2a0 f   NpScene.obj
 0001:0003c460       ?setActiveActors@NpScene@physx@@UEAAXPEAPEAVPxActor@2@I@Z 000000018003d460 f   NpScene.obj
 0001:0003c470       ?setBounceThresholdVelocity@NpScene@physx@@UEAAXM@Z 000000018003d470 f   NpScene.obj
 0001:0003c4a0       ?setBroadPhaseCallback@NpScene@physx@@UEAAXPEAVPxBroadPhaseCallback@2@@Z 000000018003d4a0 f   NpScene.obj
 0001:0003c4f0       ?setCCDContactModifyCallback@NpScene@physx@@UEAAXPEAVPxCCDContactModifyCallback@2@@Z 000000018003d4f0 f   NpScene.obj
 0001:0003c540       ?setCCDMaxPasses@NpScene@physx@@UEAAXI@Z 000000018003d540 f   NpScene.obj
 0001:0003c590       ?setContactModifyCallback@NpScene@physx@@UEAAXPEAVPxContactModifyCallback@2@@Z 000000018003d590 f   NpScene.obj
 0001:0003c5e0       ?setDominanceGroupPair@NpScene@physx@@UEAAXEEAEBUPxDominanceGroupPair@2@@Z 000000018003d5e0 f   NpScene.obj
 0001:0003c6b0       ?setDynamicTreeRebuildRateHint@NpScene@physx@@UEAAXI@Z 000000018003d6b0 f   NpScene.obj
 0001:0003c6c0       ?setFilterShaderData@NpScene@physx@@UEAAXPEBXI@Z 000000018003d6c0 f   NpScene.obj
 0001:0003c710       ?setFlag@NpScene@physx@@UEAAXW4Enum@PxSceneFlag@2@_N@Z 000000018003d710 f   NpScene.obj
 0001:0003c7a0       ?setFrictionType@NpScene@physx@@UEAAXW4Enum@PxFrictionType@2@@Z 000000018003d7a0 f   NpScene.obj
 0001:0003c7b0       ?setFrozenActorFlag@NpScene@physx@@UEAAX_N@Z 000000018003d7b0 f   NpScene.obj
 0001:0003c7c0       ?setGravity@NpScene@physx@@UEAAXAEBVPxVec3@2@@Z 000000018003d7c0 f   NpScene.obj
 0001:0003c820       ?setLimits@NpScene@physx@@UEAAXAEBVPxSceneLimits@2@@Z 000000018003d820 f   NpScene.obj
 0001:0003c8a0       ?setNbContactDataBlocks@NpScene@physx@@UEAAXI@Z 000000018003d8a0 f   NpScene.obj
 0001:0003c8b0       ?setSceneQueryUpdateMode@NpScene@physx@@UEAAXW4Enum@PxSceneQueryUpdateMode@2@@Z 000000018003d8b0 f   NpScene.obj
 0001:0003c8c0       ?setSimulationEventCallback@NpScene@physx@@UEAAXPEAVPxSimulationEventCallback@2@@Z 000000018003d8c0 f   NpScene.obj
 0001:0003c910       ?setSolverArticulationBatchSize@NpScene@physx@@UEAAXI@Z 000000018003d910 f   NpScene.obj
 0001:0003c940       ?setSolverBatchSize@NpScene@physx@@UEAAXI@Z 000000018003d940 f   NpScene.obj
 0001:0003c960       ?setVisualizationCullingBox@NpScene@physx@@UEAAXAEBVPxBounds3@2@@Z 000000018003d960 f   NpScene.obj
 0001:0003c9b0       ?setVisualizationParameter@NpScene@physx@@UEAA_NW4Enum@PxVisualizationParameter@2@M@Z 000000018003d9b0 f   NpScene.obj
 0001:0003ca50       ?shift@RenderBuffer@Cm@physx@@QEAAXAEBVPxVec3@3@@Z 000000018003da50 f i NpScene.obj
 0001:0003cc40       ?shiftOrigin@NpScene@physx@@UEAAXAEBVPxVec3@2@@Z 000000018003dc40 f   NpScene.obj
 0001:0003d100       ?simulate@NpScene@physx@@UEAAXMPEAVPxBaseTask@2@PEAXI_N@Z 000000018003e100 f   NpScene.obj
 0001:0003d140       ?simulateOrCollide@NpScene@physx@@AEAAXMPEAVPxBaseTask@2@PEAXI_NPEBDW4Enum@SimulationStage@Sc@2@@Z 000000018003e140 f   NpScene.obj
 0001:0003d3c0       ?unlockRead@NpScene@physx@@UEAAXXZ 000000018003e3c0 f   NpScene.obj
 0001:0003d480       ?unlockWrite@NpScene@physx@@UEAAXXZ 000000018003e480 f   NpScene.obj
 0001:0003d550       ?updateMaterial@NpScene@physx@@QEAAXAEBVNpMaterial@2@@Z 000000018003e550 f   NpScene.obj
 0001:0003d560       ?updateScbStateAndSetupSq@NpScene@physx@@AEAAXAEBVPxRigidActor@2@AEAVActor@Scb@2@AEAVNpShapeManager@2@_NPEBVPxBounds3@2@3@Z 000000018003e560 f   NpScene.obj
 0001:0003d690       ?visualize@NpScene@physx@@AEAAXXZ 000000018003e690 f   NpScene.obj
 0001:0003da90       ??$multiQuery@UPxOverlapHit@physx@@@NpSceneQueries@physx@@QEBA_NAEBUMultiQueryInput@1@AEAU?$PxHitCallback@UPxOverlapHit@physx@@@1@V?$PxFlags@W4Enum@PxHitFlag@physx@@G@1@PEBUPxQueryCache@1@AEBUPxQueryFilterData@1@PEAVPxQueryFilterCallback@1@PEAUBatchQueryFilterData@1@@Z 000000018003ea90 f i NpSceneQueries.obj
 0001:0003dd40       ??$multiQuery@UPxRaycastHit@physx@@@NpSceneQueries@physx@@QEBA_NAEBUMultiQueryInput@1@AEAU?$PxHitCallback@UPxRaycastHit@physx@@@1@V?$PxFlags@W4Enum@PxHitFlag@physx@@G@1@PEBUPxQueryCache@1@AEBUPxQueryFilterData@1@PEAVPxQueryFilterCallback@1@PEAUBatchQueryFilterData@1@@Z 000000018003ed40 f i NpSceneQueries.obj
 0001:0003e0b0       ??$multiQuery@UPxSweepHit@physx@@@NpSceneQueries@physx@@QEBA_NAEBUMultiQueryInput@1@AEAU?$PxHitCallback@UPxSweepHit@physx@@@1@V?$PxFlags@W4Enum@PxHitFlag@physx@@G@1@PEBUPxQueryCache@1@AEBUPxQueryFilterData@1@PEAVPxQueryFilterCallback@1@PEAUBatchQueryFilterData@1@@Z 000000018003f0b0 f i NpSceneQueries.obj
 0001:0003e4e0       ??_G?$MultiQueryCallback@UPxRaycastHit@physx@@@@UEAAPEAXI@Z 000000018003f4e0 f i NpSceneQueries.obj
 0001:0003e4e0       ??_E?$MultiQueryCallback@UPxRaycastHit@physx@@@@UEAAPEAXI@Z 000000018003f4e0 f i NpSceneQueries.obj
 0001:0003e4e0       ??_G?$MultiQueryCallback@UPxSweepHit@physx@@@@UEAAPEAXI@Z 000000018003f4e0 f i NpSceneQueries.obj
 0001:0003e4e0       ??_G?$MultiQueryCallback@UPxOverlapHit@physx@@@@UEAAPEAXI@Z 000000018003f4e0 f i NpSceneQueries.obj
 0001:0003e4e0       ??_E?$MultiQueryCallback@UPxOverlapHit@physx@@@@UEAAPEAXI@Z 000000018003f4e0 f i NpSceneQueries.obj
 0001:0003e4e0       ??_E?$MultiQueryCallback@UPxSweepHit@physx@@@@UEAAPEAXI@Z 000000018003f4e0 f i NpSceneQueries.obj
 0001:0003e510       ?invoke@?$MultiQueryCallback@UPxOverlapHit@physx@@@@UEAA_NAEAMAEBUPrunerPayload@Sq@physx@@@Z 000000018003f510 f i NpSceneQueries.obj
 0001:0003e940       ?invoke@?$MultiQueryCallback@UPxRaycastHit@physx@@@@UEAA_NAEAMAEBUPrunerPayload@Sq@physx@@@Z 000000018003f940 f i NpSceneQueries.obj
 0001:0003f080       ?invoke@?$MultiQueryCallback@UPxSweepHit@physx@@@@UEAA_NAEAMAEBUPrunerPayload@Sq@physx@@@Z 0000000180040080 f i NpSceneQueries.obj
 0001:0003fe20       ?overlap@NpSceneQueries@physx@@UEBA_NAEBVPxGeometry@2@AEBVPxTransform@2@AEAU?$PxHitCallback@UPxOverlapHit@physx@@@2@AEBUPxQueryFilterData@2@PEAVPxQueryFilterCallback@2@@Z 0000000180040e20 f   NpSceneQueries.obj
 0001:0003fec0       ?raycast@NpSceneQueries@physx@@UEBA_NAEBVPxVec3@2@0MAEAU?$PxHitCallback@UPxRaycastHit@physx@@@2@V?$PxFlags@W4Enum@PxHitFlag@physx@@G@2@AEBUPxQueryFilterData@2@PEAVPxQueryFilterCallback@2@PEBUPxQueryCache@2@@Z 0000000180040ec0 f   NpSceneQueries.obj
 0001:0003ff90       ?sceneQueriesDynamicPrunerUpdate@NpSceneQueries@physx@@QEAAXPEAVPxBaseTask@2@@Z 0000000180040f90 f   NpSceneQueries.obj
 0001:0003ffb0       ?sceneQueriesStaticPrunerUpdate@NpSceneQueries@physx@@QEAAXPEAVPxBaseTask@2@@Z 0000000180040fb0 f   NpSceneQueries.obj
 0001:0003ffc0       ?sweep@NpSceneQueries@physx@@UEBA_NAEBVPxGeometry@2@AEBVPxTransform@2@AEBVPxVec3@2@MAEAU?$PxHitCallback@UPxSweepHit@physx@@@2@V?$PxFlags@W4Enum@PxHitFlag@physx@@G@2@AEBUPxQueryFilterData@2@PEAVPxQueryFilterCallback@2@PEBUPxQueryCache@2@M@Z 0000000180040fc0 f   NpSceneQueries.obj
 0001:000401c0       ??_E?$PxSerializerDefaultAdapter@VNpArticulationJoint@physx@@@physx@@UEAAPEAXI@Z 00000001800411c0 f i NpSerializerAdapter.obj
 0001:000401c0       ??_G?$PxSerializerDefaultAdapter@VNpRigidStatic@physx@@@physx@@UEAAPEAXI@Z 00000001800411c0 f i NpSerializerAdapter.obj
 0001:000401c0       ??_G?$PxSerializerDefaultAdapter@VNpArticulationJointReducedCoordinate@physx@@@physx@@UEAAPEAXI@Z 00000001800411c0 f i NpSerializerAdapter.obj
 0001:000401c0       ??_E?$PxSerializerDefaultAdapter@VNpArticulation@physx@@@physx@@UEAAPEAXI@Z 00000001800411c0 f i NpSerializerAdapter.obj
 0001:000401c0       ??_E?$PxSerializerDefaultAdapter@VNpShape@physx@@@physx@@UEAAPEAXI@Z 00000001800411c0 f i NpSerializerAdapter.obj
 0001:000401c0       ??_G?$PxSerializerDefaultAdapter@VNpArticulationReducedCoordinate@physx@@@physx@@UEAAPEAXI@Z 00000001800411c0 f i NpSerializerAdapter.obj
 0001:000401c0       ??_G?$PxSerializerDefaultAdapter@VNpConstraint@physx@@@physx@@UEAAPEAXI@Z 00000001800411c0 f i NpSerializerAdapter.obj
 0001:000401c0       ??_G?$PxSerializerDefaultAdapter@VNpArticulation@physx@@@physx@@UEAAPEAXI@Z 00000001800411c0 f i NpSerializerAdapter.obj
 0001:000401c0       ??_G?$PxSerializerDefaultAdapter@VConvexMesh@Gu@physx@@@physx@@UEAAPEAXI@Z 00000001800411c0 f i NpSerializerAdapter.obj
 0001:000401c0       ??_E?$PxSerializerDefaultAdapter@VNpRigidDynamic@physx@@@physx@@UEAAPEAXI@Z 00000001800411c0 f i NpSerializerAdapter.obj
 0001:000401c0       ??_E?$PxSerializerDefaultAdapter@VNpMaterial@physx@@@physx@@UEAAPEAXI@Z 00000001800411c0 f i NpSerializerAdapter.obj
 0001:000401c0       ??_E?$PxSerializerDefaultAdapter@VNpArticulationJointReducedCoordinate@physx@@@physx@@UEAAPEAXI@Z 00000001800411c0 f i NpSerializerAdapter.obj
 0001:000401c0       ??_G?$PxSerializerDefaultAdapter@VNpAggregate@physx@@@physx@@UEAAPEAXI@Z 00000001800411c0 f i NpSerializerAdapter.obj
 0001:000401c0       ??_E?$PxSerializerDefaultAdapter@VNpAggregate@physx@@@physx@@UEAAPEAXI@Z 00000001800411c0 f i NpSerializerAdapter.obj
 0001:000401c0       ??_G?$PxSerializerDefaultAdapter@VHeightField@Gu@physx@@@physx@@UEAAPEAXI@Z 00000001800411c0 f i NpSerializerAdapter.obj
 0001:000401c0       ??_E?$PxSerializerDefaultAdapter@VNpArticulationLink@physx@@@physx@@UEAAPEAXI@Z 00000001800411c0 f i NpSerializerAdapter.obj
 0001:000401c0       ??_G?$PxSerializerDefaultAdapter@VNpArticulationLink@physx@@@physx@@UEAAPEAXI@Z 00000001800411c0 f i NpSerializerAdapter.obj
 0001:000401c0       ??_G?$PxSerializerDefaultAdapter@VNpMaterial@physx@@@physx@@UEAAPEAXI@Z 00000001800411c0 f i NpSerializerAdapter.obj
 0001:000401c0       ??_E?$PxSerializerDefaultAdapter@VBV4TriangleMesh@Gu@physx@@@physx@@UEAAPEAXI@Z 00000001800411c0 f i NpSerializerAdapter.obj
 0001:000401c0       ??_E?$PxSerializerDefaultAdapter@VPruningStructure@Sq@physx@@@physx@@UEAAPEAXI@Z 00000001800411c0 f i NpSerializerAdapter.obj
 0001:000401c0       ??_G?$PxSerializerDefaultAdapter@VRTreeTriangleMesh@Gu@physx@@@physx@@UEAAPEAXI@Z 00000001800411c0 f i NpSerializerAdapter.obj
 0001:000401c0       ??_G?$PxSerializerDefaultAdapter@VNpArticulationJoint@physx@@@physx@@UEAAPEAXI@Z 00000001800411c0 f i NpSerializerAdapter.obj
 0001:000401c0       ??_G?$PxSerializerDefaultAdapter@VNpShape@physx@@@physx@@UEAAPEAXI@Z 00000001800411c0 f i NpSerializerAdapter.obj
 0001:000401c0       ??_E?$PxSerializerDefaultAdapter@VNpConstraint@physx@@@physx@@UEAAPEAXI@Z 00000001800411c0 f i NpSerializerAdapter.obj
 0001:000401c0       ??_G?$PxSerializerDefaultAdapter@VBV4TriangleMesh@Gu@physx@@@physx@@UEAAPEAXI@Z 00000001800411c0 f i NpSerializerAdapter.obj
 0001:000401c0       ??_E?$PxSerializerDefaultAdapter@VRTreeTriangleMesh@Gu@physx@@@physx@@UEAAPEAXI@Z 00000001800411c0 f i NpSerializerAdapter.obj
 0001:000401c0       ??_E?$PxSerializerDefaultAdapter@VNpArticulationReducedCoordinate@physx@@@physx@@UEAAPEAXI@Z 00000001800411c0 f i NpSerializerAdapter.obj
 0001:000401c0       ??_E?$PxSerializerDefaultAdapter@VHeightField@Gu@physx@@@physx@@UEAAPEAXI@Z 00000001800411c0 f i NpSerializerAdapter.obj
 0001:000401c0       ??_G?$PxSerializerDefaultAdapter@VPruningStructure@Sq@physx@@@physx@@UEAAPEAXI@Z 00000001800411c0 f i NpSerializerAdapter.obj
 0001:000401c0       ??_E?$PxSerializerDefaultAdapter@VNpRigidStatic@physx@@@physx@@UEAAPEAXI@Z 00000001800411c0 f i NpSerializerAdapter.obj
 0001:000401c0       ??_E?$PxSerializerDefaultAdapter@VConvexMesh@Gu@physx@@@physx@@UEAAPEAXI@Z 00000001800411c0 f i NpSerializerAdapter.obj
 0001:000401c0       ??_G?$PxSerializerDefaultAdapter@VNpRigidDynamic@physx@@@physx@@UEAAPEAXI@Z 00000001800411c0 f i NpSerializerAdapter.obj
 0001:000401f0       ??_GPxSerializer@physx@@UEAAPEAXI@Z 00000001800411f0 f i NpSerializerAdapter.obj
 0001:000401f0       ??_EPxSerializer@physx@@UEAAPEAXI@Z 00000001800411f0 f i NpSerializerAdapter.obj
 0001:00040220       ??_ERequiresCallback@?1??registerReferences@?$PxSerializerDefaultAdapter@VNpAggregate@physx@@@physx@@UEBAXAEAVPxBase@3@AEAVPxSerializationContext@3@@Z@UEAAPEAXI@Z 0000000180041220 f i NpSerializerAdapter.obj
 0001:00040220       ??_ERequiresCallback@?1??registerReferences@?$PxSerializerDefaultAdapter@VNpShape@physx@@@physx@@UEBAXAEAVPxBase@3@AEAVPxSerializationContext@3@@Z@UEAAPEAXI@Z 0000000180041220 f i NpSerializerAdapter.obj
 0001:00040220       ??_GRequiresCallback@?1??registerReferences@?$PxSerializerDefaultAdapter@VRTreeTriangleMesh@Gu@physx@@@physx@@UEBAXAEAVPxBase@3@AEAVPxSerializationContext@3@@Z@UEAAPEAXI@Z 0000000180041220 f i NpSerializerAdapter.obj
 0001:00040220       ??_ERequiresCallback@?1??registerReferences@?$PxSerializerDefaultAdapter@VBV4TriangleMesh@Gu@physx@@@physx@@UEBAXAEAVPxBase@3@AEAVPxSerializationContext@3@@Z@UEAAPEAXI@Z 0000000180041220 f i NpSerializerAdapter.obj
 0001:00040220       ??_ERequiresCallback@?1??registerReferences@?$PxSerializerDefaultAdapter@VNpArticulationLink@physx@@@physx@@UEBAXAEAVPxBase@3@AEAVPxSerializationContext@3@@Z@UEAAPEAXI@Z 0000000180041220 f i NpSerializerAdapter.obj
 0001:00040220       ??_ERequiresCallback@?1??registerReferences@?$PxSerializerDefaultAdapter@VPruningStructure@Sq@physx@@@physx@@UEBAXAEAVPxBase@3@AEAVPxSerializationContext@3@@Z@UEAAPEAXI@Z 0000000180041220 f i NpSerializerAdapter.obj
 0001:00040220       ??_ERequiresCallback@?1??registerReferences@?$PxSerializerDefaultAdapter@VNpConstraint@physx@@@physx@@UEBAXAEAVPxBase@3@AEAVPxSerializationContext@3@@Z@UEAAPEAXI@Z 0000000180041220 f i NpSerializerAdapter.obj
 0001:00040220       ??_GRequiresCallback@?1??registerReferences@?$PxSerializerDefaultAdapter@VNpArticulation@physx@@@physx@@UEBAXAEAVPxBase@3@AEAVPxSerializationContext@3@@Z@UEAAPEAXI@Z 0000000180041220 f i NpSerializerAdapter.obj
 0001:00040220       ??_GRequiresCallback@?1??registerReferences@?$PxSerializerDefaultAdapter@VNpArticulationReducedCoordinate@physx@@@physx@@UEBAXAEAVPxBase@3@AEAVPxSerializationContext@3@@Z@UEAAPEAXI@Z 0000000180041220 f i NpSerializerAdapter.obj
 0001:00040220       ??_ERequiresCallback@?1??registerReferences@?$PxSerializerDefaultAdapter@VNpRigidStatic@physx@@@physx@@UEBAXAEAVPxBase@3@AEAVPxSerializationContext@3@@Z@UEAAPEAXI@Z 0000000180041220 f i NpSerializerAdapter.obj
 0001:00040220       ??_ERequiresCallback@?1??registerReferences@?$PxSerializerDefaultAdapter@VConvexMesh@Gu@physx@@@physx@@UEBAXAEAVPxBase@3@AEAVPxSerializationContext@3@@Z@UEAAPEAXI@Z 0000000180041220 f i NpSerializerAdapter.obj
 0001:00040220       ??_ERequiresCallback@?1??registerReferences@?$PxSerializerDefaultAdapter@VRTreeTriangleMesh@Gu@physx@@@physx@@UEBAXAEAVPxBase@3@AEAVPxSerializationContext@3@@Z@UEAAPEAXI@Z 0000000180041220 f i NpSerializerAdapter.obj
 0001:00040220       ??_GRequiresCallback@?1??registerReferences@?$PxSerializerDefaultAdapter@VConvexMesh@Gu@physx@@@physx@@UEBAXAEAVPxBase@3@AEAVPxSerializationContext@3@@Z@UEAAPEAXI@Z 0000000180041220 f i NpSerializerAdapter.obj
 0001:00040220       ??_GRequiresCallback@?1??registerReferences@?$PxSerializerDefaultAdapter@VNpShape@physx@@@physx@@UEBAXAEAVPxBase@3@AEAVPxSerializationContext@3@@Z@UEAAPEAXI@Z 0000000180041220 f i NpSerializerAdapter.obj
 0001:00040220       ??_ERequiresCallback@?1??registerReferences@?$PxSerializerDefaultAdapter@VNpArticulationJoint@physx@@@physx@@UEBAXAEAVPxBase@3@AEAVPxSerializationContext@3@@Z@UEAAPEAXI@Z 0000000180041220 f i NpSerializerAdapter.obj
 0001:00040220       ??_ERequiresCallback@?1??registerReferences@?$PxSerializerDefaultAdapter@VNpArticulationJointReducedCoordinate@physx@@@physx@@UEBAXAEAVPxBase@3@AEAVPxSerializationContext@3@@Z@UEAAPEAXI@Z 0000000180041220 f i NpSerializerAdapter.obj
 0001:00040220       ??_ERequiresCallback@?1??registerReferences@?$PxSerializerDefaultAdapter@VNpRigidDynamic@physx@@@physx@@UEBAXAEAVPxBase@3@AEAVPxSerializationContext@3@@Z@UEAAPEAXI@Z 0000000180041220 f i NpSerializerAdapter.obj
 0001:00040220       ??_GRequiresCallback@?1??registerReferences@?$PxSerializerDefaultAdapter@VNpRigidStatic@physx@@@physx@@UEBAXAEAVPxBase@3@AEAVPxSerializationContext@3@@Z@UEAAPEAXI@Z 0000000180041220 f i NpSerializerAdapter.obj
 0001:00040220       ??_GRequiresCallback@?1??registerReferences@?$PxSerializerDefaultAdapter@VHeightField@Gu@physx@@@physx@@UEBAXAEAVPxBase@3@AEAVPxSerializationContext@3@@Z@UEAAPEAXI@Z 0000000180041220 f i NpSerializerAdapter.obj
 0001:00040220       ??_GRequiresCallback@?1??registerReferences@?$PxSerializerDefaultAdapter@VBV4TriangleMesh@Gu@physx@@@physx@@UEBAXAEAVPxBase@3@AEAVPxSerializationContext@3@@Z@UEAAPEAXI@Z 0000000180041220 f i NpSerializerAdapter.obj
 0001:00040220       ??_GRequiresCallback@?1??registerReferences@?$PxSerializerDefaultAdapter@VNpAggregate@physx@@@physx@@UEBAXAEAVPxBase@3@AEAVPxSerializationContext@3@@Z@UEAAPEAXI@Z 0000000180041220 f i NpSerializerAdapter.obj
 0001:00040220       ??_GRequiresCallback@?1??registerReferences@?$PxSerializerDefaultAdapter@VNpConstraint@physx@@@physx@@UEBAXAEAVPxBase@3@AEAVPxSerializationContext@3@@Z@UEAAPEAXI@Z 0000000180041220 f i NpSerializerAdapter.obj
 0001:00040220       ??_ERequiresCallback@?1??registerReferences@?$PxSerializerDefaultAdapter@VNpArticulation@physx@@@physx@@UEBAXAEAVPxBase@3@AEAVPxSerializationContext@3@@Z@UEAAPEAXI@Z 0000000180041220 f i NpSerializerAdapter.obj
 0001:00040220       ??_GRequiresCallback@?1??registerReferences@?$PxSerializerDefaultAdapter@VNpArticulationJoint@physx@@@physx@@UEBAXAEAVPxBase@3@AEAVPxSerializationContext@3@@Z@UEAAPEAXI@Z 0000000180041220 f i NpSerializerAdapter.obj
 0001:00040220       ??_ERequiresCallback@?1??registerReferences@?$PxSerializerDefaultAdapter@VNpArticulationReducedCoordinate@physx@@@physx@@UEBAXAEAVPxBase@3@AEAVPxSerializationContext@3@@Z@UEAAPEAXI@Z 0000000180041220 f i NpSerializerAdapter.obj
 0001:00040220       ??_GRequiresCallback@?1??registerReferences@?$PxSerializerDefaultAdapter@VPruningStructure@Sq@physx@@@physx@@UEBAXAEAVPxBase@3@AEAVPxSerializationContext@3@@Z@UEAAPEAXI@Z 0000000180041220 f i NpSerializerAdapter.obj
 0001:00040220       ??_GRequiresCallback@?1??registerReferences@?$PxSerializerDefaultAdapter@VNpArticulationLink@physx@@@physx@@UEBAXAEAVPxBase@3@AEAVPxSerializationContext@3@@Z@UEAAPEAXI@Z 0000000180041220 f i NpSerializerAdapter.obj
 0001:00040220       ??_GRequiresCallback@?1??registerReferences@?$PxSerializerDefaultAdapter@VNpRigidDynamic@physx@@@physx@@UEBAXAEAVPxBase@3@AEAVPxSerializationContext@3@@Z@UEAAPEAXI@Z 0000000180041220 f i NpSerializerAdapter.obj
 0001:00040220       ??_GRequiresCallback@?1??registerReferences@?$PxSerializerDefaultAdapter@VNpArticulationJointReducedCoordinate@physx@@@physx@@UEBAXAEAVPxBase@3@AEAVPxSerializationContext@3@@Z@UEAAPEAXI@Z 0000000180041220 f i NpSerializerAdapter.obj
 0001:00040220       ??_ERequiresCallback@?1??registerReferences@?$PxSerializerDefaultAdapter@VHeightField@Gu@physx@@@physx@@UEBAXAEAVPxBase@3@AEAVPxSerializationContext@3@@Z@UEAAPEAXI@Z 0000000180041220 f i NpSerializerAdapter.obj
 0001:00040250       ?createObject@?$PxSerializerDefaultAdapter@VBV4TriangleMesh@Gu@physx@@@physx@@UEBAPEAVPxBase@2@AEAPEAEAEAVPxDeserializationContext@2@@Z 0000000180041250 f i NpSerializerAdapter.obj
 0001:00040260       ?createObject@?$PxSerializerDefaultAdapter@VConvexMesh@Gu@physx@@@physx@@UEBAPEAVPxBase@2@AEAPEAEAEAVPxDeserializationContext@2@@Z 0000000180041260 f i NpSerializerAdapter.obj
 0001:00040270       ?createObject@?$PxSerializerDefaultAdapter@VHeightField@Gu@physx@@@physx@@UEBAPEAVPxBase@2@AEAPEAEAEAVPxDeserializationContext@2@@Z 0000000180041270 f i NpSerializerAdapter.obj
 0001:00040280       ?createObject@?$PxSerializerDefaultAdapter@VNpAggregate@physx@@@physx@@UEBAPEAVPxBase@2@AEAPEAEAEAVPxDeserializationContext@2@@Z 0000000180041280 f i NpSerializerAdapter.obj
 0001:00040290       ?createObject@?$PxSerializerDefaultAdapter@VNpArticulation@physx@@@physx@@UEBAPEAVPxBase@2@AEAPEAEAEAVPxDeserializationContext@2@@Z 0000000180041290 f i NpSerializerAdapter.obj
 0001:000402a0       ?createObject@?$PxSerializerDefaultAdapter@VNpArticulationJoint@physx@@@physx@@UEBAPEAVPxBase@2@AEAPEAEAEAVPxDeserializationContext@2@@Z 00000001800412a0 f i NpSerializerAdapter.obj
 0001:000402b0       ?createObject@?$PxSerializerDefaultAdapter@VNpArticulationJointReducedCoordinate@physx@@@physx@@UEBAPEAVPxBase@2@AEAPEAEAEAVPxDeserializationContext@2@@Z 00000001800412b0 f i NpSerializerAdapter.obj
 0001:000402c0       ?createObject@?$PxSerializerDefaultAdapter@VNpArticulationLink@physx@@@physx@@UEBAPEAVPxBase@2@AEAPEAEAEAVPxDeserializationContext@2@@Z 00000001800412c0 f i NpSerializerAdapter.obj
 0001:000402d0       ?createObject@?$PxSerializerDefaultAdapter@VNpArticulationReducedCoordinate@physx@@@physx@@UEBAPEAVPxBase@2@AEAPEAEAEAVPxDeserializationContext@2@@Z 00000001800412d0 f i NpSerializerAdapter.obj
 0001:000402e0       ?createObject@?$PxSerializerDefaultAdapter@VNpConstraint@physx@@@physx@@UEBAPEAVPxBase@2@AEAPEAEAEAVPxDeserializationContext@2@@Z 00000001800412e0 f i NpSerializerAdapter.obj
 0001:000402f0       ?createObject@?$PxSerializerDefaultAdapter@VNpMaterial@physx@@@physx@@UEBAPEAVPxBase@2@AEAPEAEAEAVPxDeserializationContext@2@@Z 00000001800412f0 f i NpSerializerAdapter.obj
 0001:00040300       ?createObject@?$PxSerializerDefaultAdapter@VNpRigidDynamic@physx@@@physx@@UEBAPEAVPxBase@2@AEAPEAEAEAVPxDeserializationContext@2@@Z 0000000180041300 f i NpSerializerAdapter.obj
 0001:00040310       ?createObject@?$PxSerializerDefaultAdapter@VNpRigidStatic@physx@@@physx@@UEBAPEAVPxBase@2@AEAPEAEAEAVPxDeserializationContext@2@@Z 0000000180041310 f i NpSerializerAdapter.obj
 0001:00040320       ?createObject@?$PxSerializerDefaultAdapter@VNpShape@physx@@@physx@@UEBAPEAVPxBase@2@AEAPEAEAEAVPxDeserializationContext@2@@Z 0000000180041320 f i NpSerializerAdapter.obj
 0001:00040330       ?createObject@?$PxSerializerDefaultAdapter@VPruningStructure@Sq@physx@@@physx@@UEBAPEAVPxBase@2@AEAPEAEAEAVPxDeserializationContext@2@@Z 0000000180041330 f i NpSerializerAdapter.obj
 0001:00040340       ?createObject@?$PxSerializerDefaultAdapter@VRTreeTriangleMesh@Gu@physx@@@physx@@UEBAPEAVPxBase@2@AEAPEAEAEAVPxDeserializationContext@2@@Z 0000000180041340 f i NpSerializerAdapter.obj
 0001:00040350       ?exportData@?$PxSerializerDefaultAdapter@VBV4TriangleMesh@Gu@physx@@@physx@@UEBAXAEAVPxBase@2@AEAVPxSerializationContext@2@@Z 0000000180041350 f i NpSerializerAdapter.obj
 0001:00040450       ?exportData@?$PxSerializerDefaultAdapter@VConvexMesh@Gu@physx@@@physx@@UEBAXAEAVPxBase@2@AEAVPxSerializationContext@2@@Z 0000000180041450 f i NpSerializerAdapter.obj
 0001:00040550       ?exportData@?$PxSerializerDefaultAdapter@VHeightField@Gu@physx@@@physx@@UEBAXAEAVPxBase@2@AEAVPxSerializationContext@2@@Z 0000000180041550 f i NpSerializerAdapter.obj
 0001:00040630       ?exportData@?$PxSerializerDefaultAdapter@VNpAggregate@physx@@@physx@@UEBAXAEAVPxBase@2@AEAVPxSerializationContext@2@@Z 0000000180041630 f i NpSerializerAdapter.obj
 0001:000406f0       ?exportData@?$PxSerializerDefaultAdapter@VNpConstraint@physx@@@physx@@UEBAXAEAVPxBase@2@AEAVPxSerializationContext@2@@Z 00000001800416f0 f i NpSerializerAdapter.obj
 0001:000406f0       ?exportData@?$PxSerializerDefaultAdapter@VNpArticulation@physx@@@physx@@UEBAXAEAVPxBase@2@AEAVPxSerializationContext@2@@Z 00000001800416f0 f i NpSerializerAdapter.obj
 0001:000407f0       ?exportData@?$PxSerializerDefaultAdapter@VNpArticulationJoint@physx@@@physx@@UEBAXAEAVPxBase@2@AEAVPxSerializationContext@2@@Z 00000001800417f0 f i NpSerializerAdapter.obj
 0001:000407f0       ?exportData@?$PxSerializerDefaultAdapter@VNpArticulationJointReducedCoordinate@physx@@@physx@@UEBAXAEAVPxBase@2@AEAVPxSerializationContext@2@@Z 00000001800417f0 f i NpSerializerAdapter.obj
 0001:00040900       ?exportData@?$PxSerializerDefaultAdapter@VNpArticulationLink@physx@@@physx@@UEBAXAEAVPxBase@2@AEAVPxSerializationContext@2@@Z 0000000180041900 f i NpSerializerAdapter.obj
 0001:00040a60       ?exportData@?$PxSerializerDefaultAdapter@VNpArticulationReducedCoordinate@physx@@@physx@@UEBAXAEAVPxBase@2@AEAVPxSerializationContext@2@@Z 0000000180041a60 f i NpSerializerAdapter.obj
 0001:00040b70       ?exportData@?$PxSerializerDefaultAdapter@VNpMaterial@physx@@@physx@@UEBAXAEAVPxBase@2@AEAVPxSerializationContext@2@@Z 0000000180041b70 f i NpSerializerAdapter.obj
 0001:00040c30       ?exportData@?$PxSerializerDefaultAdapter@VNpRigidDynamic@physx@@@physx@@UEBAXAEAVPxBase@2@AEAVPxSerializationContext@2@@Z 0000000180041c30 f i NpSerializerAdapter.obj
 0001:00040d20       ?exportData@?$PxSerializerDefaultAdapter@VNpRigidStatic@physx@@@physx@@UEBAXAEAVPxBase@2@AEAVPxSerializationContext@2@@Z 0000000180041d20 f i NpSerializerAdapter.obj
 0001:00040e50       ?exportData@?$PxSerializerDefaultAdapter@VNpShape@physx@@@physx@@UEBAXAEAVPxBase@2@AEAVPxSerializationContext@2@@Z 0000000180041e50 f i NpSerializerAdapter.obj
 0001:00040f50       ?exportData@?$PxSerializerDefaultAdapter@VPruningStructure@Sq@physx@@@physx@@UEBAXAEAVPxBase@2@AEAVPxSerializationContext@2@@Z 0000000180041f50 f i NpSerializerAdapter.obj
 0001:00041010       ?exportData@?$PxSerializerDefaultAdapter@VRTreeTriangleMesh@Gu@physx@@@physx@@UEBAXAEAVPxBase@2@AEAVPxSerializationContext@2@@Z 0000000180042010 f i NpSerializerAdapter.obj
 0001:00041100       ?exportExtraData@?$PxSerializerDefaultAdapter@VBV4TriangleMesh@Gu@physx@@@physx@@UEBAXAEAVPxBase@2@AEAVPxSerializationContext@2@@Z 0000000180042100 f i NpSerializerAdapter.obj
 0001:00041100       ?exportExtraData@?$PxSerializerDefaultAdapter@VRTreeTriangleMesh@Gu@physx@@@physx@@UEBAXAEAVPxBase@2@AEAVPxSerializationContext@2@@Z 0000000180042100 f i NpSerializerAdapter.obj
 0001:00041110       ?exportExtraData@?$PxSerializerDefaultAdapter@VHeightField@Gu@physx@@@physx@@UEBAXAEAVPxBase@2@AEAVPxSerializationContext@2@@Z 0000000180042110 f i NpSerializerAdapter.obj
 0001:00041110       ?requiresObjects@?$PxSerializerDefaultAdapter@VNpConstraint@physx@@@physx@@UEBAXAEAVPxBase@2@AEAVPxProcessPxBaseCallback@2@@Z 0000000180042110 f i NpSerializerAdapter.obj
 0001:00041120       ?exportExtraData@?$PxSerializerDefaultAdapter@VNpArticulation@physx@@@physx@@UEBAXAEAVPxBase@2@AEAVPxSerializationContext@2@@Z 0000000180042120 f i NpSerializerAdapter.obj
 0001:00041130       ?exportExtraData@?$PxSerializerDefaultAdapter@VNpArticulationLink@physx@@@physx@@UEBAXAEAVPxBase@2@AEAVPxSerializationContext@2@@Z 0000000180042130 f i NpSerializerAdapter.obj
 0001:00041140       ?exportExtraData@?$PxSerializerDefaultAdapter@VNpArticulationReducedCoordinate@physx@@@physx@@UEBAXAEAVPxBase@2@AEAVPxSerializationContext@2@@Z 0000000180042140 f i NpSerializerAdapter.obj
 0001:00041150       ?exportExtraData@?$PxSerializerDefaultAdapter@VNpRigidDynamic@physx@@@physx@@UEBAXAEAVPxBase@2@AEAVPxSerializationContext@2@@Z 0000000180042150 f i NpSerializerAdapter.obj
 0001:00041160       ?exportExtraData@?$PxSerializerDefaultAdapter@VNpRigidStatic@physx@@@physx@@UEBAXAEAVPxBase@2@AEAVPxSerializationContext@2@@Z 0000000180042160 f i NpSerializerAdapter.obj
 0001:00041170       ?requiresObjects@?$PxSerializerDefaultAdapter@VNpArticulation@physx@@@physx@@UEBAXAEAVPxBase@2@AEAVPxProcessPxBaseCallback@2@@Z 0000000180042170 f i NpSerializerAdapter.obj
 0001:00041170       ?exportExtraData@?$PxSerializerDefaultAdapter@VNpShape@physx@@@physx@@UEBAXAEAVPxBase@2@AEAVPxSerializationContext@2@@Z 0000000180042170 f i NpSerializerAdapter.obj
 0001:00041180       ?exportExtraData@?$PxSerializerDefaultAdapter@VPruningStructure@Sq@physx@@@physx@@UEBAXAEAVPxBase@2@AEAVPxSerializationContext@2@@Z 0000000180042180 f i NpSerializerAdapter.obj
 0001:00041190       ?getClassSize@?$PxSerializerDefaultAdapter@VBV4TriangleMesh@Gu@physx@@@physx@@UEBA_KXZ 0000000180042190 f i NpSerializerAdapter.obj
 0001:000411a0       ?getClassSize@?$PxSerializerDefaultAdapter@VConvexMesh@Gu@physx@@@physx@@UEBA_KXZ 00000001800421a0 f i NpSerializerAdapter.obj
 0001:000411b0       ?getClassSize@?$PxSerializerDefaultAdapter@VHeightField@Gu@physx@@@physx@@UEBA_KXZ 00000001800421b0 f i NpSerializerAdapter.obj
 0001:000411c0       ?getClassSize@?$PxSerializerDefaultAdapter@VNpAggregate@physx@@@physx@@UEBA_KXZ 00000001800421c0 f i NpSerializerAdapter.obj
 0001:000411c0       ?getClassSize@?$PxSerializerDefaultAdapter@VNpMaterial@physx@@@physx@@UEBA_KXZ 00000001800421c0 f i NpSerializerAdapter.obj
 0001:000411c0       ?NpShapeGetScPtrOffset@physx@@YA_KXZ 00000001800421c0 f i NpShape.obj
 0001:000411d0       ?getClassSize@?$PxSerializerDefaultAdapter@VNpConstraint@physx@@@physx@@UEBA_KXZ 00000001800421d0 f i NpSerializerAdapter.obj
 0001:000411d0       ?getClassSize@?$PxSerializerDefaultAdapter@VNpArticulation@physx@@@physx@@UEBA_KXZ 00000001800421d0 f i NpSerializerAdapter.obj
 0001:000411e0       ?getClassSize@?$PxSerializerDefaultAdapter@VNpArticulationJointReducedCoordinate@physx@@@physx@@UEBA_KXZ 00000001800421e0 f i NpSerializerAdapter.obj
 0001:000411e0       ?getClassSize@?$PxSerializerDefaultAdapter@VNpArticulationJoint@physx@@@physx@@UEBA_KXZ 00000001800421e0 f i NpSerializerAdapter.obj
 0001:000411f0       ?getClassSize@?$PxSerializerDefaultAdapter@VNpArticulationLink@physx@@@physx@@UEBA_KXZ 00000001800421f0 f i NpSerializerAdapter.obj
 0001:00041200       ?getClassSize@?$PxSerializerDefaultAdapter@VNpArticulationReducedCoordinate@physx@@@physx@@UEBA_KXZ 0000000180042200 f i NpSerializerAdapter.obj
 0001:00041210       ?getClassSize@?$PxSerializerDefaultAdapter@VNpRigidDynamic@physx@@@physx@@UEBA_KXZ 0000000180042210 f i NpSerializerAdapter.obj
 0001:00041220       ?getClassSize@?$PxSerializerDefaultAdapter@VNpRigidStatic@physx@@@physx@@UEBA_KXZ 0000000180042220 f i NpSerializerAdapter.obj
 0001:00041230       ?getClassSize@?$PxSerializerDefaultAdapter@VNpShape@physx@@@physx@@UEBA_KXZ 0000000180042230 f i NpSerializerAdapter.obj
 0001:00041240       ?getClassSize@?$PxSerializerDefaultAdapter@VPruningStructure@Sq@physx@@@physx@@UEBA_KXZ 0000000180042240 f i NpSerializerAdapter.obj
 0001:00041250       ?getClassSize@?$PxSerializerDefaultAdapter@VRTreeTriangleMesh@Gu@physx@@@physx@@UEBA_KXZ 0000000180042250 f i NpSerializerAdapter.obj
 0001:00041260       ?process@RequiresCallback@?1??registerReferences@?$PxSerializerDefaultAdapter@VNpRigidDynamic@physx@@@physx@@UEBAXAEAVPxBase@4@AEAVPxSerializationContext@4@@Z@UEAAX0@Z 0000000180042260 f i NpSerializerAdapter.obj
 0001:00041260       ?process@RequiresCallback@?1??registerReferences@?$PxSerializerDefaultAdapter@VNpArticulation@physx@@@physx@@UEBAXAEAVPxBase@4@AEAVPxSerializationContext@4@@Z@UEAAX0@Z 0000000180042260 f i NpSerializerAdapter.obj
 0001:00041260       ?process@RequiresCallback@?1??registerReferences@?$PxSerializerDefaultAdapter@VNpArticulationJoint@physx@@@physx@@UEBAXAEAVPxBase@4@AEAVPxSerializationContext@4@@Z@UEAAX0@Z 0000000180042260 f i NpSerializerAdapter.obj
 0001:00041260       ?process@RequiresCallback@?1??registerReferences@?$PxSerializerDefaultAdapter@VNpArticulationLink@physx@@@physx@@UEBAXAEAVPxBase@4@AEAVPxSerializationContext@4@@Z@UEAAX0@Z 0000000180042260 f i NpSerializerAdapter.obj
 0001:00041260       ?process@RequiresCallback@?1??registerReferences@?$PxSerializerDefaultAdapter@VNpConstraint@physx@@@physx@@UEBAXAEAVPxBase@4@AEAVPxSerializationContext@4@@Z@UEAAX0@Z 0000000180042260 f i NpSerializerAdapter.obj
 0001:00041260       ?process@RequiresCallback@?1??registerReferences@?$PxSerializerDefaultAdapter@VRTreeTriangleMesh@Gu@physx@@@physx@@UEBAXAEAVPxBase@4@AEAVPxSerializationContext@4@@Z@UEAAX0@Z 0000000180042260 f i NpSerializerAdapter.obj
 0001:00041260       ?process@RequiresCallback@?1??registerReferences@?$PxSerializerDefaultAdapter@VNpArticulationReducedCoordinate@physx@@@physx@@UEBAXAEAVPxBase@4@AEAVPxSerializationContext@4@@Z@UEAAX0@Z 0000000180042260 f i NpSerializerAdapter.obj
 0001:00041260       ?process@RequiresCallback@?1??registerReferences@?$PxSerializerDefaultAdapter@VNpAggregate@physx@@@physx@@UEBAXAEAVPxBase@4@AEAVPxSerializationContext@4@@Z@UEAAX0@Z 0000000180042260 f i NpSerializerAdapter.obj
 0001:00041260       ?process@RequiresCallback@?1??registerReferences@?$PxSerializerDefaultAdapter@VNpArticulationJointReducedCoordinate@physx@@@physx@@UEBAXAEAVPxBase@4@AEAVPxSerializationContext@4@@Z@UEAAX0@Z 0000000180042260 f i NpSerializerAdapter.obj
 0001:00041260       ?process@RequiresCallback@?1??registerReferences@?$PxSerializerDefaultAdapter@VConvexMesh@Gu@physx@@@physx@@UEBAXAEAVPxBase@4@AEAVPxSerializationContext@4@@Z@UEAAX0@Z 0000000180042260 f i NpSerializerAdapter.obj
 0001:00041260       ?process@RequiresCallback@?1??registerReferences@?$PxSerializerDefaultAdapter@VHeightField@Gu@physx@@@physx@@UEBAXAEAVPxBase@4@AEAVPxSerializationContext@4@@Z@UEAAX0@Z 0000000180042260 f i NpSerializerAdapter.obj
 0001:00041260       ?process@RequiresCallback@?1??registerReferences@?$PxSerializerDefaultAdapter@VPruningStructure@Sq@physx@@@physx@@UEBAXAEAVPxBase@4@AEAVPxSerializationContext@4@@Z@UEAAX0@Z 0000000180042260 f i NpSerializerAdapter.obj
 0001:00041260       ?process@RequiresCallback@?1??registerReferences@?$PxSerializerDefaultAdapter@VNpRigidStatic@physx@@@physx@@UEBAXAEAVPxBase@4@AEAVPxSerializationContext@4@@Z@UEAAX0@Z 0000000180042260 f i NpSerializerAdapter.obj
 0001:00041260       ?process@RequiresCallback@?1??registerReferences@?$PxSerializerDefaultAdapter@VBV4TriangleMesh@Gu@physx@@@physx@@UEBAXAEAVPxBase@4@AEAVPxSerializationContext@4@@Z@UEAAX0@Z 0000000180042260 f i NpSerializerAdapter.obj
 0001:00041280       ?process@RequiresCallback@?1??registerReferences@?$PxSerializerDefaultAdapter@VNpShape@physx@@@physx@@UEBAXAEAVPxBase@4@AEAVPxSerializationContext@4@@Z@UEAAX0@Z 0000000180042280 f i NpSerializerAdapter.obj
 0001:000412c0       ?registerReferences@?$PxSerializerDefaultAdapter@VRTreeTriangleMesh@Gu@physx@@@physx@@UEBAXAEAVPxBase@2@AEAVPxSerializationContext@2@@Z 00000001800422c0 f i NpSerializerAdapter.obj
 0001:000412c0       ?registerReferences@?$PxSerializerDefaultAdapter@VBV4TriangleMesh@Gu@physx@@@physx@@UEBAXAEAVPxBase@2@AEAVPxSerializationContext@2@@Z 00000001800422c0 f i NpSerializerAdapter.obj
 0001:00041310       ?registerReferences@?$PxSerializerDefaultAdapter@VConvexMesh@Gu@physx@@@physx@@UEBAXAEAVPxBase@2@AEAVPxSerializationContext@2@@Z 0000000180042310 f i NpSerializerAdapter.obj
 0001:00041360       ?registerReferences@?$PxSerializerDefaultAdapter@VHeightField@Gu@physx@@@physx@@UEBAXAEAVPxBase@2@AEAVPxSerializationContext@2@@Z 0000000180042360 f i NpSerializerAdapter.obj
 0001:000413b0       ?registerReferences@?$PxSerializerDefaultAdapter@VNpAggregate@physx@@@physx@@UEBAXAEAVPxBase@2@AEAVPxSerializationContext@2@@Z 00000001800423b0 f i NpSerializerAdapter.obj
 0001:00041400       ?registerReferences@?$PxSerializerDefaultAdapter@VNpArticulation@physx@@@physx@@UEBAXAEAVPxBase@2@AEAVPxSerializationContext@2@@Z 0000000180042400 f i NpSerializerAdapter.obj
 0001:00041450       ?registerReferences@?$PxSerializerDefaultAdapter@VNpArticulationJoint@physx@@@physx@@UEBAXAEAVPxBase@2@AEAVPxSerializationContext@2@@Z 0000000180042450 f i NpSerializerAdapter.obj
 0001:000414a0       ?registerReferences@?$PxSerializerDefaultAdapter@VNpArticulationJointReducedCoordinate@physx@@@physx@@UEBAXAEAVPxBase@2@AEAVPxSerializationContext@2@@Z 00000001800424a0 f i NpSerializerAdapter.obj
 0001:000414f0       ?registerReferences@?$PxSerializerDefaultAdapter@VNpArticulationLink@physx@@@physx@@UEBAXAEAVPxBase@2@AEAVPxSerializationContext@2@@Z 00000001800424f0 f i NpSerializerAdapter.obj
 0001:00041540       ?registerReferences@?$PxSerializerDefaultAdapter@VNpArticulationReducedCoordinate@physx@@@physx@@UEBAXAEAVPxBase@2@AEAVPxSerializationContext@2@@Z 0000000180042540 f i NpSerializerAdapter.obj
 0001:00041590       ?registerReferences@?$PxSerializerDefaultAdapter@VNpConstraint@physx@@@physx@@UEBAXAEAVPxBase@2@AEAVPxSerializationContext@2@@Z 0000000180042590 f i NpSerializerAdapter.obj
 0001:000415e0       ?registerReferences@?$PxSerializerDefaultAdapter@VNpMaterial@physx@@@physx@@UEBAXAEAVPxBase@2@AEAVPxSerializationContext@2@@Z 00000001800425e0 f i NpSerializerAdapter.obj
 0001:00041630       ?registerReferences@?$PxSerializerDefaultAdapter@VNpRigidDynamic@physx@@@physx@@UEBAXAEAVPxBase@2@AEAVPxSerializationContext@2@@Z 0000000180042630 f i NpSerializerAdapter.obj
 0001:00041680       ?registerReferences@?$PxSerializerDefaultAdapter@VNpRigidStatic@physx@@@physx@@UEBAXAEAVPxBase@2@AEAVPxSerializationContext@2@@Z 0000000180042680 f i NpSerializerAdapter.obj
 0001:000416d0       ?registerReferences@?$PxSerializerDefaultAdapter@VNpShape@physx@@@physx@@UEBAXAEAVPxBase@2@AEAVPxSerializationContext@2@@Z 00000001800426d0 f i NpSerializerAdapter.obj
 0001:00041720       ?registerReferences@?$PxSerializerDefaultAdapter@VPruningStructure@Sq@physx@@@physx@@UEBAXAEAVPxBase@2@AEAVPxSerializationContext@2@@Z 0000000180042720 f i NpSerializerAdapter.obj
 0001:00041770       ?requiresObjects@?$PxSerializerDefaultAdapter@VRTreeTriangleMesh@Gu@physx@@@physx@@UEBAXAEAVPxBase@2@AEAVPxProcessPxBaseCallback@2@@Z 0000000180042770 f i NpSerializerAdapter.obj
 0001:00041770       ?requiresObjects@?$PxSerializerDefaultAdapter@VBV4TriangleMesh@Gu@physx@@@physx@@UEBAXAEAVPxBase@2@AEAVPxProcessPxBaseCallback@2@@Z 0000000180042770 f i NpSerializerAdapter.obj
 0001:00041780       ?requiresObjects@?$PxSerializerDefaultAdapter@VHeightField@Gu@physx@@@physx@@UEBAXAEAVPxBase@2@AEAVPxProcessPxBaseCallback@2@@Z 0000000180042780 f i NpSerializerAdapter.obj
 0001:00041780       ?requiresObjects@?$PxSerializerDefaultAdapter@VNpMaterial@physx@@@physx@@UEBAXAEAVPxBase@2@AEAVPxProcessPxBaseCallback@2@@Z 0000000180042780 f i NpSerializerAdapter.obj
 0001:00041790       ?requiresObjects@?$PxSerializerDefaultAdapter@VNpArticulationJoint@physx@@@physx@@UEBAXAEAVPxBase@2@AEAVPxProcessPxBaseCallback@2@@Z 0000000180042790 f i NpSerializerAdapter.obj
 0001:000417a0       ?requiresObjects@?$PxSerializerDefaultAdapter@VNpArticulationJointReducedCoordinate@physx@@@physx@@UEBAXAEAVPxBase@2@AEAVPxProcessPxBaseCallback@2@@Z 00000001800427a0 f i NpSerializerAdapter.obj
 0001:000417b0       ?requiresObjects@?$PxSerializerDefaultAdapter@VNpArticulationLink@physx@@@physx@@UEBAXAEAVPxBase@2@AEAVPxProcessPxBaseCallback@2@@Z 00000001800427b0 f i NpSerializerAdapter.obj
 0001:000417c0       ?requiresObjects@?$PxSerializerDefaultAdapter@VNpArticulationReducedCoordinate@physx@@@physx@@UEBAXAEAVPxBase@2@AEAVPxProcessPxBaseCallback@2@@Z 00000001800427c0 f i NpSerializerAdapter.obj
 0001:000417d0       ?requiresObjects@?$PxSerializerDefaultAdapter@VNpRigidDynamic@physx@@@physx@@UEBAXAEAVPxBase@2@AEAVPxProcessPxBaseCallback@2@@Z 00000001800427d0 f i NpSerializerAdapter.obj
 0001:000417e0       ?requiresObjects@?$PxSerializerDefaultAdapter@VNpRigidStatic@physx@@@physx@@UEBAXAEAVPxBase@2@AEAVPxProcessPxBaseCallback@2@@Z 00000001800427e0 f i NpSerializerAdapter.obj
 0001:000417f0       ?requiresObjects@?$PxSerializerDefaultAdapter@VNpShape@physx@@@physx@@UEBAXAEAVPxBase@2@AEAVPxProcessPxBaseCallback@2@@Z 00000001800427f0 f i NpSerializerAdapter.obj
 0001:00041800       ?requiresObjects@?$PxSerializerDefaultAdapter@VPruningStructure@Sq@physx@@@physx@@UEBAXAEAVPxBase@2@AEAVPxProcessPxBaseCallback@2@@Z 0000000180042800 f i NpSerializerAdapter.obj
 0001:00041810       PxRegisterPhysicsSerializers 0000000180042810 f   NpSerializerAdapter.obj
 0001:00041db0       PxUnregisterPhysicsSerializers 0000000180042db0 f   NpSerializerAdapter.obj
 0001:000421a0       ??0NpShape@physx@@QEAA@AEBVPxGeometry@1@V?$PxFlags@W4Enum@PxShapeFlag@physx@@E@1@PEBGG_N@Z 00000001800431a0 f   NpShape.obj
 0001:000422d8       ??_ENpShape@physx@@WBI@EAAPEAXI@Z 00000001800432d8 f i NpShape.obj
 0001:000422f0       ??_GNpShape@physx@@UEAAPEAXI@Z 00000001800432f0 f i NpShape.obj
 0001:000422f0       ??_ENpShape@physx@@UEAAPEAXI@Z 00000001800432f0 f i NpShape.obj
 0001:00042460       ?NpShapeDecRefCount@physx@@YAXAEAVShape@Scb@1@@Z 0000000180043460 f   NpShape.obj
 0001:00042490       ?NpShapeGetScRigidObjectFromScbSLOW@physx@@YAPEAVRigidCore@Sc@1@AEBVShape@Scb@1@@Z 0000000180043490 f   NpShape.obj
 0001:000424a0       ?NpShapeIncRefCount@physx@@YAXAEAVShape@Scb@1@@Z 00000001800434a0 f   NpShape.obj
 0001:000424b0       ?createObject@NpShape@physx@@SAPEAV12@AEAPEAEAEAVPxDeserializationContext@2@@Z 00000001800434b0 f   NpShape.obj
 0001:000425a0       ?exportExtraData@NpShape@physx@@UEAAXAEAVPxSerializationContext@2@@Z 00000001800435a0 f   NpShape.obj
 0001:000425e0       ?getBoxGeometry@NpShape@physx@@UEBA_NAEAVPxBoxGeometry@2@@Z 00000001800435e0 f   NpShape.obj
 0001:00042620       ?getCapsuleGeometry@NpShape@physx@@UEBA_NAEAVPxCapsuleGeometry@2@@Z 0000000180043620 f   NpShape.obj
 0001:00042650       ?getConcreteTypeName@PxShape@physx@@UEBAPEBDXZ 0000000180043650 f i NpShape.obj
 0001:00042660       ?getContactOffset@NpShape@physx@@UEBAMXZ 0000000180043660 f   NpShape.obj
 0001:00042680       ?getConvexMeshGeometry@NpShape@physx@@UEBA_NAEAVPxConvexMeshGeometry@2@@Z 0000000180043680 f   NpShape.obj
 0001:00042700       ?getFlags@NpShape@physx@@UEBA?AV?$PxFlags@W4Enum@PxShapeFlag@physx@@E@2@XZ 0000000180043700 f   NpShape.obj
 0001:00042730       ?getGeometry@NpShape@physx@@UEBA?AVPxGeometryHolder@2@XZ 0000000180043730 f   NpShape.obj
 0001:00042770       ?getHeightFieldGeometry@NpShape@physx@@UEBA_NAEAVPxHeightFieldGeometry@2@@Z 0000000180043770 f   NpShape.obj
 0001:000427d0       ?getLocalPose@NpShape@physx@@UEBA?AVPxTransform@2@XZ 00000001800437d0 f   NpShape.obj
 0001:00042810       ?getMaterial@Shape@Scb@physx@@QEBAPEAVPxMaterial@3@I@Z 0000000180043810 f i NpShape.obj
 0001:00042890       ?getMaterialFromInternalFaceIndex@NpShape@physx@@UEBAPEAVPxMaterial@2@I@Z 0000000180043890 f   NpShape.obj
 0001:000429e0       ?getMaterials@NpShape@physx@@UEBAIPEAPEAVPxMaterial@2@II@Z 00000001800439e0 f   NpShape.obj
 0001:000429f0       ?getMaterials@Shape@Scb@physx@@QEBAIPEAPEAVPxMaterial@3@II@Z 00000001800439f0 f i NpShape.obj
 0001:00042ac0       ?getMeshRefCountable@NpShape@physx@@AEAAPEAVRefCountable@Cm@2@XZ 0000000180043ac0 f   NpShape.obj
 0001:00042b50       ?getMinTorsionalPatchRadius@NpShape@physx@@UEBAMXZ 0000000180043b50 f   NpShape.obj
 0001:00042b70       ?getName@NpShape@physx@@UEBAPEBDXZ 0000000180043b70 f   NpShape.obj
 0001:00042b80       ?getNbMaterials@NpShape@physx@@UEBAGXZ 0000000180043b80 f   NpShape.obj
 0001:00042ba0       ?getPlaneGeometry@NpShape@physx@@UEBA_NAEAVPxPlaneGeometry@2@@Z 0000000180043ba0 f   NpShape.obj
 0001:00042bc0       ?getQueryFilterData@NpShape@physx@@UEBA?AUPxFilterData@2@XZ 0000000180043bc0 f   NpShape.obj
 0001:00042be0       ?getRestOffset@NpShape@physx@@UEBAMXZ 0000000180043be0 f   NpShape.obj
 0001:00042c00       ?getSimulationFilterData@NpShape@physx@@UEBA?AUPxFilterData@2@XZ 0000000180043c00 f   NpShape.obj
 0001:00042c30       ?getSphereGeometry@NpShape@physx@@UEBA_NAEAVPxSphereGeometry@2@@Z 0000000180043c30 f   NpShape.obj
 0001:00042c60       ?getTorsionalPatchRadius@NpShape@physx@@UEBAMXZ 0000000180043c60 f   NpShape.obj
 0001:00042c80       ?getTriangleMeshGeometry@NpShape@physx@@UEBA_NAEAVPxTriangleMeshGeometry@2@@Z 0000000180043c80 f   NpShape.obj
 0001:00042d00       ?isExclusive@NpShape@physx@@UEBA_NXZ 0000000180043d00 f   NpShape.obj
 0001:00042d10       ?isKindOf@PxShape@physx@@MEBA_NPEBD@Z 0000000180043d10 f i NpShape.obj
 0001:00042d60       ?onActorAttach@NpShape@physx@@QEAAXAEAVPxRigidActor@2@@Z 0000000180043d60 f   NpShape.obj
 0001:00042da0       ?onActorDetach@NpShape@physx@@QEAAXXZ 0000000180043da0 f   NpShape.obj
 0001:00042df0       ?onRefCountZero@NpShape@physx@@UEAAXXZ 0000000180043df0 f   NpShape.obj
 0001:00042e20       ?preExportDataReset@NpShape@physx@@QEAAXXZ 0000000180043e20 f   NpShape.obj
 0001:00042e40       ?requiresObjects@NpShape@physx@@UEAAXAEAVPxProcessPxBaseCallback@2@@Z 0000000180043e40 f   NpShape.obj
 0001:00042f70       ?resolveReferences@NpShape@physx@@QEAAXAEAVPxDeserializationContext@2@@Z 0000000180043f70 f   NpShape.obj
 0001:00043140       ?setContactOffset@NpShape@physx@@UEAAXM@Z 0000000180044140 f   NpShape.obj
 0001:00043220       ?setFlag@NpShape@physx@@UEAAXW4Enum@PxShapeFlag@2@_N@Z 0000000180044220 f   NpShape.obj
 0001:000432a0       ?setFlags@NpShape@physx@@UEAAXV?$PxFlags@W4Enum@PxShapeFlag@physx@@E@2@@Z 00000001800442a0 f   NpShape.obj
 0001:000432e0       ?setFlagsInternal@NpShape@physx@@QEAAXV?$PxFlags@W4Enum@PxShapeFlag@physx@@E@2@@Z 00000001800442e0 f   NpShape.obj
 0001:000435a0       ?setGeometry@NpShape@physx@@UEAAXAEBVPxGeometry@2@@Z 00000001800445a0 f   NpShape.obj
 0001:00043780       ?setLocalPose@NpShape@physx@@UEAAXAEBVPxTransform@2@@Z 0000000180044780 f   NpShape.obj
 0001:00043980       ?setMaterials@NpShape@physx@@UEAAXPEBQEAVPxMaterial@2@G@Z 0000000180044980 f   NpShape.obj
 0001:00043bc0       ?setMinTorsionalPatchRadius@NpShape@physx@@UEAAXM@Z 0000000180044bc0 f   NpShape.obj
 0001:00043cb0       ?setName@NpShape@physx@@UEAAXPEBD@Z 0000000180044cb0 f   NpShape.obj
 0001:00043cc0       ?setQueryFilterData@NpShape@physx@@UEAAXAEBUPxFilterData@2@@Z 0000000180044cc0 f   NpShape.obj
 0001:00043ce0       ?setRestOffset@NpShape@physx@@UEAAXM@Z 0000000180044ce0 f   NpShape.obj
 0001:00043dd0       ?setSimulationFilterData@NpShape@physx@@UEAAXAEBUPxFilterData@2@@Z 0000000180044dd0 f   NpShape.obj
 0001:00043ee0       ?setTorsionalPatchRadius@NpShape@physx@@UEAAXM@Z 0000000180044ee0 f   NpShape.obj
 0001:00043fd0       ?updateSQ@NpShape@physx@@AEAAXPEBD@Z 0000000180044fd0 f   NpShape.obj
 0001:000440a0       ??0NpShapeManager@physx@@QEAA@W4PxEMPTY@1@@Z 00000001800450a0 f   NpShapeManager.obj
 0001:000440e0       ??0NpShapeManager@physx@@QEAA@XZ 00000001800450e0 f   NpShapeManager.obj
 0001:00044120       ??0PxMat44@physx@@QEAA@AEBVPxTransform@1@@Z 0000000180045120 f i NpShapeManager.obj
 0001:000442a0       ??1NpShapeManager@physx@@QEAA@XZ 00000001800452a0 f   NpShapeManager.obj
 0001:00044300       ?addBVHStructureShapes@NpShapeManager@physx@@QEAAXAEAVSceneQueryManager@Sq@2@AEBVPxRigidActor@2@PEBVBVHStructure@Gu@2@@Z 0000000180045300 f   NpShapeManager.obj
 0001:00044570       ?addPrunerShape@NpShapeManager@physx@@QEAAXAEAVSceneQueryManager@Sq@2@IAEBVNpShape@2@AEBVPxRigidActor@2@_NPEBVPxBounds3@2@3@Z 0000000180045570 f   NpShapeManager.obj
 0001:00044600       ?allocate@?$Array@URemovedShape@Scb@physx@@V?$InlineAllocator@$0EA@V?$ReflectionAllocator@URemovedShape@Scb@physx@@@shdfnd@physx@@@shdfnd@3@@shdfnd@physx@@IEAAPEAURemovedShape@Scb@3@I@Z 0000000180045600 f i NpShapeManager.obj
 0001:000446c0       ?attachShape@NpShapeManager@physx@@QEAAXAEAVNpShape@2@AEAVPxRigidActor@2@@Z 00000001800456c0 f   NpShapeManager.obj
 0001:00044790       ?clearShapesOnRelease@NpShapeManager@physx@@QEAAXAEAVScene@Scb@2@AEAVPxRigidActor@2@@Z 0000000180045790 f   NpShapeManager.obj
 0001:00044810       ?detachAll@NpShapeManager@physx@@QEAAXPEAVNpScene@2@AEBVPxRigidActor@2@@Z 0000000180045810 f   NpShapeManager.obj
 0001:000449a0       ?detachShape@NpShapeManager@physx@@QEAA_NAEAVNpShape@2@AEAVPxRigidActor@2@_N@Z 00000001800459a0 f   NpShapeManager.obj
 0001:00044af0       ?exportExtraData@NpShapeManager@physx@@QEAAXAEAVPxSerializationContext@2@@Z 0000000180045af0 f   NpShapeManager.obj
 0001:00044b60       ?findSceneQueryData@NpShapeManager@physx@@QEBA_KAEBVNpShape@2@@Z 0000000180045b60 f   NpShapeManager.obj
 0001:00044ba0       ?findSceneQueryData@NpShapeManager@physx@@QEBA_KAEBVNpShape@2@AEAI@Z 0000000180045ba0 f   NpShapeManager.obj
 0001:00044bf0       ?getShapes@NpShapeManager@physx@@QEBAIPEAPEAVPxShape@2@II@Z 0000000180045bf0 f   NpShapeManager.obj
 0001:00044ec0       ?getWorldBounds@NpShapeManager@physx@@QEBA?AVPxBounds3@2@AEBVPxRigidActor@2@@Z 0000000180045ec0 f   NpShapeManager.obj
 0001:00045220       ?growAndPushBack@?$Array@PEAVShape@Scb@physx@@V?$InlineAllocator@$0CA@V?$ReflectionAllocator@PEAVShape@Scb@physx@@@shdfnd@physx@@@shdfnd@3@@shdfnd@physx@@IEAAAEAPEAVShape@Scb@3@AEBQEAV453@@Z 0000000180046220 f i NpShapeManager.obj
 0001:00045320       ?growAndPushBack@?$Array@URemovedShape@Scb@physx@@V?$InlineAllocator@$0EA@V?$ReflectionAllocator@URemovedShape@Scb@physx@@@shdfnd@physx@@@shdfnd@3@@shdfnd@physx@@IEAAAEAURemovedShape@Scb@3@AEBU453@@Z 0000000180046320 f i NpShapeManager.obj
 0001:000453f0       ?importExtraData@NpShapeManager@physx@@QEAAXAEAVPxDeserializationContext@2@@Z 00000001800463f0 f   NpShapeManager.obj
 0001:00045420       ?markAllSceneQueryForUpdate@NpShapeManager@physx@@QEAAXAEAVSceneQueryManager@Sq@2@AEBVPxRigidActor@2@@Z 0000000180046420 f   NpShapeManager.obj
 0001:000454e0       ?onShapeAttach@RigidObject@Scb@physx@@QEAAXAEAVShape@23@@Z 00000001800464e0 f i NpShapeManager.obj
 0001:000456c0       ?onShapeDetach@RigidObject@Scb@physx@@QEAAXAEAVShape@23@_N1@Z 00000001800466c0 f i NpShapeManager.obj
 0001:000459b0       ?preExportDataReset@NpShapeManager@physx@@QEAAXXZ 00000001800469b0 f   NpShapeManager.obj
 0001:000459d0       ?setupAllSceneQuery@NpShapeManager@physx@@QEAAXPEAVNpScene@2@AEBVPxRigidActor@2@_NPEBVPxBounds3@2@PEBVBVHStructure@Gu@2@@Z 00000001800469d0 f   NpShapeManager.obj
 0001:00045b30       ?setupSceneQuery@NpShapeManager@physx@@IEAAXAEAVSceneQueryManager@Sq@2@AEBVPxRigidActor@2@I@Z 0000000180046b30 f   NpShapeManager.obj
 0001:00045be0       ?setupSceneQuery@NpShapeManager@physx@@QEAAXAEAVSceneQueryManager@Sq@2@AEBVPxRigidActor@2@AEBVNpShape@2@@Z 0000000180046be0 f   NpShapeManager.obj
 0001:00045c30       ?teardownAllSceneQuery@NpShapeManager@physx@@QEAAXAEAVSceneQueryManager@Sq@2@AEBVPxRigidActor@2@@Z 0000000180046c30 f   NpShapeManager.obj
 0001:00045d40       ?teardownSceneQuery@NpShapeManager@physx@@QEAAXAEAVSceneQueryManager@Sq@2@AEBVNpShape@2@@Z 0000000180046d40 f   NpShapeManager.obj
 0001:000460f0       ?visualize@NpShapeManager@physx@@QEAAXAEAVRenderOutput@Cm@2@PEAVNpScene@2@AEBVPxRigidActor@2@@Z 00000001800470f0 f   NpShapeManager.obj
 0001:00048fe0       ?addActor@Aggregate@Scb@physx@@QEAAXAEAVActor@23@@Z 0000000180049fe0 f   ScbAggregate.obj
 0001:00049150       ?removeActor@Aggregate@Scb@physx@@QEAAXAEAVActor@23@_N@Z 000000018004a150 f   ScbAggregate.obj
 0001:000492d0       ?destroy@Base@Scb@physx@@QEAAXXZ 000000018004a2d0 f   ScbBase.obj
 0001:00049300       ?getBinaryMetaData@Actor@Scb@physx@@SAXAEAVPxOutputStream@3@@Z 000000018004a300 f   ScbMetaData.obj
 0001:000493a0       ?getBinaryMetaData@Aggregate@Scb@physx@@SAXAEAVPxOutputStream@3@@Z 000000018004a3a0 f   ScbMetaData.obj
 0001:00049540       ?getBinaryMetaData@Articulation@Scb@physx@@SAXAEAVPxOutputStream@3@@Z 000000018004a540 f   ScbMetaData.obj
 0001:000496e0       ?getBinaryMetaData@ArticulationJoint@Scb@physx@@SAXAEAVPxOutputStream@3@@Z 000000018004a6e0 f   ScbMetaData.obj
 0001:000497c0       ?getBinaryMetaData@Base@Scb@physx@@SAXAEAVPxOutputStream@3@@Z 000000018004a7c0 f   ScbMetaData.obj
 0001:00049920       ?getBinaryMetaData@Body@Scb@physx@@SAXAEAVPxOutputStream@3@@Z 000000018004a920 f   ScbMetaData.obj
 0001:00049b70       ?getBinaryMetaData@Constraint@Scb@physx@@SAXAEAVPxOutputStream@3@@Z 000000018004ab70 f   ScbMetaData.obj
 0001:00049d10       ?getBinaryMetaData@RigidObject@Scb@physx@@SAXAEAVPxOutputStream@3@@Z 000000018004ad10 f   ScbMetaData.obj
 0001:00049db0       ?getBinaryMetaData@RigidStatic@Scb@physx@@SAXAEAVPxOutputStream@3@@Z 000000018004adb0 f   ScbMetaData.obj
 0001:00049e90       ?getBinaryMetaData@Shape@Scb@physx@@SAXAEAVPxOutputStream@3@@Z 000000018004ae90 f   ScbMetaData.obj
 0001:00049f70       ??$add@VBody@Scb@physx@@@Scene@Scb@physx@@AEAAXAEAVBody@12@AEAVObjectTracker@12@PEAVPxBounds3@2@PEBVBVHStructure@Gu@2@@Z 000000018004af70 f i ScbScene.obj
 0001:0004a1d0       ??$add@VRigidStatic@Scb@physx@@@Scene@Scb@physx@@AEAAXAEAVRigidStatic@12@AEAVObjectTracker@12@PEAVPxBounds3@2@PEBVBVHStructure@Gu@2@@Z 000000018004b1d0 f i ScbScene.obj
 0001:0004a420       ??$addRigidNoSim@$00VBody@Scb@physx@@@Scene@Scb@physx@@AEAAXAEAVBody@12@AEAVObjectTracker@12@PEBVBVHStructure@Gu@2@@Z 000000018004b420 f i ScbScene.obj
 0001:0004a5e0       ??$addRigidNoSim@$0A@VRigidStatic@Scb@physx@@@Scene@Scb@physx@@AEAAXAEAVRigidStatic@12@AEAVObjectTracker@12@PEBVBVHStructure@Gu@2@@Z 000000018004b5e0 f i ScbScene.obj
 0001:0004a790       ??$processRemoves@VBody@Scb@physx@@$00$00@Scene@Scb@physx@@AEAAXAEAVObjectTracker@12@@Z 000000018004b790 f i ScbScene.obj
 0001:0004aa70       ??$processRemoves@VRigidStatic@Scb@physx@@$0A@$00@Scene@Scb@physx@@AEAAXAEAVObjectTracker@12@@Z 000000018004ba70 f i ScbScene.obj
 0001:0004ad10       ??$processShapeRemoves@VBody@Scb@physx@@@Scene@Scb@physx@@AEAAXAEAVObjectTracker@12@@Z 000000018004bd10 f i ScbScene.obj
 0001:0004ad10       ??$processShapeRemoves@VRigidStatic@Scb@physx@@@Scene@Scb@physx@@AEAAXAEAVObjectTracker@12@@Z 000000018004bd10 f i ScbScene.obj
 0001:0004aed0       ??$processSimUpdates@VArticulation@Scb@physx@@VArticulationCore@Sc@3@@Scene@Scb@physx@@AEAAXPEBQEAVArticulationCore@Sc@2@I@Z 000000018004bed0 f i ScbScene.obj
 0001:0004b040       ??$processUserUpdates@VArticulation@Scb@physx@@@Scene@Scb@physx@@AEAAXAEAVObjectTracker@12@@Z 000000018004c040 f i ScbScene.obj
 0001:0004b1f0       ??$processUserUpdates@VBody@Scb@physx@@@Scene@Scb@physx@@AEAAXAEAVObjectTracker@12@@Z 000000018004c1f0 f i ScbScene.obj
 0001:0004b4b0       ??$processUserUpdates@VConstraint@Scb@physx@@@Scene@Scb@physx@@AEAAXAEAVObjectTracker@12@@Z 000000018004c4b0 f i ScbScene.obj
 0001:0004b680       ??$processUserUpdates@VRigidStatic@Scb@physx@@@Scene@Scb@physx@@AEAAXAEAVObjectTracker@12@@Z 000000018004c680 f i ScbScene.obj
 0001:0004b9f0       ??$remove@VBody@Scb@physx@@@Scene@Scb@physx@@AEAAXAEAVBody@12@AEAVObjectTracker@12@_N@Z 000000018004c9f0 f i ScbScene.obj
 0001:0004bc60       ??$remove@VRigidStatic@Scb@physx@@@Scene@Scb@physx@@AEAAXAEAVRigidStatic@12@AEAVObjectTracker@12@_N@Z 000000018004cc60 f i ScbScene.obj
 0001:0004bed0       ??$removeRigidNoSim@$00VBody@Scb@physx@@@Scene@Scb@physx@@AEAAXAEAVBody@12@AEAVObjectTracker@12@@Z 000000018004ced0 f i ScbScene.obj
 0001:0004c130       ??$removeRigidNoSim@$0A@VRigidStatic@Scb@physx@@@Scene@Scb@physx@@AEAAXAEAVRigidStatic@12@AEAVObjectTracker@12@@Z 000000018004d130 f i ScbScene.obj
 0001:0004c390       ??0BodyBuffer@Scb@physx@@QEAA@XZ 000000018004d390 f i ScbScene.obj
 0001:0004c410       ??0Scene@Scb@physx@@QEAA@AEBVPxSceneDesc@2@_K@Z 000000018004d410 f   ScbScene.obj
 0001:0004c7e0       ?addActor@Scene@Scb@physx@@QEAAXAEAVBody@23@_NPEAVPxBounds3@3@PEBVBVHStructure@Gu@3@@Z 000000018004d7e0 f   ScbScene.obj
 0001:0004c9d0       ?addActor@Scene@Scb@physx@@QEAAXAEAVRigidStatic@23@_NPEAVPxBounds3@3@PEBVBVHStructure@Gu@3@@Z 000000018004d9d0 f   ScbScene.obj
 0001:0004cb30       ?addAggregate@Scene@Scb@physx@@QEAAXAEAVAggregate@23@@Z 000000018004db30 f   ScbScene.obj
 0001:0004cb80       ?addArticulation@Scene@Scb@physx@@QEAAXAEAVArticulation@23@@Z 000000018004db80 f   ScbScene.obj
 0001:0004cc00       ?addArticulationJoint@Scene@Scb@physx@@QEAAXAEAVArticulationJoint@23@@Z 000000018004dc00 f   ScbScene.obj
 0001:0004cc80       ?addBroadPhaseRegion@Scene@Scb@physx@@QEAAIAEBUPxBroadPhaseRegion@3@_N@Z 000000018004dc80 f   ScbScene.obj
 0001:0004ccd0       ?addConstraint@Scene@Scb@physx@@QEAAXAEAVConstraint@23@@Z 000000018004dcd0 f   ScbScene.obj
 0001:0004cd80       ?addMaterial@Scene@Scb@physx@@QEAAXAEBVMaterialCore@Sc@3@@Z 000000018004dd80 f   ScbScene.obj
 0001:0004ce00       ?allocate@?$Array@VMaterialEvent@Scb@physx@@V?$ReflectionAllocator@VMaterialEvent@Scb@physx@@@shdfnd@3@@shdfnd@physx@@IEAAPEAVMaterialEvent@Scb@3@I@Z 000000018004de00 f i ScbScene.obj
 0001:0004cea0       ?allocateNotThreadSafe@FlushPool@Cm@physx@@QEAAPEAXII@Z 000000018004dea0 f i ScbScene.obj
 0001:0004cfc0       ?clear@ObjectTracker@Scb@physx@@QEAAXXZ 000000018004dfc0 f   ScbScene.obj
 0001:0004d0d0       ?clearNotThreadSafe@FlushPool@Cm@physx@@QEAAXI@Z 000000018004e0d0 f i ScbScene.obj
 0001:0004d150       ?getBroadPhaseCaps@Scene@Scb@physx@@QEBA_NAEAUPxBroadPhaseCaps@3@@Z 000000018004e150 f   ScbScene.obj
 0001:0004d160       ?getBroadPhaseRegions@Scene@Scb@physx@@QEBAIPEAUPxBroadPhaseRegionInfo@3@II@Z 000000018004e160 f   ScbScene.obj
 0001:0004d170       ?getBroadPhaseType@Scene@Scb@physx@@QEBA?AW4Enum@PxBroadPhaseType@3@XZ 000000018004e170 f   ScbScene.obj
 0001:0004d180       ?getNbBroadPhaseRegions@Scene@Scb@physx@@QEBAIXZ 000000018004e180 f   ScbScene.obj
 0001:0004d190       ?getPxScene@Scene@Scb@physx@@QEAAPEAVPxScene@3@XZ 000000018004e190 f   ScbScene.obj
 0001:0004d1a0       ?getStream@Scene@Scb@physx@@QEAAPEAEW4Enum@ScbType@3@@Z 000000018004e1a0 f   ScbScene.obj
 0001:0004d380       ?growAndPushBack@?$Array@VMaterialEvent@Scb@physx@@V?$ReflectionAllocator@VMaterialEvent@Scb@physx@@@shdfnd@3@@shdfnd@physx@@IEAAAEAVMaterialEvent@Scb@3@AEBV453@@Z 000000018004e380 f i ScbScene.obj
 0001:0004d440       ?processPendingRemove@Scene@Scb@physx@@QEAAXXZ 000000018004e440 f   ScbScene.obj
 0001:0004d840       ?recreate@?$Array@PEAVShape@Scb@physx@@V?$InlineAllocator@$0CA@V?$ReflectionAllocator@PEAVShape@Scb@physx@@@shdfnd@physx@@@shdfnd@3@@shdfnd@physx@@IEAAXI@Z 000000018004e840 f i ScbScene.obj
 0001:0004d910       ?recreate@?$Array@URemovedShape@Scb@physx@@V?$InlineAllocator@$0EA@V?$ReflectionAllocator@URemovedShape@Scb@physx@@@shdfnd@physx@@@shdfnd@3@@shdfnd@physx@@IEAAXI@Z 000000018004e910 f i ScbScene.obj
 0001:0004d9c0       ?recreate@?$Array@VMaterialEvent@Scb@physx@@V?$ReflectionAllocator@VMaterialEvent@Scb@physx@@@shdfnd@3@@shdfnd@physx@@IEAAXI@Z 000000018004e9c0 f i ScbScene.obj
 0001:0004da60       ?release@Scene@Scb@physx@@QEAAXXZ 000000018004ea60 f   ScbScene.obj
 0001:0004dab0       ?remove@ObjectTracker@Scb@physx@@QEAAXAEAVBase@23@@Z 000000018004eab0 f   ScbScene.obj
 0001:0004dad0       ?removeActor@Scene@Scb@physx@@QEAAXAEAVBody@23@_N1@Z 000000018004ead0 f   ScbScene.obj
 0001:0004dd30       ?removeActor@Scene@Scb@physx@@QEAAXAEAVRigidStatic@23@_N1@Z 000000018004ed30 f   ScbScene.obj
 0001:0004de70       ?removeAggregate@Scene@Scb@physx@@QEAAXAEAVAggregate@23@@Z 000000018004ee70 f   ScbScene.obj
 0001:0004deb0       ?removeArticulation@Scene@Scb@physx@@QEAAXAEAVArticulation@23@@Z 000000018004eeb0 f   ScbScene.obj
 0001:0004df20       ?removeArticulationJoint@Scene@Scb@physx@@QEAAXAEAVArticulationJoint@23@@Z 000000018004ef20 f   ScbScene.obj
 0001:0004df60       ?removeBroadPhaseRegion@Scene@Scb@physx@@QEAA_NI@Z 000000018004ef60 f   ScbScene.obj
 0001:0004dfb0       ?removeConstraint@Scene@Scb@physx@@QEAAXAEAVConstraint@23@@Z 000000018004efb0 f   ScbScene.obj
 0001:0004dff0       ?removeMaterial@Scene@Scb@physx@@QEAAXAEBVMaterialCore@Sc@3@@Z 000000018004eff0 f   ScbScene.obj
 0001:0004e080       ?resize@?$Array@PEAVShape@Scb@physx@@V?$InlineAllocator@$0CA@V?$ReflectionAllocator@PEAVShape@Scb@physx@@@shdfnd@physx@@@shdfnd@3@@shdfnd@physx@@QEAAXIAEBQEAVShape@Scb@3@@Z 000000018004f080 f i ScbScene.obj
 0001:0004e140       ?resize@?$Array@URemovedShape@Scb@physx@@V?$InlineAllocator@$0EA@V?$ReflectionAllocator@URemovedShape@Scb@physx@@@shdfnd@physx@@@shdfnd@3@@shdfnd@physx@@QEAAXIAEBURemovedShape@Scb@3@@Z 000000018004f140 f i ScbScene.obj
 0001:0004e1c0       ?resize@?$Array@VMaterialEvent@Scb@physx@@V?$ReflectionAllocator@VMaterialEvent@Scb@physx@@@shdfnd@3@@shdfnd@physx@@QEAAXIAEBVMaterialEvent@Scb@3@@Z 000000018004f1c0 f i ScbScene.obj
 0001:0004e280       ?resize@PxsMaterialManager@physx@@QEAAXI@Z 000000018004f280 f i ScbScene.obj
 0001:0004e590       ?scheduleForInsert@ObjectTracker@Scb@physx@@QEAAXAEAVBase@23@@Z 000000018004f590 f   ScbScene.obj
 0001:0004e610       ?scheduleForRemove@ObjectTracker@Scb@physx@@QEAAXAEAVBase@23@@Z 000000018004f610 f   ScbScene.obj
 0001:0004e680       ?scheduleForUpdate@ObjectTracker@Scb@physx@@QEAAXAEAVBase@23@@Z 000000018004f680 f   ScbScene.obj
 0001:0004e6d0       ?scheduleForUpdate@Scene@Scb@physx@@QEAAXAEAVBase@23@@Z 000000018004f6d0 f   ScbScene.obj
 0001:0004e770       ?shiftOrigin@Scene@Scb@physx@@QEAAXAEBVPxVec3@3@@Z 000000018004f770 f   ScbScene.obj
 0001:0004e780       ?switchRigidFromNoSim@Scene@Scb@physx@@QEAAXAEAVRigidObject@23@_N@Z 000000018004f780 f   ScbScene.obj
 0001:0004e880       ?switchRigidToNoSim@Scene@Scb@physx@@QEAAXAEAVRigidObject@23@_N@Z 000000018004f880 f   ScbScene.obj
 0001:0004e980       ?syncCollisionWriteThroughState@Body@Scb@physx@@QEAAXXZ 000000018004f980 f i ScbScene.obj
 0001:0004ec30       ?syncEntireScene@Scene@Scb@physx@@QEAAXXZ 000000018004fc30 f   ScbScene.obj
 0001:0004f1d0       ?syncState@ArticulationJoint@Scb@physx@@QEAAXXZ 00000001800501d0 f i ScbScene.obj
 0001:0004f510       ?syncState@Body@Scb@physx@@QEAAXXZ 0000000180050510 f i ScbScene.obj
 0001:0004fc60       ?syncState@Constraint@Scb@physx@@QEAAXXZ 0000000180050c60 f i ScbScene.obj
 0001:0004fd80       ?syncState@RigidObject@Scb@physx@@QEAAXXZ 0000000180050d80 f i ScbScene.obj
 0001:0004ffe0       ?syncState@Scene@Scb@physx@@AEAAXXZ 0000000180050fe0 f   ScbScene.obj
 0001:00050250       ?syncWriteThroughProperties@Scene@Scb@physx@@QEAAXXZ 0000000180051250 f   ScbScene.obj
 0001:00050540       ?updateLowLevelMaterial@Scene@Scb@physx@@QEAAXPEAPEAVNpMaterial@3@@Z 0000000180051540 f   ScbScene.obj
 0001:00050700       ?updateMaterial@Scene@Scb@physx@@QEAAXAEBVMaterialCore@Sc@3@@Z 0000000180051700 f   ScbScene.obj
 0001:00050780       ?setMaterialsHelper@Shape@Scb@physx@@AEAA_NPEBQEAVPxMaterial@3@G@Z 0000000180051780 f   ScbShape.obj
 0001:000508f0       ?syncState@Shape@Scb@physx@@QEAAXXZ 00000001800518f0 f   ScbShape.obj
 0001:000529e0       ?addBody@ArticulationV@Dy@physx@@UEAAXXZ 00000001800539e0 f i NpImmediateMode.obj
 0001:00052c80       ?allocate@?$Array@PEAEV?$ReflectionAllocator@PEAE@shdfnd@physx@@@shdfnd@physx@@IEAAPEAPEAEI@Z 0000000180053c80 f i NpImmediateMode.obj
 0001:00052d80       ?growAndPushBack@?$Array@VSpatialVector@Cm@physx@@V?$ReflectionAllocator@VSpatialVector@Cm@physx@@@shdfnd@3@@shdfnd@physx@@IEAAAEAVSpatialVector@Cm@3@AEBV453@@Z 0000000180053d80 f i NpImmediateMode.obj
 0001:00053520       ?recreate@?$Array@PEAEV?$ReflectionAllocator@PEAE@shdfnd@physx@@@shdfnd@physx@@IEAAXI@Z 0000000180054520 f i NpImmediateMode.obj
 0001:000535c0       ?recreate@?$Array@UArticulationLink@Dy@physx@@V?$ReflectionAllocator@UArticulationLink@Dy@physx@@@shdfnd@3@@shdfnd@physx@@IEAAXI@Z 00000001800545c0 f i NpImmediateMode.obj
 0001:000536e0       ?removeBody@ArticulationV@Dy@physx@@UEAAXXZ 00000001800546e0 f i NpImmediateMode.obj
 0001:000536f0       PxAddArticulationLink      00000001800546f0 f   NpImmediateMode.obj
 0001:00053750       PxApplyArticulationCache   0000000180054750 f   NpImmediateMode.obj
 0001:00053770       PxBatchConstraints         0000000180054770 f   NpImmediateMode.obj
 0001:00053800       PxBatchConstraintsTGS      0000000180054800 f   NpImmediateMode.obj
 0001:00053890       PxComputeUnconstrainedVelocities 0000000180054890 f   NpImmediateMode.obj
 0001:00053970       PxComputeUnconstrainedVelocitiesTGS 0000000180054970 f   NpImmediateMode.obj
 0001:00053a60       PxConstructSolverBodies    0000000180054a60 f   NpImmediateMode.obj
 0001:00053d20       PxConstructSolverBodiesTGS 0000000180054d20 f   NpImmediateMode.obj
 0001:00054030       PxConstructStaticSolverBody 0000000180055030 f   NpImmediateMode.obj
 0001:000540a0       PxConstructStaticSolverBodyTGS 00000001800550a0 f   NpImmediateMode.obj
 0001:00054120       PxCopyInternalStateToArticulationCache 0000000180055120 f   NpImmediateMode.obj
 0001:00054140       PxCreateArticulationCache  0000000180055140 f   NpImmediateMode.obj
 0001:00054430       PxCreateContactConstraints 0000000180055430 f   NpImmediateMode.obj
 0001:000546b0       PxCreateContactConstraintsTGS 00000001800556b0 f   NpImmediateMode.obj
 0001:00054940       PxCreateFeatherstoneArticulation 0000000180055940 f   NpImmediateMode.obj
 0001:000549b0       PxCreateJointConstraints   00000001800559b0 f   NpImmediateMode.obj
 0001:00054b50       PxCreateJointConstraintsTGS 0000000180055b50 f   NpImmediateMode.obj
 0001:00054d70       PxCreateJointConstraintsWithImmediateShaders 0000000180055d70 f   NpImmediateMode.obj
 0001:00054d80       PxCreateJointConstraintsWithImmediateShadersTGS 0000000180055d80 f   NpImmediateMode.obj
 0001:00054d90       PxCreateJointConstraintsWithShaders 0000000180055d90 f   NpImmediateMode.obj
 0001:00054da0       PxCreateJointConstraintsWithShadersTGS 0000000180055da0 f   NpImmediateMode.obj
 0001:00054db0       PxGenerateContacts         0000000180055db0 f   NpImmediateMode.obj
 0001:00055430       PxGetAllLinkData           0000000180056430 f   NpImmediateMode.obj
 0001:00055780       PxGetJointData             0000000180056780 f   NpImmediateMode.obj
 0001:00055b40       PxGetLinkArticulation      0000000180056b40 f   NpImmediateMode.obj
 0001:00055b50       PxGetLinkData              0000000180056b50 f   NpImmediateMode.obj
 0001:00055c00       PxGetLinkIndex             0000000180056c00 f   NpImmediateMode.obj
 0001:00055c10       PxGetMutableLinkData       0000000180056c10 f   NpImmediateMode.obj
 0001:00055ca0       PxIntegrateSolverBodies    0000000180056ca0 f   NpImmediateMode.obj
 0001:00056260       PxIntegrateSolverBodiesTGS 0000000180057260 f   NpImmediateMode.obj
 0001:000564e0       PxRegisterImmediateArticulations 00000001800574e0 f   NpImmediateMode.obj
 0001:00056500       PxReleaseArticulation      0000000180057500 f   NpImmediateMode.obj
 0001:00056540       PxReleaseArticulationCache 0000000180057540 f   NpImmediateMode.obj
 0001:00056610       PxSetJointData             0000000180057610 f   NpImmediateMode.obj
 0001:000569b0       PxSetMutableLinkData       00000001800579b0 f   NpImmediateMode.obj
 0001:00056a40       PxSolveConstraints         0000000180057a40 f   NpImmediateMode.obj
 0001:00056f90       PxSolveConstraintsTGS      0000000180057f90 f   NpImmediateMode.obj
 0001:00057490       PxUpdateArticulationBodies 0000000180058490 f   NpImmediateMode.obj
 0001:000574a0       PxUpdateArticulationBodiesTGS 00000001800584a0 f   NpImmediateMode.obj
 0001:000574b0       ??0PhysXIndicator@physx@@QEAA@_N@Z 00000001800584b0 f   PhysXIndicatorWindows.obj
 0001:00057650       ??1PhysXIndicator@physx@@QEAA@XZ 0000000180058650 f   PhysXIndicatorWindows.obj
 0001:000576a0       ?setIsGpu@PhysXIndicator@physx@@QEAAX_N@Z 00000001800586a0 f   PhysXIndicatorWindows.obj
 0001:000576e0       __local_stdio_printf_options 00000001800586e0 f i PhysXIndicatorWindows.obj
 0001:000576f0       sprintf                    00000001800586f0 f i PhysXIndicatorWindows.obj
 0001:00057750       PxCreateCudaClientContextManager 0000000180058750 f   PxGpu.obj
 0001:000577a0       PxCreateCudaContextManager 00000001800587a0 f   PxGpu.obj
 0001:00057810       PxGetSuggestedCudaDeviceOrdinal 0000000180058810 f   PxGpu.obj
 0001:00057850       ?PxLoadPhysxGPUModule@physx@@YAXPEBD@Z 0000000180058850 f   PxPhysXGpuModuleLoader.obj
 0001:000579b0       PxSetPhysXGpuLoadHook      00000001800589b0 f   PxPhysXGpuModuleLoader.obj
 0001:000579d0       ?physxDelayHook@@YAP6A_JXZIPEAUDelayLoadInfo@@@Z 00000001800589d0 f   NpWindowsDelayLoadHook.obj
 0001:00057ab0       PxSetPhysXDelayLoadHook    0000000180058ab0 f   NpWindowsDelayLoadHook.obj
 0001:00057d70       ?PxvRegisterHeightFields@physx@@YAXXZ 0000000180058d70 f   LowLevel_static_64:PxcContactMethodImpl.obj
 0001:00057df0       ??$sort@PEAXU?$Less@PEAX@shdfnd@physx@@V?$ReflectionAllocator@VLargePersistentContactManifold@Gu@physx@@@23@@shdfnd@physx@@YAXPEAPEAXIAEBU?$Less@PEAX@01@AEBV?$ReflectionAllocator@VLargePersistentContactManifold@Gu@physx@@@01@I@Z 0000000180058df0 f i LowLevel_static_64:PxsContext.obj
 0001:000581b0       ??$sort@PEAXU?$Less@PEAX@shdfnd@physx@@V?$ReflectionAllocator@VSpherePersistentContactManifold@Gu@physx@@@23@@shdfnd@physx@@YAXPEAPEAXIAEBU?$Less@PEAX@01@AEBV?$ReflectionAllocator@VSpherePersistentContactManifold@Gu@physx@@@01@I@Z 00000001800591b0 f i LowLevel_static_64:PxsContext.obj
 0001:00058570       ??0PxsContext@physx@@QEAA@AEBVPxSceneDesc@1@PEAVPxTaskManager@1@AEAVFlushPool@Cm@1@PEAVPxCudaContextManager@1@_K@Z 0000000180059570 f   LowLevel_static_64:PxsContext.obj
 0001:00058a70       ??1?$Array@PEAXV?$InlineAllocator@$0CAA@V?$ReflectionAllocator@VSpherePersistentContactManifold@Gu@physx@@@shdfnd@physx@@@shdfnd@physx@@@shdfnd@physx@@QEAA@XZ 0000000180059a70 f i LowLevel_static_64:PxsContext.obj
 0001:00058a70       ??1?$Array@PEAXV?$InlineAllocator@$0CAA@V?$ReflectionAllocator@VActorPairContactReportData@Sc@physx@@@shdfnd@physx@@@shdfnd@physx@@@shdfnd@physx@@QEAA@XZ 0000000180059a70 f i SimulationController_static_64:ScNPhaseCore.obj
 0001:00058a70       ??1?$Array@PEAXV?$InlineAllocator@$0CAA@V?$ReflectionAllocator@USimStateData@Sc@physx@@@shdfnd@physx@@@shdfnd@physx@@@shdfnd@physx@@QEAA@XZ 0000000180059a70 f i SimulationController_static_64:ScScene.obj
 0001:00058a70       ??1?$Array@PEAXV?$InlineAllocator@$0CAA@V?$ReflectionAllocator@UAABBTreeIndices@Sq@physx@@@shdfnd@physx@@@shdfnd@physx@@@shdfnd@physx@@QEAA@XZ 0000000180059a70 f i SceneQuery_static_64:SqIncrementalAABBTree.obj
 0001:00058a70       ??1?$Array@PEAXV?$InlineAllocator@$0CAA@V?$ReflectionAllocator@VTriggerInteraction@Sc@physx@@@shdfnd@physx@@@shdfnd@physx@@@shdfnd@physx@@QEAA@XZ 0000000180059a70 f i SimulationController_static_64:ScNPhaseCore.obj
 0001:00058a70       ??1?$Array@PEAXV?$InlineAllocator@$0CAA@V?$ReflectionAllocator@VActorPair@Sc@physx@@@shdfnd@physx@@@shdfnd@physx@@@shdfnd@physx@@QEAA@XZ 0000000180059a70 f i SimulationController_static_64:ScNPhaseCore.obj
 0001:00058a70       ??1?$Array@PEAXV?$InlineAllocator@$0CAA@V?$ReflectionAllocator@VActorPairReport@Sc@physx@@@shdfnd@physx@@@shdfnd@physx@@@shdfnd@physx@@QEAA@XZ 0000000180059a70 f i SimulationController_static_64:ScNPhaseCore.obj
 0001:00058a70       ??1?$Array@PEAXV?$InlineAllocator@$0CAA@V?$ReflectionAllocator@VShapeInteraction@Sc@physx@@@shdfnd@physx@@@shdfnd@physx@@@shdfnd@physx@@QEAA@XZ 0000000180059a70 f i SimulationController_static_64:ScNPhaseCore.obj
 0001:00058a70       ??1?$Array@PEAXV?$InlineAllocator@$0CAA@V?$ReflectionAllocator@VConstraintInteraction@Sc@physx@@@shdfnd@physx@@@shdfnd@physx@@@shdfnd@physx@@QEAA@XZ 0000000180059a70 f i SimulationController_static_64:ScScene.obj
 0001:00058a70       ??1?$Array@PEAXV?$InlineAllocator@$0CAA@V?$ReflectionAllocator@VConstraintSim@Sc@physx@@@shdfnd@physx@@@shdfnd@physx@@@shdfnd@physx@@QEAA@XZ 0000000180059a70 f i SimulationController_static_64:ScScene.obj
 0001:00058a70       ??1?$Array@PEAXV?$InlineAllocator@$0CAA@V?$ReflectionAllocator@VElementInteractionMarker@Sc@physx@@@shdfnd@physx@@@shdfnd@physx@@@shdfnd@physx@@QEAA@XZ 0000000180059a70 f i SimulationController_static_64:ScNPhaseCore.obj
 0001:00058a70       ??1?$Array@PEAXV?$InlineAllocator@$0CAA@V?$ReflectionAllocator@VLargePersistentContactManifold@Gu@physx@@@shdfnd@physx@@@shdfnd@physx@@@shdfnd@physx@@QEAA@XZ 0000000180059a70 f i LowLevel_static_64:PxsContext.obj
 0001:00058a70       ??1?$Array@PEAXV?$InlineAllocator@$0CAA@V?$ReflectionAllocator@UIncrementalAABBTreeNodePair@Sq@physx@@@shdfnd@physx@@@shdfnd@physx@@@shdfnd@physx@@QEAA@XZ 0000000180059a70 f i SceneQuery_static_64:SqIncrementalAABBTree.obj
 0001:00058ae0       ??1?$PoolBase@VLargePersistentContactManifold@Gu@physx@@V?$ReflectionAllocator@VLargePersistentContactManifold@Gu@physx@@@shdfnd@3@@shdfnd@physx@@QEAA@XZ 0000000180059ae0 f i LowLevel_static_64:PxsContext.obj
 0001:00058c40       ??1?$PoolBase@VSpherePersistentContactManifold@Gu@physx@@V?$ReflectionAllocator@VSpherePersistentContactManifold@Gu@physx@@@shdfnd@3@@shdfnd@physx@@QEAA@XZ 0000000180059c40 f i LowLevel_static_64:PxsContext.obj
 0001:00058da0       ??1?$PxcThreadCoherentCache@VPxcNpThreadContext@physx@@UPxcNpContext@2@@physx@@QEAA@XZ 0000000180059da0 f i LowLevel_static_64:PxsContext.obj
 0001:00058e30       ??1PxcScratchAllocator@physx@@QEAA@XZ 0000000180059e30 f i LowLevel_static_64:PxsContext.obj
 0001:00058ea0       ??1PxsContext@physx@@QEAA@XZ 0000000180059ea0 f   LowLevel_static_64:PxsContext.obj
 0001:000590c0       ?allocate@?$ReflectionAllocator@VLargePersistentContactManifold@Gu@physx@@@shdfnd@physx@@QEAAPEAX_KPEBDH@Z 000000018005a0c0 f i LowLevel_static_64:PxsContext.obj
 0001:00059160       ?allocate@?$ReflectionAllocator@VPxsContactManager@physx@@@shdfnd@physx@@QEAAPEAX_KPEBDH@Z 000000018005a160 f i LowLevel_static_64:PxsContext.obj
 0001:00059200       ?allocate@?$ReflectionAllocator@VSpherePersistentContactManifold@Gu@physx@@@shdfnd@physx@@QEAAPEAX_KPEBDH@Z 000000018005a200 f i LowLevel_static_64:PxsContext.obj
 0001:000592a0       ?beginUpdate@PxsContext@physx@@QEAAXXZ 000000018005a2a0 f   LowLevel_static_64:PxsContext.obj
 0001:000592c0       ?createCache@PxsContext@physx@@QEAAXAEAUCache@Gu@2@PEAVPxsContactManager@2@EE@Z 000000018005a2c0 f   LowLevel_static_64:PxsContext.obj
 0001:00059560       ?createContactManager@PxsContext@physx@@QEAAPEAVPxsContactManager@2@PEAV32@_N@Z 000000018005a560 f   LowLevel_static_64:PxsContext.obj
 0001:000596c0       ?createTransformCache@PxsContext@physx@@QEAAXAEAVVirtualAllocatorCallback@shdfnd@2@@Z 000000018005a6c0 f   LowLevel_static_64:PxsContext.obj
 0001:00059740       ?destroy@?$PoolList@VPxsContactManager@physx@@VPxsContext@2@@Cm@physx@@QEAAXXZ 000000018005a740 f i LowLevel_static_64:PxsContext.obj
 0001:00059850       ?destroyCache@PxsContext@physx@@QEAAXAEAUCache@Gu@2@@Z 000000018005a850 f   LowLevel_static_64:PxsContext.obj
 0001:000598b0       ?destroyContactManager@PxsContext@physx@@QEAAXPEAVPxsContactManager@2@@Z 000000018005a8b0 f   LowLevel_static_64:PxsContext.obj
 0001:000599e0       ?resize@?$BitMapBase@VNonTrackingAllocator@shdfnd@physx@@@Cm@physx@@QEAAXI_N@Z 000000018005a9e0 f i LowLevel_static_64:PxcNpThreadContext.obj
 0001:000599e0       ?extend@?$BitMapBase@VNonTrackingAllocator@shdfnd@physx@@@Cm@physx@@IEAAXI@Z 000000018005a9e0 f i LowLevel_static_64:PxsContext.obj
 0001:00059ac0       ?extend@?$PoolList@VPxsContactManager@physx@@VPxsContext@2@@Cm@physx@@QEAA_NXZ 000000018005aac0 f i LowLevel_static_64:PxsContext.obj
 0001:00059c40       ?fetchUpdateContactManager@PxsContext@physx@@QEAAXXZ 000000018005ac40 f   LowLevel_static_64:PxsContext.obj
 0001:00059c70       ?fillManagerPatchChangedEvents@PxsContext@physx@@QEAA_NPEAPEAVPxsContactManager@2@AEAI01@Z 000000018005ac70 f   LowLevel_static_64:PxsContext.obj
 0001:00059de0       ?fillManagerTouchEvents@PxsContext@physx@@QEAA_NPEAUPxvContactManagerTouchEvent@2@AEAH0101@Z 000000018005ade0 f   LowLevel_static_64:PxsContext.obj
 0001:00059f50       ?getManagerTouchEventCount@PxsContext@physx@@QEBA_NPEAH00@Z 000000018005af50 f   LowLevel_static_64:PxsContext.obj
 0001:00059f80       ?getVisualizationParameter@PxsContext@physx@@QEBAMW4Enum@PxVisualizationParameter@2@@Z 000000018005af80 f   LowLevel_static_64:PxsContext.obj
 0001:00059f90       ?growAndPushBack@?$Array@PEAXV?$InlineAllocator@$0CAA@V?$ReflectionAllocator@VLargePersistentContactManifold@Gu@physx@@@shdfnd@physx@@@shdfnd@physx@@@shdfnd@physx@@IEAAAEAPEAXAEBQEAX@Z 000000018005af90 f i LowLevel_static_64:PxsContext.obj
 0001:0005a0b0       ?growAndPushBack@?$Array@PEAXV?$InlineAllocator@$0CAA@V?$ReflectionAllocator@VSpherePersistentContactManifold@Gu@physx@@@shdfnd@physx@@@shdfnd@physx@@@shdfnd@physx@@IEAAAEAPEAXAEBQEAX@Z 000000018005b0b0 f i LowLevel_static_64:PxsContext.obj
 0001:0005a1d0       ?growAndPushBack@?$Array@PEAXV?$ReflectionAllocator@VLargePersistentContactManifold@Gu@physx@@@shdfnd@physx@@@shdfnd@physx@@IEAAAEAPEAXAEBQEAX@Z 000000018005b1d0 f i LowLevel_static_64:PxsContext.obj
 0001:0005a2b0       ?growAndPushBack@?$Array@PEAXV?$ReflectionAllocator@VSpherePersistentContactManifold@Gu@physx@@@shdfnd@physx@@@shdfnd@physx@@IEAAAEAPEAXAEBQEAX@Z 000000018005b2b0 f i LowLevel_static_64:PxsContext.obj
 0001:0005a390       ?mergeCMDiscreteUpdateResults@PxsContext@physx@@AEAAXPEAVPxBaseTask@2@@Z 000000018005b390 f   LowLevel_static_64:PxsContext.obj
 0001:0005a790       ?resetThreadContexts@PxsContext@physx@@QEAAXXZ 000000018005b790 f   LowLevel_static_64:PxsContext.obj
 0001:0005a810       ?secondPassUpdateContactManager@PxsContext@physx@@QEAAXMPEAVPxBaseTask@2@@Z 000000018005b810 f   LowLevel_static_64:PxsContext.obj
 0001:0005a820       ?setContactDistance@PxsContext@physx@@QEAAXPEAV?$Array@MVVirtualAllocator@shdfnd@physx@@@shdfnd@2@@Z 000000018005b820 f   LowLevel_static_64:PxsContext.obj
 0001:0005a830       ?setScratchBlock@PxsContext@physx@@QEAAXPEAXI@Z 000000018005b830 f   LowLevel_static_64:PxsContext.obj
 0001:0005a880       ?setVisualizationParameter@PxsContext@physx@@QEAAXW4Enum@PxVisualizationParameter@2@M@Z 000000018005b880 f   LowLevel_static_64:PxsContext.obj
 0001:0005a890       ?shiftOrigin@PxsContext@physx@@QEAAXAEBVPxVec3@2@@Z 000000018005b890 f   LowLevel_static_64:PxsContext.obj
 0001:0005a9e0       ?swapStreams@PxsContext@physx@@QEAAXXZ 000000018005b9e0 f   LowLevel_static_64:PxsContext.obj
 0001:0005a9f0       ?updateContactManager@PxsContext@physx@@QEAAXM_N0PEAVPxBaseTask@2@1@Z 000000018005b9f0 f   LowLevel_static_64:PxsContext.obj
 0001:0005aa00       ??0PxcNpMemBlockPool@physx@@QEAA@AEAVPxcScratchAllocator@1@@Z 000000018005ba00 f   LowLevel_static_64:PxcNpMemBlockPool.obj
 0001:0005ab50       ??1PxcNpMemBlockPool@physx@@QEAA@XZ 000000018005bb50 f   LowLevel_static_64:PxcNpMemBlockPool.obj
 0001:0005ae80       ?acquire@PxcNpMemBlockPool@physx@@AEAAPEAUPxcNpMemBlock@2@AEAV?$Array@PEAUPxcNpMemBlock@physx@@V?$ReflectionAllocator@PEAUPxcNpMemBlock@physx@@@shdfnd@2@@shdfnd@2@PEAI1_N@Z 000000018005be80 f   LowLevel_static_64:PxcNpMemBlockPool.obj
 0001:0005b030       ?acquireConstraintBlock@PxcNpMemBlockPool@physx@@QEAAPEAUPxcNpMemBlock@2@AEAV?$Array@PEAUPxcNpMemBlock@physx@@V?$ReflectionAllocator@PEAUPxcNpMemBlock@physx@@@shdfnd@2@@shdfnd@2@@Z 000000018005c030 f   LowLevel_static_64:PxcNpMemBlockPool.obj
 0001:0005b060       ?acquireConstraintMemory@PxcNpMemBlockPool@physx@@QEAAXXZ 000000018005c060 f   LowLevel_static_64:PxcNpMemBlockPool.obj
 0001:0005b150       ?acquireContactBlock@PxcNpMemBlockPool@physx@@QEAAPEAUPxcNpMemBlock@2@XZ 000000018005c150 f   LowLevel_static_64:PxcNpMemBlockPool.obj
 0001:0005b180       ?acquireExceptionalConstraintMemory@PxcNpMemBlockPool@physx@@QEAAPEAEI@Z 000000018005c180 f   LowLevel_static_64:PxcNpMemBlockPool.obj
 0001:0005b230       ?acquireFrictionBlock@PxcNpMemBlockPool@physx@@QEAAPEAUPxcNpMemBlock@2@XZ 000000018005c230 f   LowLevel_static_64:PxcNpMemBlockPool.obj
 0001:0005b260       ?acquireNpCacheBlock@PxcNpMemBlockPool@physx@@QEAAPEAUPxcNpMemBlock@2@XZ 000000018005c260 f   LowLevel_static_64:PxcNpMemBlockPool.obj
 0001:0005b290       ?allocate@?$Array@PEAUPxcNpMemBlock@physx@@V?$ReflectionAllocator@PEAUPxcNpMemBlock@physx@@@shdfnd@2@@shdfnd@physx@@IEAAPEAPEAUPxcNpMemBlock@3@I@Z 000000018005c290 f i LowLevel_static_64:PxcNpMemBlockPool.obj
 0001:0005b330       ?getPeakConstraintBlockCount@PxcNpMemBlockPool@physx@@QEBAIXZ 000000018005c330 f   LowLevel_static_64:PxcNpMemBlockPool.obj
 0001:0005b340       ?getUsedBlockCount@PxcNpMemBlockPool@physx@@QEBAIXZ 000000018005c340 f   LowLevel_static_64:PxcNpMemBlockPool.obj
 0001:0005b350       ?growAndPushBack@?$Array@PEAUPxcNpMemBlock@physx@@V?$ReflectionAllocator@PEAUPxcNpMemBlock@physx@@@shdfnd@2@@shdfnd@physx@@IEAAAEAPEAUPxcNpMemBlock@3@AEBQEAU43@@Z 000000018005c350 f i LowLevel_static_64:PxcNpMemBlockPool.obj
 0001:0005b410       ?init@PxcNpMemBlockPool@physx@@QEAAXII@Z 000000018005c410 f   LowLevel_static_64:PxcNpMemBlockPool.obj
 0001:0005b590       ?recreate@?$Array@PEAUPxcNpMemBlock@physx@@V?$ReflectionAllocator@PEAUPxcNpMemBlock@physx@@@shdfnd@2@@shdfnd@physx@@IEAAXI@Z 000000018005c590 f i LowLevel_static_64:PxcNpMemBlockPool.obj
 0001:0005b630       ?release@PxcNpMemBlockPool@physx@@AEAAXAEAV?$Array@PEAUPxcNpMemBlock@physx@@V?$ReflectionAllocator@PEAUPxcNpMemBlock@physx@@@shdfnd@2@@shdfnd@2@PEAI@Z 000000018005c630 f   LowLevel_static_64:PxcNpMemBlockPool.obj
 0001:0005b6e0       ?releaseConstraintBlocks@PxcNpMemBlockPool@physx@@QEAAXAEAV?$Array@PEAUPxcNpMemBlock@physx@@V?$ReflectionAllocator@PEAUPxcNpMemBlock@physx@@@shdfnd@2@@shdfnd@2@@Z 000000018005c6e0 f   LowLevel_static_64:PxcNpMemBlockPool.obj
 0001:0005b7d0       ?releaseConstraintMemory@PxcNpMemBlockPool@physx@@QEAAXXZ 000000018005c7d0 f   LowLevel_static_64:PxcNpMemBlockPool.obj
 0001:0005b9d0       ?releaseContacts@PxcNpMemBlockPool@physx@@QEAAXXZ 000000018005c9d0 f   LowLevel_static_64:PxcNpMemBlockPool.obj
 0001:0005ba20       ?releaseUnusedBlocks@PxcNpMemBlockPool@physx@@QEAAXXZ 000000018005ca20 f   LowLevel_static_64:PxcNpMemBlockPool.obj
 0001:0005baa0       ?resize@?$Array@PEAUPxcNpMemBlock@physx@@V?$ReflectionAllocator@PEAUPxcNpMemBlock@physx@@@shdfnd@2@@shdfnd@physx@@QEAAXIAEBQEAUPxcNpMemBlock@3@@Z 000000018005caa0 f i LowLevel_static_64:PxcNpMemBlockPool.obj
 0001:0005bb60       ?setBlockCount@PxcNpMemBlockPool@physx@@QEAAXI@Z 000000018005cb60 f   LowLevel_static_64:PxcNpMemBlockPool.obj
 0001:0005bc20       ?swapFrictionStreams@PxcNpMemBlockPool@physx@@QEAAXXZ 000000018005cc20 f   LowLevel_static_64:PxcNpMemBlockPool.obj
 0001:0005bc70       ?swapNpCacheStreams@PxcNpMemBlockPool@physx@@QEAAXXZ 000000018005cc70 f   LowLevel_static_64:PxcNpMemBlockPool.obj
 0001:0005bcc0       ??0PxcNpThreadContext@physx@@QEAA@PEAUPxcNpContext@1@@Z 000000018005ccc0 f   LowLevel_static_64:PxcNpThreadContext.obj
 0001:0005be10       ??1PxcNpThreadContext@physx@@QEAA@XZ 000000018005ce10 f   LowLevel_static_64:PxcNpThreadContext.obj
 0001:0005bec0       ?clearStats@PxcNpThreadContext@physx@@QEAAXXZ 000000018005cec0 f   LowLevel_static_64:PxcNpThreadContext.obj
 0001:0005bef0       ?reset@PxcNpThreadContext@physx@@QEAAXI@Z 000000018005cef0 f   LowLevel_static_64:PxcNpThreadContext.obj
 0001:0005bfa0       ??0PxsContactManager@physx@@QEAA@PEAVPxsContext@1@I@Z 000000018005cfa0 f   LowLevel_static_64:PxsContactManager.obj
 0001:0005bfd0       ?resetFrictionCachedState@PxsContactManager@physx@@QEAAXXZ 000000018005cfd0 f   LowLevel_static_64:PxsContactManager.obj
 0001:0005bfe0       ?setCCD@PxsContactManager@physx@@QEAAX_N@Z 000000018005cfe0 f   LowLevel_static_64:PxsContactManager.obj
 0001:0005c000       ??0PxcNpCacheStreamPair@physx@@QEAA@AEAVPxcNpMemBlockPool@1@@Z 000000018005d000 f   LowLevel_static_64:PxcNpCacheStreamPair.obj
 0001:0005c010       ?reserve@PxcNpCacheStreamPair@physx@@QEAAPEAEI@Z 000000018005d010 f   LowLevel_static_64:PxcNpCacheStreamPair.obj
 0001:0005c0a0       ?reset@PxcNpCacheStreamPair@physx@@QEAAXXZ 000000018005d0a0 f   LowLevel_static_64:PxcNpCacheStreamPair.obj
 0001:0005c0b0       ??0Articulation@Dy@physx@@QEAA@PEAX@Z 000000018005d0b0 f   LowLevelDynamics_static_64:DyArticulation.obj
 0001:0005c150       ??1Articulation@Dy@physx@@UEAA@XZ 000000018005d150 f   LowLevelDynamics_static_64:DyArticulation.obj
 0001:0005c310       ??_GArticulation@Dy@physx@@UEAAPEAXI@Z 000000018005d310 f i LowLevelDynamics_static_64:DyArticulation.obj
 0001:0005c310       ??_EArticulation@Dy@physx@@UEAAPEAXI@Z 000000018005d310 f i LowLevelDynamics_static_64:DyArticulation.obj
 0001:0005c350       ??_EArticulationV@Dy@physx@@UEAAPEAXI@Z 000000018005d350 f i LowLevelDynamics_static_64:DyArticulation.obj
 0001:0005c350       ??_GArticulationV@Dy@physx@@UEAAPEAXI@Z 000000018005d350 f i LowLevelDynamics_static_64:DyArticulation.obj
 0001:0005c3d0       ?PxcFsApplyJointDrives@Dy@physx@@YAXAEAUFsData@12@PEBT__m128@@@Z 000000018005d3d0 f   LowLevelDynamics_static_64:DyArticulation.obj
 0001:0005c8c0       ?PxcFsComputeJointLoadsSimd@Dy@physx@@YAXAEBUFsData@12@PEIBUFsInertia@12@PEIAUMat33V@aos@shdfnd@2@PEIBMIIUPxcFsScratchAllocator@12@@Z 000000018005d8c0 f   LowLevelDynamics_static_64:DyArticulation.obj
 0001:0005e910       ?PxcFsPropagateDrivenInertiaSimd@Dy@physx@@YAXAEAUFsData@12@PEBUFsInertia@12@PEBMPEBUMat33V@aos@shdfnd@2@UPxcFsScratchAllocator@12@@Z 000000018005f910 f   LowLevelDynamics_static_64:DyArticulation.obj
 0001:0005f920       ?PxcLtbFactor@Dy@physx@@YAXAEAUFsData@12@@Z 0000000180060920 f   LowLevelDynamics_static_64:DyArticulation.obj
 0001:00060a10       ?PxcLtbSolve@Dy@physx@@YAXAEBUFsData@12@PEAT__m128@@PEAUSpatialVectorV@Cm@2@@Z 0000000180061a10 f   LowLevelDynamics_static_64:DyArticulation.obj
 0001:00060fd0       ?PxvRegisterArticulations@Dy@physx@@YAXXZ 0000000180061fd0 f   LowLevelDynamics_static_64:DyArticulation.obj
 0001:00061060       ?applyImpulses@Articulation@Dy@physx@@SAXAEBUFsData@23@PEAUSpatialVectorV@Cm@3@1@Z 0000000180062060 f   LowLevelDynamics_static_64:DyArticulation.obj
 0001:00061570       ?applyImpulses@PxvArticulationDriveCache@Dy@physx@@SAXAEBUFsData@23@PEAUSpatialVectorV@Cm@3@1@Z 0000000180062570 f   LowLevelDynamics_static_64:DyArticulation.obj
 0001:00061580       ?computeJointDrives@Articulation@Dy@physx@@AEAAXAEAUFsData@23@PEAT__m128@@PEBUArticulationLink@23@PEBVPxTransform@3@PEBUArticulationJointTransforms@23@PEBUMat33V@aos@shdfnd@3@M@Z 0000000180062580 f   LowLevelDynamics_static_64:DyArticulation.obj
 0001:00061ba0       ?computeSIS@ArticulationFnsSimdBase@Dy@physx@@SA?AUMat33V@aos@shdfnd@3@AEBUFsInertia@23@QEBUSpatialVectorV@Cm@3@QEAU893@@Z 0000000180062ba0 f i LowLevelDynamics_static_64:DyArticulation.obj
 0001:000620c0       ?computeUnconstrainedVelocities@Articulation@Dy@physx@@SAIAEBUArticulationSolverDesc@23@MAEAVPxConstraintAllocator@3@PEAUPxSolverConstraintDesc@3@AEAIAEBVPxVec3@3@_KPEAUSpatialVectorF@Cm@3@6@Z 00000001800630c0 f   LowLevelDynamics_static_64:DyArticulation.obj
 0001:000621b0       ?computeUnconstrainedVelocitiesInternal@Articulation@Dy@physx@@AEAAXAEBUArticulationSolverDesc@23@MAEBVPxVec3@3@_KPEIAUFsInertia@23@PEIAUArticulationJointTransforms@23@AEAUPxcFsScratchAllocator@23@@Z 00000001800631b0 f   LowLevelDynamics_static_64:DyArticulation.obj
 0001:00062a60       ?computeUnconstrainedVelocitiesTGS@Articulation@Dy@physx@@SAXAEBUArticulationSolverDesc@23@MAEBVPxVec3@3@_KPEAUSpatialVectorF@Cm@3@3@Z 0000000180063a60 f   LowLevelDynamics_static_64:DyArticulation.obj
 0001:00062ac0       ?deltaMotionToMotionVelocity@Articulation@Dy@physx@@SAXAEBUArticulationSolverDesc@23@M@Z 0000000180063ac0 f   LowLevelDynamics_static_64:DyArticulation.obj
 0001:00062b40       ?fillIndexedManager@Articulation@Dy@physx@@UEAAXIAEA_KAEAE@Z 0000000180063b40 f   LowLevelDynamics_static_64:DyArticulation.obj
 0001:00062b50       ?getCurrentTransform@Articulation@Dy@physx@@UEBAAEBVPxTransform@3@I@Z 0000000180063b50 f i LowLevelDynamics_static_64:DyArticulation.obj
 0001:00062b60       ?getDataSizes@Articulation@Dy@physx@@UEAAXIAEAI00@Z 0000000180063b60 f   LowLevelDynamics_static_64:DyArticulation.obj
 0001:00062b90       ?getDeltaQ@Articulation@Dy@physx@@UEBAAEBVPxQuat@3@I@Z 0000000180063b90 f i LowLevelDynamics_static_64:DyArticulation.obj
 0001:00062ba0       ?getImpulseResponse@Articulation@Dy@physx@@UEBAXIPEAUSpatialVectorF@Cm@3@AEBVSpatialVector@53@AEAV653@@Z 0000000180063ba0 f   LowLevelDynamics_static_64:DyArticulation.obj
 0001:00062ba0       ?getImpulseResponse@Articulation@Dy@physx@@UEBAXIPEAUSpatialVectorV@Cm@3@AEBU453@AEAU453@@Z 0000000180063ba0 f   LowLevelDynamics_static_64:DyArticulation.obj
 0001:00062bc0       ?getImpulseResponse@PxvArticulationDriveCache@Dy@physx@@SAXAEBUFsData@23@IAEBUSpatialVectorV@Cm@3@AEAU563@@Z 0000000180063bc0 f   LowLevelDynamics_static_64:DyArticulation.obj
 0001:00062bd0       ?getImpulseSelfResponse@Articulation@Dy@physx@@UEBAXIIPEAUSpatialVectorF@Cm@3@AEBVSpatialVector@53@1AEAV653@2@Z 0000000180063bd0 f   LowLevelDynamics_static_64:DyArticulation.obj
 0001:00062c10       ?getLinkMaxPenBias@Articulation@Dy@physx@@UEBAMI@Z 0000000180063c10 f   LowLevelDynamics_static_64:DyArticulation.obj
 0001:00062c40       ?getLinkMotionVector@Articulation@Dy@physx@@UEBA?AUSpatialVectorV@Cm@3@I@Z 0000000180063c40 f   LowLevelDynamics_static_64:DyArticulation.obj
 0001:00062c70       ?getLinkVelocity@Articulation@Dy@physx@@UEBA?AUSpatialVectorV@Cm@3@I@Z 0000000180063c70 f   LowLevelDynamics_static_64:DyArticulation.obj
 0001:00062ca0       ?getMotionAcceleration@Articulation@Dy@physx@@UEBA?AVSpatialVector@Cm@3@I@Z 0000000180063ca0 f   LowLevelDynamics_static_64:DyArticulation.obj
 0001:00062cc0       ?getMotionVelocity@Articulation@Dy@physx@@UEBA?AVSpatialVector@Cm@3@I@Z 0000000180063cc0 f   LowLevelDynamics_static_64:DyArticulation.obj
 0001:00062d20       ?initialize@PxvArticulationDriveCache@Dy@physx@@SAXAEAUFsData@23@GPEBUArticulationLink@23@MIPEADI@Z 0000000180063d20 f   LowLevelDynamics_static_64:DyArticulation.obj
 0001:00062f60       ?onUpdateSolverDesc@Articulation@Dy@physx@@UEAAXXZ 0000000180063f60 f i LowLevelDynamics_static_64:DyArticulation.obj
 0001:00062fb0       ?prepareDataBlock@Articulation@Dy@physx@@SAXAEAUFsData@23@PEBUArticulationLink@23@GPEAVPxTransform@3@PEAVPxQuat@3@PEAUFsInertia@23@PEAUArticulationJointTransforms@23@I@Z 0000000180063fb0 f   LowLevelDynamics_static_64:DyArticulation.obj
 0001:000636f0       ?prepareFsData@Articulation@Dy@physx@@SAXAEAUFsData@23@PEBUArticulationLink@23@@Z 00000001800646f0 f   LowLevelDynamics_static_64:DyArticulation.obj
 0001:000638a0       ?prepareLtbMatrix@Articulation@Dy@physx@@AEAAXAEAUFsData@23@PEBUFsInertia@23@PEBVPxTransform@3@PEBUArticulationJointTransforms@23@M@Z 00000001800648a0 f   LowLevelDynamics_static_64:DyArticulation.obj
 0001:00063d30       ?pxcFsApplyImpulse@Articulation@Dy@physx@@UEAAXIT__m128@@0PEAUSpatialVectorF@Cm@3@1@Z 0000000180064d30 f   LowLevelDynamics_static_64:DyArticulation.obj
 0001:00063ea0       ?pxcFsApplyImpulses@Articulation@Dy@physx@@UEAAXIAEBT__m128@@0I00PEAUSpatialVectorF@Cm@3@1@Z 0000000180064ea0 f   LowLevelDynamics_static_64:DyArticulation.obj
 0001:00063f50       ?pxcFsGetVelocities@Articulation@Dy@physx@@UEAAXIIAEAUSpatialVectorV@Cm@3@0@Z 0000000180064f50 f   LowLevelDynamics_static_64:DyArticulation.obj
 0001:00063fc0       ?pxcFsGetVelocity@Articulation@Dy@physx@@UEAA?AUSpatialVectorV@Cm@3@I@Z 0000000180064fc0 f   LowLevelDynamics_static_64:DyArticulation.obj
 0001:00064510       ?pxcFsGetVelocityTGS@Articulation@Dy@physx@@UEAA?AUSpatialVectorV@Cm@3@I@Z 0000000180065510 f i LowLevelDynamics_static_64:DyArticulation.obj
 0001:00064530       ?recordDeltaMotion@Articulation@Dy@physx@@SAXAEBUArticulationSolverDesc@23@MPEAUSpatialVectorF@Cm@3@M@Z 0000000180065530 f   LowLevelDynamics_static_64:DyArticulation.obj
 0001:00064820       ?recreate@?$Array@UMat33V@aos@shdfnd@physx@@V?$ReflectionAllocator@UMat33V@aos@shdfnd@physx@@@34@@shdfnd@physx@@IEAAXI@Z 0000000180065820 f i LowLevelDynamics_static_64:DyArticulation.obj
 0001:00064950       ?recreate@?$Array@USpatialVectorV@Cm@physx@@V?$ReflectionAllocator@USpatialVectorV@Cm@physx@@@shdfnd@3@@shdfnd@physx@@IEAAXI@Z 0000000180065950 f i LowLevelDynamics_static_64:DyArticulation.obj
 0001:00064a70       ?recreate@?$Array@VPxQuat@physx@@V?$ReflectionAllocator@VPxQuat@physx@@@shdfnd@2@@shdfnd@physx@@IEAAXI@Z 0000000180065a70 f i LowLevelDynamics_static_64:DyArticulation.obj
 0001:00064c40       ?recreate@?$Array@VPxTransform@physx@@V?$ReflectionAllocator@VPxTransform@physx@@@shdfnd@2@@shdfnd@physx@@IEAAXI@Z 0000000180065c40 f i LowLevelDynamics_static_64:DyArticulation.obj
 0001:00064e80       ?resize@?$Array@DV?$ReflectionAllocator@D@shdfnd@physx@@@shdfnd@physx@@QEAAXIAEBD@Z 0000000180065e80 f i LowLevelDynamics_static_64:DyArticulation.obj
 0001:00064f40       ?resize@?$Array@UMat33V@aos@shdfnd@physx@@V?$ReflectionAllocator@UMat33V@aos@shdfnd@physx@@@34@@shdfnd@physx@@QEAAXIAEBUMat33V@aos@23@@Z 0000000180065f40 f i LowLevelDynamics_static_64:DyArticulation.obj
 0001:00064fd0       ?resize@?$Array@USpatialVectorV@Cm@physx@@V?$ReflectionAllocator@USpatialVectorV@Cm@physx@@@shdfnd@3@@shdfnd@physx@@QEAAXIAEBUSpatialVectorV@Cm@3@@Z 0000000180065fd0 f i LowLevelDynamics_static_64:DyArticulation.obj
 0001:00065040       ?resize@?$Array@VPxQuat@physx@@V?$ReflectionAllocator@VPxQuat@physx@@@shdfnd@2@@shdfnd@physx@@QEAAXIAEBVPxQuat@3@@Z 0000000180066040 f i LowLevelDynamics_static_64:DyArticulation.obj
 0001:00065160       ?resize@?$Array@VPxTransform@physx@@V?$ReflectionAllocator@VPxTransform@physx@@@shdfnd@2@@shdfnd@physx@@QEAAXIAEBVPxTransform@3@@Z 0000000180066160 f i LowLevelDynamics_static_64:DyArticulation.obj
 0001:000652e0       ?resize@Articulation@Dy@physx@@UEAA_NI@Z 00000001800662e0 f   LowLevelDynamics_static_64:DyArticulation.obj
 0001:00065520       ?resize@ArticulationV@Dy@physx@@UEAA_NI@Z 0000000180066520 f   LowLevelDynamics_static_64:DyArticulation.obj
 0001:00065550       ?saveVelocity@Articulation@Dy@physx@@SAXAEBUArticulationSolverDesc@23@PEAUSpatialVectorF@Cm@3@@Z 0000000180066550 f   LowLevelDynamics_static_64:DyArticulation.obj
 0001:000656d0       ?saveVelocityTGS@Articulation@Dy@physx@@SAXAEBUArticulationSolverDesc@23@M@Z 00000001800666d0 f   LowLevelDynamics_static_64:DyArticulation.obj
 0001:00065880       ?setInertia@Articulation@Dy@physx@@SAXAEAUFsInertia@23@AEBUPxsBodyCore@3@AEBVPxTransform@3@@Z 0000000180066880 f   LowLevelDynamics_static_64:DyArticulation.obj
 0001:00065c40       ?setJointTransforms@Articulation@Dy@physx@@SAXAEAUArticulationJointTransforms@23@AEBVPxTransform@3@1AEBUArticulationJointCore@23@@Z 0000000180066c40 f   LowLevelDynamics_static_64:DyArticulation.obj
 0001:00066180       ?updateBodies@Articulation@Dy@physx@@SAXAEBUArticulationSolverDesc@23@M@Z 0000000180067180 f   LowLevelDynamics_static_64:DyArticulation.obj
 0001:00067370       ??$median3@UPxSolverConstraintDesc@physx@@$$CBUArticulationStaticConstraintSortPredicate@Dy@2@@internal@shdfnd@physx@@YAXPEAUPxSolverConstraintDesc@2@HHAEBUArticulationStaticConstraintSortPredicate@Dy@2@@Z 0000000180068370 f i LowLevelDynamics_static_64:DyFeatherstoneArticulation.obj
 0001:00067520       ??$sort@UPxSolverConstraintDesc@physx@@UArticulationStaticConstraintSortPredicate@Dy@2@V?$ReflectionAllocator@UPxSolverConstraintDesc@physx@@@shdfnd@2@@shdfnd@physx@@YAXPEAUPxSolverConstraintDesc@1@IAEBUArticulationStaticConstraintSortPredicate@Dy@1@AEBV?$ReflectionAllocator@UPxSolverConstraintDesc@physx@@@01@I@Z 0000000180068520 f i LowLevelDynamics_static_64:DyFeatherstoneArticulation.obj
 0001:000679c0       ??0ArticulationData@Dy@physx@@QEAA@XZ 00000001800689c0 f i LowLevelDynamics_static_64:DyFeatherstoneArticulation.obj
 0001:00067b60       ??0FeatherstoneArticulation@Dy@physx@@QEAA@PEAX@Z 0000000180068b60 f   LowLevelDynamics_static_64:DyFeatherstoneArticulation.obj
 0001:00067bf0       ??1ArticulationData@Dy@physx@@QEAA@XZ 0000000180068bf0 f   LowLevelDynamics_static_64:DyFeatherstoneArticulation.obj
 0001:00068180       ??1FeatherstoneArticulation@Dy@physx@@UEAA@XZ 0000000180069180 f   LowLevelDynamics_static_64:DyFeatherstoneArticulation.obj
 0001:00068250       ??_GBlockAllocator@Dy@physx@@UEAAPEAXI@Z 0000000180069250 f i LowLevelDynamics_static_64:DyFeatherstoneArticulation.obj
 0001:00068250       ??_EBlockAllocator@Dy@physx@@UEAAPEAXI@Z 0000000180069250 f i LowLevelDynamics_static_64:DyFeatherstoneArticulation.obj
 0001:00068280       ??_GFeatherstoneArticulation@Dy@physx@@UEAAPEAXI@Z 0000000180069280 f i LowLevelDynamics_static_64:DyFeatherstoneArticulation.obj
 0001:00068280       ??_EFeatherstoneArticulation@Dy@physx@@UEAAPEAXI@Z 0000000180069280 f i LowLevelDynamics_static_64:DyFeatherstoneArticulation.obj
 0001:00068370       ??_GPxConstraintAllocator@physx@@UEAAPEAXI@Z 0000000180069370 f i LowLevelDynamics_static_64:DyFeatherstoneArticulation.obj
 0001:00068370       ??_EPxsSimulationControllerCallback@physx@@UEAAPEAXI@Z 0000000180069370 f i SimulationController_static_64:ScScene.obj
 0001:00068370       ??_EPxConstraintAllocator@physx@@UEAAPEAXI@Z 0000000180069370 f i LowLevelDynamics_static_64:DyFeatherstoneArticulation.obj
 0001:00068370       ??_GPxsSimulationControllerCallback@physx@@UEAAPEAXI@Z 0000000180069370 f i SimulationController_static_64:ScScene.obj
 0001:000683a0       ?PxcFsFlushVelocity@Dy@physx@@YAXAEAVFeatherstoneArticulation@12@PEAUSpatialVectorF@Cm@2@@Z 00000001800693a0 f   LowLevelDynamics_static_64:DyFeatherstoneArticulation.obj
 0001:00068b30       ?PxvRegisterArticulationsReducedCoordinate@Dy@physx@@YAXXZ 0000000180069b30 f   LowLevelDynamics_static_64:DyFeatherstoneArticulation.obj
 0001:00068bc0       ?allocate@?$Array@IV?$ReflectionAllocator@I@shdfnd@physx@@@shdfnd@physx@@IEAAPEAII@Z 0000000180069bc0 f i LowLevelDynamics_static_64:DyFeatherstoneArticulation.obj
 0001:00068c60       ?allocate@?$ReflectionAllocator@UPxSolverConstraintDesc@physx@@@shdfnd@physx@@QEAAPEAX_KPEBDH@Z 0000000180069c60 f i LowLevelDynamics_static_64:DyFeatherstoneArticulation.obj
 0001:00068d00       ?allocateScratchSpatialData@FeatherstoneArticulation@Dy@physx@@QEAAPEAEPEAVPxcScratchAllocator@3@IAEAUScratchData@23@_N@Z 0000000180069d00 f   LowLevelDynamics_static_64:DyFeatherstoneArticulation.obj
 0001:00068e20       ?applyCache@FeatherstoneArticulation@Dy@physx@@UEAA_NAEAVPxArticulationCache@3@V?$PxFlags@W4Enum@PxArticulationCache@physx@@E@3@@Z 0000000180069e20 f   LowLevelDynamics_static_64:DyFeatherstoneArticulation.obj
 0001:00068e80       ?computeArticJacobianAxes@Dy@physx@@YAXQEAVPxVec3@2@AEBVPxQuat@2@1@Z 0000000180069e80 f i LowLevelDynamics_static_64:DyFeatherstoneArticulation.obj
 0001:000690e0       ?computeC@FeatherstoneArticulation@Dy@physx@@IEAAXAEAVArticulationData@23@AEAUScratchData@23@@Z 000000018006a0e0 f   LowLevelDynamics_static_64:DyFeatherstoneArticulation.obj
 0001:000697c0       ?computeD@FeatherstoneArticulation@Dy@physx@@IEAAXAEAVArticulationData@23@AEAUScratchData@23@PEAUSpatialVectorF@Cm@3@2@Z 000000018006a7c0 f   LowLevelDynamics_static_64:DyFeatherstoneArticulation.obj
 0001:0006a040       ?computeDofs@FeatherstoneArticulation@Dy@physx@@IEAAXXZ 000000018006b040 f   LowLevelDynamics_static_64:DyFeatherstoneArticulation.obj
 0001:0006a1c0       ?computeLinkVelocities@FeatherstoneArticulation@Dy@physx@@IEAAXAEAVArticulationData@23@AEAUScratchData@23@@Z 000000018006b1c0 f   LowLevelDynamics_static_64:DyFeatherstoneArticulation.obj
 0001:0006a5f0       ?computeLinkVelocities@FeatherstoneArticulation@Dy@physx@@QEAAXAEAVArticulationData@23@@Z 000000018006b5f0 f   LowLevelDynamics_static_64:DyFeatherstoneArticulation.obj
 0001:0006ae00       ?computeRelativeTransformC2B@FeatherstoneArticulation@Dy@physx@@IEAAXAEAVArticulationData@23@@Z 000000018006be00 f   LowLevelDynamics_static_64:DyFeatherstoneArticulation.obj
 0001:0006aff0       ?computeRelativeTransformC2P@FeatherstoneArticulation@Dy@physx@@IEAAXAEAVArticulationData@23@@Z 000000018006bff0 f   LowLevelDynamics_static_64:DyFeatherstoneArticulation.obj
 0001:0006b6f0       ?computeSpatialInertia@FeatherstoneArticulation@Dy@physx@@IEAAXAEAVArticulationData@23@@Z 000000018006c6f0 f   LowLevelDynamics_static_64:DyFeatherstoneArticulation.obj
 0001:0006bab0       ?computeZ@FeatherstoneArticulation@Dy@physx@@IEAAXAEAVArticulationData@23@AEBVPxVec3@3@AEAUScratchData@23@@Z 000000018006cab0 f   LowLevelDynamics_static_64:DyFeatherstoneArticulation.obj
 0001:0006beb0       ?concludeInternalConstraints@FeatherstoneArticulation@Dy@physx@@MEAAX_N@Z 000000018006ceb0 f   LowLevelDynamics_static_64:DyFeatherstoneArticulation.obj
 0001:0006bf30       ?copy@?$Array@UArticulationInternalLockedAxis@Dy@physx@@V?$ReflectionAllocator@UArticulationInternalLockedAxis@Dy@physx@@@shdfnd@3@@shdfnd@physx@@KAXPEAUArticulationInternalLockedAxis@Dy@3@0PEBU453@@Z 000000018006cf30 f i LowLevelDynamics_static_64:DyFeatherstoneArticulation.obj
 0001:0006c2a0       ?copyInternalStateToCache@FeatherstoneArticulation@Dy@physx@@UEAAXAEAVPxArticulationCache@3@V?$PxFlags@W4Enum@PxArticulationCache@physx@@E@3@@Z 000000018006d2a0 f   LowLevelDynamics_static_64:DyFeatherstoneArticulation.obj
 0001:0006ca30       ?copyJointData@FeatherstoneArticulation@Dy@physx@@IEAAXAEAVArticulationData@23@PEAMPEBM@Z 000000018006da30 f   LowLevelDynamics_static_64:DyFeatherstoneArticulation.obj
 0001:0006ca50       ?deltaMotionToMotionVelocity@FeatherstoneArticulation@Dy@physx@@SAXAEBUArticulationSolverDesc@23@M@Z 000000018006da50 f   LowLevelDynamics_static_64:DyFeatherstoneArticulation.obj
 0001:0006cef0       ?exp@shdfnd@physx@@YA?AVPxQuat@2@AEBVPxVec3@2@@Z 000000018006def0 f i LowLevelDynamics_static_64:DyFeatherstoneArticulation.obj
 0001:0006cfe0       ?fillIndexedManager@FeatherstoneArticulation@Dy@physx@@UEAAXIAEA_KAEAE@Z 000000018006dfe0 f   LowLevelDynamics_static_64:DyFeatherstoneArticulation.obj
 0001:0006d010       ?findInputPatches@BlockAllocator@Dy@physx@@UEAAPEAEPEAE@Z 000000018006e010 f i LowLevelDynamics_static_64:DyFeatherstoneArticulation.obj
 0001:0006d020       ?getCurrentTransform@FeatherstoneArticulation@Dy@physx@@UEBAAEBVPxTransform@3@I@Z 000000018006e020 f   LowLevelDynamics_static_64:DyFeatherstoneArticulation.obj
 0001:0006d030       ?getDataSizes@FeatherstoneArticulation@Dy@physx@@UEAAXIAEAI00@Z 000000018006e030 f   LowLevelDynamics_static_64:DyFeatherstoneArticulation.obj
 0001:0006d040       ?getDeltaQ@FeatherstoneArticulation@Dy@physx@@UEBAAEBVPxQuat@3@I@Z 000000018006e040 f   LowLevelDynamics_static_64:DyFeatherstoneArticulation.obj
 0001:0006d050       ?getDeltaVWithDeltaJV@FeatherstoneArticulation@Dy@physx@@KA?AUSpatialVectorF@Cm@3@_NIAEBVArticulationData@23@PEAU453@PEAM@Z 000000018006e050 f   LowLevelDynamics_static_64:DyFeatherstoneArticulation.obj
 0001:0006d650       ?getDenseJacobian@FeatherstoneArticulation@Dy@physx@@UEAAXAEAVPxArticulationCache@3@AEAI1@Z 000000018006e650 f   LowLevelDynamics_static_64:DyFeatherstoneArticulation.obj
 0001:0006de80       ?getDof@FeatherstoneArticulation@Dy@physx@@UEAAII@Z 000000018006ee80 f   LowLevelDynamics_static_64:DyFeatherstoneArticulation.obj
 0001:0006dea0       ?getDofs@FeatherstoneArticulation@Dy@physx@@UEAAIXZ 000000018006eea0 f   LowLevelDynamics_static_64:DyFeatherstoneArticulation.obj
 0001:0006ded0       ?getImpulseResponse@FeatherstoneArticulation@Dy@physx@@UEBAXIPEAUSpatialVectorF@Cm@3@AEBVSpatialVector@53@AEAV653@@Z 000000018006eed0 f   LowLevelDynamics_static_64:DyFeatherstoneArticulation.obj
 0001:0006e050       ?getImpulseResponse@FeatherstoneArticulation@Dy@physx@@UEBAXIPEAUSpatialVectorV@Cm@3@AEBU453@AEAU453@@Z 000000018006f050 f   LowLevelDynamics_static_64:DyFeatherstoneArticulation.obj
 0001:0006e1c0       ?getImpulseResponseSlow@FeatherstoneArticulation@Dy@physx@@SAXPEAUArticulationLink@23@AEBVArticulationData@23@IAEBVSpatialVector@Cm@3@AEAV673@I23PEAUSpatialVectorF@73@@Z 000000018006f1c0 f   LowLevelDynamics_static_64:DyFeatherstoneArticulation.obj
 0001:0006eaf0       ?getImpulseResponseWithJ@FeatherstoneArticulation@Dy@physx@@KA?AUSpatialVectorF@Cm@3@I_NAEBVArticulationData@23@PEAU453@AEBU453@PEAM@Z 000000018006faf0 f   LowLevelDynamics_static_64:DyFeatherstoneArticulation.obj
 0001:0006eca0       ?getImpulseSelfResponse@FeatherstoneArticulation@Dy@physx@@SAXPEAUArticulationLink@23@_NPEAUSpatialVectorF@Cm@3@AEBVArticulationData@23@IAEBUSpatialVectorV@63@AEAU863@I45@Z 000000018006fca0 f   LowLevelDynamics_static_64:DyFeatherstoneArticulation.obj
 0001:0006f070       ?getImpulseSelfResponse@FeatherstoneArticulation@Dy@physx@@UEBAXIIPEAUSpatialVectorF@Cm@3@AEBVSpatialVector@53@1AEAV653@2@Z 0000000180070070 f   LowLevelDynamics_static_64:DyFeatherstoneArticulation.obj
 0001:0006f0e0       ?getLinkData@ArticulationData@Dy@physx@@QEBAAEAVArticulationLinkData@23@I@Z 00000001800700e0 f   LowLevelDynamics_static_64:DyFeatherstoneArticulation.obj
 0001:0006f100       ?getLinkMaxPenBias@FeatherstoneArticulation@Dy@physx@@UEBAMI@Z 0000000180070100 f   LowLevelDynamics_static_64:DyFeatherstoneArticulation.obj
 0001:0006f120       ?getLinkMotionVector@FeatherstoneArticulation@Dy@physx@@UEBA?AUSpatialVectorV@Cm@3@I@Z 0000000180070120 f   LowLevelDynamics_static_64:DyFeatherstoneArticulation.obj
 0001:0006f160       ?getLinkVelocity@FeatherstoneArticulation@Dy@physx@@UEBA?AUSpatialVectorV@Cm@3@I@Z 0000000180070160 f   LowLevelDynamics_static_64:DyFeatherstoneArticulation.obj
 0001:0006f190       ?getMotionAcceleration@FeatherstoneArticulation@Dy@physx@@UEBA?AVSpatialVector@Cm@3@I@Z 0000000180070190 f   LowLevelDynamics_static_64:DyFeatherstoneArticulation.obj
 0001:0006f1b0       ?getMotionVelocity@FeatherstoneArticulation@Dy@physx@@UEBA?AVSpatialVector@Cm@3@I@Z 00000001800701b0 f   LowLevelDynamics_static_64:DyFeatherstoneArticulation.obj
 0001:0006f200       ?getZ@FeatherstoneArticulation@Dy@physx@@KAXIAEBVArticulationData@23@PEAUSpatialVectorF@Cm@3@AEBU563@@Z 0000000180070200 f   LowLevelDynamics_static_64:DyFeatherstoneArticulation.obj
 0001:0006f370       ?growAndPushBack@?$Array@UPxSolverConstraintDesc@physx@@V?$ReflectionAllocator@UPxSolverConstraintDesc@physx@@@shdfnd@2@@shdfnd@physx@@IEAAAEAUPxSolverConstraintDesc@3@AEBU43@@Z 0000000180070370 f i LowLevelDynamics_static_64:DyFeatherstoneArticulation.obj
 0001:0006f480       ?jcalc@FeatherstoneArticulation@Dy@physx@@IEAAXAEAVArticulationData@23@_N@Z 0000000180070480 f   LowLevelDynamics_static_64:DyFeatherstoneArticulation.obj
 0001:0006f830       ?onUpdateSolverDesc@FeatherstoneArticulation@Dy@physx@@UEAAXXZ 0000000180070830 f   LowLevelDynamics_static_64:DyFeatherstoneArticulation.obj
 0001:0006f890       ?prepareStaticConstraints@FeatherstoneArticulation@Dy@physx@@UEAAXMMAEAVPxsContactManagerOutputIterator@3@AEAVThreadContext@23@MMMMMPEAUPxSolverBodyData@3@AEAVPxsConstraintBlockManager@3@PEAUConstraintWriteback@23@@Z 0000000180070890 f   LowLevelDynamics_static_64:DyFeatherstoneArticulation.obj
 0001:00070020       ?prepareStaticConstraintsTGS@FeatherstoneArticulation@Dy@physx@@UEAAXMMMMAEAVPxsContactManagerOutputIterator@3@AEAVThreadContext@23@MMMPEAUPxTGSSolverBodyData@3@PEAUPxTGSSolverBodyTxInertia@3@AEAVPxsConstraintBlockManager@3@PEAUConstraintWriteback@23@IM@Z 0000000180071020 f   LowLevelDynamics_static_64:DyFeatherstoneArticulation.obj
 0001:00070850       ?propagateImpulseW@FeatherstoneArticulation@Dy@physx@@SA?AUSpatialVectorF@Cm@3@AEBUIsInvD@23@AEBVPxVec3@3@AEBUSpatialSubspaceMatrix@23@AEBU453@@Z 0000000180071850 f   LowLevelDynamics_static_64:DyFeatherstoneArticulation.obj
 0001:00070f60       ?propagateTransform@FeatherstoneArticulation@Dy@physx@@QEAA?AVPxTransform@3@IPEAUArticulationLink@23@AEAVArticulationJointCoreData@23@PEAUSpatialVectorF@Cm@3@MAEBV43@3PEAM44AEBUSpatialSubspaceMatrix@23@5@Z 0000000180071f60 f   LowLevelDynamics_static_64:DyFeatherstoneArticulation.obj
 0001:00071d70       ?propagateVelocityTestImpulseW@FeatherstoneArticulation@Dy@physx@@SA?AUSpatialVectorF@Cm@3@AEBVPxVec3@3@AEBUSpatialMatrix@23@AEBUInvStIs@23@AEBUSpatialSubspaceMatrix@23@AEBU453@4@Z 0000000180072d70 f   LowLevelDynamics_static_64:DyFeatherstoneArticulation.obj
 0001:00072520       ?propagateVelocityW@FeatherstoneArticulation@Dy@physx@@SA?AUSpatialVectorF@Cm@3@AEBVPxVec3@3@AEBUSpatialMatrix@23@AEBUInvStIs@23@AEBUSpatialSubspaceMatrix@23@AEBU453@PEAM4@Z 0000000180073520 f   LowLevelDynamics_static_64:DyFeatherstoneArticulation.obj
 0001:00072d50       ?pxcFsApplyImpulse@FeatherstoneArticulation@Dy@physx@@UEAAXIT__m128@@0PEAUSpatialVectorF@Cm@3@1@Z 0000000180073d50 f   LowLevelDynamics_static_64:DyFeatherstoneArticulation.obj
 0001:00072f60       ?pxcFsApplyImpulses@FeatherstoneArticulation@Dy@physx@@UEAAXIAEBT__m128@@0I00PEAUSpatialVectorF@Cm@3@1@Z 0000000180073f60 f   LowLevelDynamics_static_64:DyFeatherstoneArticulation.obj
 0001:00073610       ?pxcFsApplyImpulses@FeatherstoneArticulation@Dy@physx@@UEAAXPEAUSpatialVectorF@Cm@3@@Z 0000000180074610 f   LowLevelDynamics_static_64:DyFeatherstoneArticulation.obj
 0001:00073820       ?pxcFsGetVelocities@FeatherstoneArticulation@Dy@physx@@UEAAXIIAEAUSpatialVectorV@Cm@3@0@Z 0000000180074820 f   LowLevelDynamics_static_64:DyFeatherstoneArticulation.obj
 0001:00074220       ?pxcFsGetVelocity@FeatherstoneArticulation@Dy@physx@@UEAA?AUSpatialVectorV@Cm@3@I@Z 0000000180075220 f   LowLevelDynamics_static_64:DyFeatherstoneArticulation.obj
 0001:000747d0       ?pxcFsGetVelocityTGS@FeatherstoneArticulation@Dy@physx@@UEAA?AUSpatialVectorV@Cm@3@I@Z 00000001800757d0 f   LowLevelDynamics_static_64:DyFeatherstoneArticulation.obj
 0001:000747f0       ?recordDeltaMotion@FeatherstoneArticulation@Dy@physx@@SAXAEBUArticulationSolverDesc@23@MPEAUSpatialVectorF@Cm@3@M@Z 00000001800757f0 f   LowLevelDynamics_static_64:DyFeatherstoneArticulation.obj
 0001:00074fd0       ?recreate@?$Array@IV?$ReflectionAllocator@I@shdfnd@physx@@@shdfnd@physx@@IEAAXI@Z 0000000180075fd0 f i LowLevelDynamics_static_64:DyFeatherstoneArticulation.obj
 0001:00075070       ?recreate@?$Array@MV?$ReflectionAllocator@M@shdfnd@physx@@@shdfnd@physx@@IEAAXI@Z 0000000180076070 f i LowLevelDynamics_static_64:DyFeatherstoneArticulation.obj
 0001:000751b0       ?recreate@?$Array@UArticulationInternalConstraint@Dy@physx@@V?$ReflectionAllocator@UArticulationInternalConstraint@Dy@physx@@@shdfnd@3@@shdfnd@physx@@IEAAXI@Z 00000001800761b0 f i LowLevelDynamics_static_64:DyFeatherstoneArticulation.obj
 0001:000753f0       ?recreate@?$Array@UArticulationInternalLockedAxis@Dy@physx@@V?$ReflectionAllocator@UArticulationInternalLockedAxis@Dy@physx@@@shdfnd@3@@shdfnd@physx@@IEAAXI@Z 00000001800763f0 f i LowLevelDynamics_static_64:DyFeatherstoneArticulation.obj
 0001:000754f0       ?recreate@?$Array@UInvStIs@Dy@physx@@V?$ReflectionAllocator@UInvStIs@Dy@physx@@@shdfnd@3@@shdfnd@physx@@IEAAXI@Z 00000001800764f0 f i LowLevelDynamics_static_64:DyFeatherstoneArticulation.obj
 0001:00075620       ?recreate@?$Array@UIsInvD@Dy@physx@@V?$ReflectionAllocator@UIsInvD@Dy@physx@@@shdfnd@3@@shdfnd@physx@@IEAAXI@Z 0000000180076620 f i LowLevelDynamics_static_64:DyFeatherstoneArticulation.obj
 0001:000757d0       ?recreate@?$Array@USpatialImpulseResponseMatrix@Dy@physx@@V?$ReflectionAllocator@USpatialImpulseResponseMatrix@Dy@physx@@@shdfnd@3@@shdfnd@physx@@IEAAXI@Z 00000001800767d0 f i LowLevelDynamics_static_64:DyFeatherstoneArticulation.obj
 0001:00075a30       ?recreate@?$Array@USpatialMatrix@Dy@physx@@V?$ReflectionAllocator@USpatialMatrix@Dy@physx@@@shdfnd@3@@shdfnd@physx@@IEAAXI@Z 0000000180076a30 f i LowLevelDynamics_static_64:DyFeatherstoneArticulation.obj
 0001:00075c30       ?recreate@?$Array@USpatialSubspaceMatrix@Dy@physx@@V?$ReflectionAllocator@USpatialSubspaceMatrix@Dy@physx@@@shdfnd@3@@shdfnd@physx@@IEAAXI@Z 0000000180076c30 f i LowLevelDynamics_static_64:DyFeatherstoneArticulation.obj
 0001:00075dd0       ?recreate@?$Array@USpatialVectorF@Cm@physx@@V?$ReflectionAllocator@USpatialVectorF@Cm@physx@@@shdfnd@3@@shdfnd@physx@@IEAAXI@Z 0000000180076dd0 f i LowLevelDynamics_static_64:DyFeatherstoneArticulation.obj
 0001:00076050       ?resize@?$Array@USpatialSubspaceMatrix@Dy@physx@@V?$ReflectionAllocator@USpatialSubspaceMatrix@Dy@physx@@@shdfnd@3@@shdfnd@physx@@QEAAXIAEBUSpatialSubspaceMatrix@Dy@3@@Z 0000000180077050 f i LowLevelDynamics_static_64:DyFeatherstoneArticulation.obj
 0001:00076130       ?resize@FeatherstoneArticulation@Dy@physx@@UEAA_NI@Z 0000000180077130 f   LowLevelDynamics_static_64:DyFeatherstoneArticulation.obj
 0001:000761d0       ?resizeJointData@ArticulationData@Dy@physx@@QEAAXI@Z 00000001800771d0 f   LowLevelDynamics_static_64:DyFeatherstoneArticulation.obj
 0001:00076300       ?resizeLinkData@ArticulationData@Dy@physx@@QEAAXI@Z 0000000180077300 f   LowLevelDynamics_static_64:DyFeatherstoneArticulation.obj
 0001:000767d0       ?saveVelocity@FeatherstoneArticulation@Dy@physx@@SAXAEBUArticulationSolverDesc@23@PEAUSpatialVectorF@Cm@3@@Z 00000001800777d0 f   LowLevelDynamics_static_64:DyFeatherstoneArticulation.obj
 0001:00076850       ?setJointPose@ArticulationJointCore@Dy@physx@@QEAAXAEAVArticulationJointCoreData@23@AEAUSpatialSubspaceMatrix@23@_NAEAVPxQuat@3@@Z 0000000180077850 f   LowLevelDynamics_static_64:DyFeatherstoneArticulation.obj
 0001:00076f70       ?setupInternalConstraints@FeatherstoneArticulation@Dy@physx@@QEAAXPEAUArticulationLink@23@I_NAEAVArticulationData@23@PEAUSpatialVectorF@Cm@3@MMMM_N@Z 0000000180077f70 f   LowLevelDynamics_static_64:DyFeatherstoneArticulation.obj
 0001:00077170       ?setupInternalConstraintsRecursive@FeatherstoneArticulation@Dy@physx@@QEAAXPEAUArticulationLink@23@I_NAEAVArticulationData@23@PEAUSpatialVectorF@Cm@3@MMMMM1IM@Z 0000000180078170 f   LowLevelDynamics_static_64:DyFeatherstoneArticulation.obj
 0001:00078800       ?setupSolverConstraints@FeatherstoneArticulation@Dy@physx@@QEAAIPEAUArticulationLink@23@I_NAEAVArticulationData@23@PEAUSpatialVectorF@Cm@3@AEAI@Z 0000000180079800 f   LowLevelDynamics_static_64:DyFeatherstoneArticulation.obj
 0001:00078870       ?setupSolverConstraintsTGS@FeatherstoneArticulation@Dy@physx@@SAIAEBUArticulationSolverDesc@23@AEAVPxcConstraintBlockStream@3@PEAUPxSolverConstraintDesc@3@MMMAEAIAEAVPxsConstraintBlockManager@3@PEAUSpatialVectorF@Cm@3@@Z 0000000180079870 f   LowLevelDynamics_static_64:DyFeatherstoneArticulation.obj
 0001:00078900       ?solveInternalConstraintRecursive@FeatherstoneArticulation@Dy@physx@@IEAA?AUSpatialVectorF@Cm@3@MMPEAU453@0_N1MIAEBU453@AEAI3@Z 0000000180079900 f   LowLevelDynamics_static_64:DyFeatherstoneArticulation.obj
 0001:00079d50       ?solveInternalConstraints@FeatherstoneArticulation@Dy@physx@@MEAAXMMPEAUSpatialVectorF@Cm@3@0_N1M@Z 000000018007ad50 f   LowLevelDynamics_static_64:DyFeatherstoneArticulation.obj
 0001:0007aa10       ?solveStaticConstraint@Dy@physx@@YAXAEBUPxSolverConstraintDesc@2@AEAUSpatialVectorF@Cm@2@11AEBU452@AEBVPxQuat@2@_NMM@Z 000000018007ba10 f   LowLevelDynamics_static_64:DyFeatherstoneArticulation.obj
 0001:0007ae40       ?storeStaticConstraint@FeatherstoneArticulation@Dy@physx@@UEAA_NAEBUPxSolverConstraintDesc@3@@Z 000000018007be40 f   LowLevelDynamics_static_64:DyFeatherstoneArticulation.obj
 0001:0007aea0       ?teleportLinks@FeatherstoneArticulation@Dy@physx@@QEAAXAEAVArticulationData@23@@Z 000000018007bea0 f   LowLevelDynamics_static_64:DyFeatherstoneArticulation.obj
 0001:0007bf20       ?teleportRootLink@FeatherstoneArticulation@Dy@physx@@UEAAXXZ 000000018007cf20 f   LowLevelDynamics_static_64:DyFeatherstoneArticulation.obj
 0001:0007cd70       ?translateInertia@FeatherstoneArticulation@Dy@physx@@KAXAEBVPxMat33@3@AEAUSpatialMatrix@23@@Z 000000018007dd70 f   LowLevelDynamics_static_64:DyFeatherstoneArticulation.obj
 0001:0007d280       ?writebackInternalConstraints@FeatherstoneArticulation@Dy@physx@@MEAAX_N@Z 000000018007e280 f   LowLevelDynamics_static_64:DyFeatherstoneArticulation.obj
 0001:0007d320       ?copyToSolverBodyData@Dy@physx@@YAXAEBVPxVec3@2@0M0AEBVPxTransform@2@MMIMAEAUPxSolverBodyData@2@I@Z 000000018007e320 f   LowLevelDynamics_static_64:DyRigidBodyToSolverBody.obj
 0001:0007d740       ?createFinalizeSolverContacts@Dy@physx@@YA_NAEAUPxSolverContactDesc@2@AEAUPxsContactManagerOutput@2@AEAVThreadContext@12@MMMMMAEAVPxConstraintAllocator@2@PEAUSpatialVectorF@Cm@2@@Z 000000018007e740 f   LowLevelDynamics_static_64:DyContactPrep.obj
 0001:0007db30       ?createFinalizeSolverContacts@Dy@physx@@YA_NAEAUPxSolverContactDesc@2@AEAUCorrelationBuffer@12@MMMMMAEAVPxConstraintAllocator@2@PEAUSpatialVectorF@Cm@2@@Z 000000018007eb30 f   LowLevelDynamics_static_64:DyContactPrep.obj
 0001:0007ea00       ?getContactManagerConstraintDesc@Dy@physx@@YAIAEBUPxsContactManagerOutput@2@AEBVPxsContactManager@2@AEAUPxSolverConstraintDesc@2@@Z 000000018007fa00 f   LowLevelDynamics_static_64:DyContactPrep.obj
 0001:0007ea20       ?setupExtSolverContact@Dy@physx@@YA?AT__m128@@AEBVSolverExtBody@12@0AEBT3@111111111111AEBUContactPoint@Gu@2@AEAUSolverContactPointExt@12@1PEAUSpatialVectorF@Cm@2@AEBUSpatialVectorV@92@5@Z 000000018007fa20 f   LowLevelDynamics_static_64:DyContactPrep.obj
 0001:0007ff60       ?createFinalizeSolverContacts4@Dy@physx@@YA?AW4Enum@SolverConstraintPrepState@12@PEAPEAUPxsContactManagerOutput@2@AEAVThreadContext@12@PEAUPxSolverContactDesc@2@MMMMMAEAVPxConstraintAllocator@2@@Z 0000000180080f60 f   LowLevelDynamics_static_64:DyContactPrep4.obj
 0001:00080420       ?computeBlockStreamByteSizes4@Dy@physx@@YAXPEAUPxSolverContactDesc@2@AEAIPEAIAEBUCorrelationBuffer@12@@Z 0000000180081420 f   LowLevelDynamics_static_64:DyContactPrep4.obj
 0001:00080780       ?createFinalizeSolverContacts4@Dy@physx@@YA?AW4Enum@SolverConstraintPrepState@12@AEAUCorrelationBuffer@12@PEAUPxSolverContactDesc@2@MMMMMAEAVPxConstraintAllocator@2@@Z 0000000180081780 f   LowLevelDynamics_static_64:DyContactPrep4.obj
 0001:00080f90       ?getFrictionPatches@Dy@physx@@YA_NAEAUCorrelationBuffer@12@PEBEIAEBVPxTransform@2@2M@Z 0000000180081f90 f i LowLevelDynamics_static_64:DyContactPrep4.obj
 0001:00084b70       ?setupSolverConstraint4@Dy@physx@@YA?AW4Enum@SolverConstraintPrepState@12@PEIAUPxSolverConstraintPrepDesc@2@MMAEAIAEAVPxConstraintAllocator@2@I@Z 0000000180085b70 f   LowLevelDynamics_static_64:DyConstraintSetupBlock.obj
 0001:00085b90       ?setupSolverConstraint4@Dy@physx@@YA?AW4Enum@SolverConstraintPrepState@12@PEIAUSolverConstraintShaderPrepDesc@12@PEIAUPxSolverConstraintPrepDesc@2@MMAEAIAEAVPxConstraintAllocator@2@@Z 0000000180086b90 f   LowLevelDynamics_static_64:DyConstraintSetupBlock.obj
 0001:00085d70       ?SetupSolverConstraint@Dy@physx@@YAIAEAUSolverConstraintShaderPrepDesc@12@AEAUPxSolverConstraintPrepDesc@2@AEAVPxConstraintAllocator@2@MMPEAUSpatialVectorF@Cm@2@@Z 0000000180086d70 f   LowLevelDynamics_static_64:DyConstraintSetup.obj
 0001:000872a0       ?preprocessRows@Dy@physx@@YAXPEAPEAUPx1DConstraint@2@PEAU32@PEAVPxVec4@2@2IAEBVPxMat33@2@3MMAEBUPxConstraintInvMassScale@2@_N55@Z 00000001800882a0 f   LowLevelDynamics_static_64:DyConstraintSetup.obj
 0001:00087940       ?setupSolverConstraint@ConstraintHelper@Dy@physx@@SAIAEAUPxSolverConstraintPrepDesc@3@AEAVPxConstraintAllocator@3@MMPEAUSpatialVectorF@Cm@3@@Z 0000000180088940 f   LowLevelDynamics_static_64:DyConstraintSetup.obj
 0001:00088360       ??_GSolverCoreGeneralPF@Dy@physx@@UEAAPEAXI@Z 0000000180089360 f i LowLevelDynamics_static_64:DySolverControlPF.obj
 0001:00088360       ??_GSolverCore@Dy@physx@@UEAAPEAXI@Z 0000000180089360 f i LowLevelDynamics_static_64:DySolverControl.obj
 0001:00088360       ??_ESolverCore@Dy@physx@@UEAAPEAXI@Z 0000000180089360 f i LowLevelDynamics_static_64:DySolverControl.obj
 0001:00088360       ??_ESolverCoreGeneralPF@Dy@physx@@UEAAPEAXI@Z 0000000180089360 f i LowLevelDynamics_static_64:DySolverControlPF.obj
 0001:00088390       ??_ESolverCoreGeneral@Dy@physx@@UEAAPEAXI@Z 0000000180089390 f i LowLevelDynamics_static_64:DySolverControl.obj
 0001:00088390       ??_GSolverCoreGeneral@Dy@physx@@UEAAPEAXI@Z 0000000180089390 f i LowLevelDynamics_static_64:DySolverControl.obj
 0001:000883c0       ?SolverCoreRegisterArticulationFns@Dy@physx@@YAXXZ 00000001800893c0 f   LowLevelDynamics_static_64:DySolverControl.obj
 0001:00088420       ?WaitForProgressCount@Dy@physx@@YAXPECHH@Z 0000000180089420 f i LowLevelDynamics_static_64:DySolverControl.obj
 0001:00088490       ?create@SolverCoreGeneral@Dy@physx@@SAPEAV123@_N@Z 0000000180089490 f   LowLevelDynamics_static_64:DySolverControl.obj
 0001:000884e0       ?destroyV@SolverCoreGeneralPF@Dy@physx@@UEAAXXZ 00000001800894e0 f   LowLevelDynamics_static_64:DySolverControlPF.obj
 0001:000884e0       ?destroyV@SolverCoreGeneral@Dy@physx@@UEAAXXZ 00000001800894e0 f   LowLevelDynamics_static_64:DySolverControl.obj
 0001:00088510       ?getSolveBlockTable@Dy@physx@@YAPEAP6AXPEBUPxSolverConstraintDesc@2@IAEAUSolverContext@12@@ZXZ 0000000180089510 f   LowLevelDynamics_static_64:DySolverControl.obj
 0001:00088520       ?getSolveWritebackBlockTable@Dy@physx@@YAPEAP6AXPEBUPxSolverConstraintDesc@2@IAEAUSolverContext@12@@ZXZ 0000000180089520 f   LowLevelDynamics_static_64:DySolverControl.obj
 0001:00088530       ?getSolverConcludeBlockTable@Dy@physx@@YAPEAP6AXPEBUPxSolverConstraintDesc@2@IAEAUSolverContext@12@@ZXZ 0000000180089530 f   LowLevelDynamics_static_64:DySolverControl.obj
 0001:00088540       ?solveVBlock@Dy@physx@@YAXPEAVSolverCore@12@AEAUSolverIslandParams@12@@Z 0000000180089540 f   LowLevelDynamics_static_64:DySolverControl.obj
 0001:00088550       ?solveVParallelAndWriteBack@SolverCoreGeneral@Dy@physx@@UEBAHAEAUSolverIslandParams@23@PEAUSpatialVectorF@Cm@3@1@Z 0000000180089550 f   LowLevelDynamics_static_64:DySolverControl.obj
 0001:00089880       ?solveV_Blocks@SolverCoreGeneral@Dy@physx@@UEBAXAEAUSolverIslandParams@23@@Z 000000018008a880 f   LowLevelDynamics_static_64:DySolverControl.obj
 0001:0008a430       ?writeBackV@SolverCoreGeneralPF@Dy@physx@@UEBAXPEIBUPxSolverConstraintDesc@3@IPEAUPxConstraintBatchHeader@3@IPEIAUThresholdStreamElement@23@IAEAIPEAUPxSolverBodyData@3@QEAP6AXPEBU43@IAEAUSolverContext@23@@Z@Z 000000018008b430 f   LowLevelDynamics_static_64:DySolverControlPF.obj
 0001:0008a430       ?writeBackV@SolverCoreGeneral@Dy@physx@@UEBAXPEIBUPxSolverConstraintDesc@3@IPEAUPxConstraintBatchHeader@3@IPEIAUThresholdStreamElement@23@IAEAIPEAUPxSolverBodyData@3@QEAP6AXPEBU43@IAEAUSolverContext@23@@Z@Z 000000018008b430 f   LowLevelDynamics_static_64:DySolverControl.obj
 0001:0008a4f0       ?SetupSolverConstraintStep@Dy@physx@@YAIAEAUSolverConstraintShaderPrepDesc@12@AEAUPxTGSSolverConstraintPrepDesc@2@AEAVPxConstraintAllocator@2@MMMMM@Z 000000018008b4f0 f   LowLevelDynamics_static_64:DyTGSContactPrep.obj
 0001:0008a770       ?conclude1DStep@Dy@physx@@YAXAEBUPxSolverConstraintDesc@2@@Z 000000018008b770 f   LowLevelDynamics_static_64:DyTGSContactPrep.obj
 0001:0008a7c0       ?createFinalizeSolverContactsStep@Dy@physx@@YA_NAEAUPxTGSSolverContactDesc@2@AEAUCorrelationBuffer@12@MMMMMAEAVPxConstraintAllocator@2@@Z 000000018008b7c0 f   LowLevelDynamics_static_64:DyTGSContactPrep.obj
 0001:0008b750       ?createFinalizeSolverContactsStep@Dy@physx@@YA_NAEAUPxTGSSolverContactDesc@2@AEAUPxsContactManagerOutput@2@AEAVThreadContext@12@MMMMMAEAVPxConstraintAllocator@2@@Z 000000018008c750 f   LowLevelDynamics_static_64:DyTGSContactPrep.obj
 0001:0008bb80       ?createHardLimitTGS@ArticulationHelper@Dy@physx@@SAXAEBUFsData@23@PEBUArticulationLink@23@IAEAUSolverConstraint1DExtStep@23@AEBVPxVec3@3@MM@Z 000000018008cb80 f   LowLevelDynamics_static_64:DyTGSContactPrep.obj
 0001:0008bdf0       ?createTangentialSpringTGS@ArticulationHelper@Dy@physx@@SAXAEBUFsData@23@PEBUArticulationLink@23@IAEAUSolverConstraint1DExtStep@23@AEBVPxVec3@3@MMM@Z 000000018008cdf0 f   LowLevelDynamics_static_64:DyTGSContactPrep.obj
 0001:0008c0b0       ?ellipseClamp@shdfnd@physx@@YA?AVPxVec3@2@AEBV32@0@Z 000000018008d0b0 f i LowLevelDynamics_static_64:DyTGSContactPrep.obj
 0001:0008c300       ?getImpulseResponse@Dy@physx@@YAMAEBVSolverExtBodyStep@12@AEBVSpatialVector@Cm@2@AEAV452@MM012MM_N@Z 000000018008d300 f   LowLevelDynamics_static_64:DyTGSContactPrep.obj
 0001:0008c800       ?getLimit@ConeLimitHelper@Cm@physx@@QEBA_NAEBVPxQuat@3@AEAVPxVec3@3@AEAM@Z 000000018008d800 f i LowLevelDynamics_static_64:DyTGSContactPrep.obj
 0001:0008cc30       ?projectVelocity@SolverExtBodyStep@Dy@physx@@QEBAMAEBVPxVec3@3@0@Z 000000018008dc30 f   LowLevelDynamics_static_64:DyTGSContactPrep.obj
 0001:0008cd90       ?setSolverConstantsStep@Dy@physx@@YAXAEAM000000AEBUPx1DConstraint@2@MMMMMMMMMM@Z 000000018008dd90 f   LowLevelDynamics_static_64:DyTGSContactPrep.obj
 0001:0008d4e0       ?setupFinalizeExtSolverContactsStep@Dy@physx@@YAXPEBUContactPoint@Gu@2@AEBUCorrelationBuffer@12@AEBVPxTransform@2@2PEAEAEBVSolverExtBodyStep@12@4MMMMMMMM3MMM@Z 000000018008e4e0 f   LowLevelDynamics_static_64:DyTGSContactPrep.obj
 0001:00090510       ?setupSolverConstraintStep@Dy@physx@@YAIAEBUPxTGSSolverConstraintPrepDesc@2@AEAVPxConstraintAllocator@2@MMMMM@Z 0000000180091510 f   LowLevelDynamics_static_64:DyTGSContactPrep.obj
 0001:00091330       ?setupSolverConstraintsTGS@Articulation@Dy@physx@@SAIAEBUArticulationSolverDesc@23@AEAVPxcConstraintBlockStream@3@PEAUPxSolverConstraintDesc@3@MMMAEAIAEAVPxsConstraintBlockManager@3@PEAUSpatialVectorF@Cm@3@@Z 0000000180092330 f   LowLevelDynamics_static_64:DyTGSContactPrep.obj
 0001:00091c60       ?solve1DBlock@Dy@physx@@YAXAEBUPxConstraintBatchHeader@2@PEBUPxSolverConstraintDesc@2@QEBUPxTGSSolverBodyTxInertia@2@MMAEAUSolverContext@12@@Z 0000000180092c60 f   LowLevelDynamics_static_64:DyTGSContactPrep.obj
 0001:00091cd0       ?solve1DStep@Dy@physx@@YAXAEBUPxSolverConstraintDesc@2@QEBUPxTGSSolverBodyTxInertia@2@M@Z 0000000180092cd0 f   LowLevelDynamics_static_64:DyTGSContactPrep.obj
 0001:000927d0       ?solveConclude1DBlock@Dy@physx@@YAXAEBUPxConstraintBatchHeader@2@PEBUPxSolverConstraintDesc@2@QEBUPxTGSSolverBodyTxInertia@2@MAEAUSolverContext@12@@Z 00000001800937d0 f   LowLevelDynamics_static_64:DyTGSContactPrep.obj
 0001:000928b0       ?solveConclude1DBlockExt@Dy@physx@@YAXAEBUPxConstraintBatchHeader@2@PEBUPxSolverConstraintDesc@2@QEBUPxTGSSolverBodyTxInertia@2@MAEAUSolverContext@12@@Z 00000001800938b0 f   LowLevelDynamics_static_64:DyTGSContactPrep.obj
 0001:000929a0       ?solveConcludeContactBlock@Dy@physx@@YAXAEBUPxConstraintBatchHeader@2@PEBUPxSolverConstraintDesc@2@QEBUPxTGSSolverBodyTxInertia@2@MAEAUSolverContext@12@@Z 00000001800939a0 f   LowLevelDynamics_static_64:DyTGSContactPrep.obj
 0001:00092a30       ?solveConcludeContactExtBlock@Dy@physx@@YAXAEBUPxConstraintBatchHeader@2@PEBUPxSolverConstraintDesc@2@QEBUPxTGSSolverBodyTxInertia@2@MAEAUSolverContext@12@@Z 0000000180093a30 f   LowLevelDynamics_static_64:DyTGSContactPrep.obj
 0001:00092ac0       ?solveContact@Dy@physx@@YAXAEBUPxSolverConstraintDesc@2@_NMM@Z 0000000180093ac0 f   LowLevelDynamics_static_64:DyTGSContactPrep.obj
 0001:00093200       ?solveContactBlock@Dy@physx@@YAXAEBUPxConstraintBatchHeader@2@PEBUPxSolverConstraintDesc@2@QEBUPxTGSSolverBodyTxInertia@2@MMAEAUSolverContext@12@@Z 0000000180094200 f   LowLevelDynamics_static_64:DyTGSContactPrep.obj
 0001:00093280       ?solveExt1D@Dy@physx@@YAXAEBUPxSolverConstraintDesc@2@AEAT__m128@@111AEBT4@22222M1111@Z 0000000180094280 f   LowLevelDynamics_static_64:DyTGSContactPrep.obj
 0001:000937a0       ?solveExt1DBlock@Dy@physx@@YAXAEBUPxConstraintBatchHeader@2@PEBUPxSolverConstraintDesc@2@QEBUPxTGSSolverBodyTxInertia@2@MMAEAUSolverContext@12@@Z 00000001800947a0 f   LowLevelDynamics_static_64:DyTGSContactPrep.obj
 0001:00093830       ?solveExt1DStep@Dy@physx@@YAXAEBUPxSolverConstraintDesc@2@MAEAUSolverContext@12@QEBUPxTGSSolverBodyTxInertia@2@@Z 0000000180094830 f   LowLevelDynamics_static_64:DyTGSContactPrep.obj
 0001:00093ca0       ?solveExtContactBlock@Dy@physx@@YAXAEBUPxConstraintBatchHeader@2@PEBUPxSolverConstraintDesc@2@QEBUPxTGSSolverBodyTxInertia@2@MMAEAUSolverContext@12@@Z 0000000180094ca0 f   LowLevelDynamics_static_64:DyTGSContactPrep.obj
 0001:00093d30       ?solveExtContactStep@Dy@physx@@YAXAEBUPxSolverConstraintDesc@2@AEAT__m128@@11111111111_NMM@Z 0000000180094d30 f   LowLevelDynamics_static_64:DyTGSContactPrep.obj
 0001:00094470       ?solveExtContactStep@Dy@physx@@YAXAEBUPxSolverConstraintDesc@2@_NMMAEAUSolverContext@12@@Z 0000000180095470 f   LowLevelDynamics_static_64:DyTGSContactPrep.obj
 0001:00094840       ?writeBack1D@Dy@physx@@YAXAEBUPxConstraintBatchHeader@2@PEBUPxSolverConstraintDesc@2@PEAUSolverContext@12@@Z 0000000180095840 f   LowLevelDynamics_static_64:DyTGSContactPrep.obj
 0001:000948a0       ?writeBack1D@Dy@physx@@YAXAEBUPxSolverConstraintDesc@2@@Z 00000001800958a0 f   LowLevelDynamics_static_64:DyTGSContactPrep.obj
 0001:00094e10       ?writeBackContact@Dy@physx@@YAXAEBUPxConstraintBatchHeader@2@PEBUPxSolverConstraintDesc@2@PEAUSolverContext@12@@Z 0000000180095e10 f   LowLevelDynamics_static_64:DyTGSContactPrep.obj
 0001:00094e70       ?writeBackContact@Dy@physx@@YAXAEBUPxSolverConstraintDesc@2@PEAUSolverContext@12@@Z 0000000180095e70 f   LowLevelDynamics_static_64:DyTGSContactPrep.obj
 0001:00094f80       ?computeBlockStreamByteSizes4@Dy@physx@@YAXPEAUPxTGSSolverContactDesc@2@AEAIPEAIAEBUCorrelationBuffer@12@@Z 0000000180095f80 f   LowLevelDynamics_static_64:DyTGSContactPrepBlock.obj
 0001:00095290       ?createFinalizeSolverContacts4Step@Dy@physx@@YA?AW4Enum@SolverConstraintPrepState@12@AEAUCorrelationBuffer@12@PEAUPxTGSSolverContactDesc@2@MMMMMMAEAVPxConstraintAllocator@2@@Z 0000000180096290 f   LowLevelDynamics_static_64:DyTGSContactPrepBlock.obj
 0001:00095a90       ?createFinalizeSolverContacts4Step@Dy@physx@@YA?AW4Enum@SolverConstraintPrepState@12@PEAPEAUPxsContactManagerOutput@2@AEAVThreadContext@12@PEAUPxTGSSolverContactDesc@2@MMMMMMAEAVPxConstraintAllocator@2@@Z 0000000180096a90 f   LowLevelDynamics_static_64:DyTGSContactPrepBlock.obj
 0001:000993b0       ?setupSolverConstraintStep4@Dy@physx@@YA?AW4Enum@SolverConstraintPrepState@12@PEIAUPxTGSSolverConstraintPrepDesc@2@MMMMAEAIAEAVPxConstraintAllocator@2@IM@Z 000000018009a3b0 f   LowLevelDynamics_static_64:DyTGSContactPrepBlock.obj
 0001:0009adc0       ?setupSolverConstraintStep4@Dy@physx@@YA?AW4Enum@SolverConstraintPrepState@12@PEIAUSolverConstraintShaderPrepDesc@12@PEIAUPxTGSSolverConstraintPrepDesc@2@MMMMAEAIAEAVPxConstraintAllocator@2@M@Z 000000018009bdc0 f   LowLevelDynamics_static_64:DyTGSContactPrepBlock.obj
 0001:0009aff0       ?solve1D4@Dy@physx@@YAXAEBUPxConstraintBatchHeader@2@PEIBUPxSolverConstraintDesc@2@QEBUPxTGSSolverBodyTxInertia@2@MMAEAUSolverContext@12@@Z 000000018009bff0 f   LowLevelDynamics_static_64:DyTGSContactPrepBlock.obj
 0001:0009b010       ?solve1DStep4@Dy@physx@@YAXPEIBUPxSolverConstraintDesc@2@QEBUPxTGSSolverBodyTxInertia@2@M@Z 000000018009c010 f   LowLevelDynamics_static_64:DyTGSContactPrepBlock.obj
 0001:0009c790       ?solveConclude1D4@Dy@physx@@YAXAEBUPxConstraintBatchHeader@2@PEBUPxSolverConstraintDesc@2@QEBUPxTGSSolverBodyTxInertia@2@MAEAUSolverContext@12@@Z 000000018009d790 f   LowLevelDynamics_static_64:DyTGSContactPrepBlock.obj
 0001:0009c820       ?solveConcludeContact4@Dy@physx@@YAXAEBUPxConstraintBatchHeader@2@PEBUPxSolverConstraintDesc@2@QEBUPxTGSSolverBodyTxInertia@2@MAEAUSolverContext@12@@Z 000000018009d820 f   LowLevelDynamics_static_64:DyTGSContactPrepBlock.obj
 0001:0009c840       ?solveContact4@Dy@physx@@YAXAEBUPxConstraintBatchHeader@2@PEIBUPxSolverConstraintDesc@2@QEBUPxTGSSolverBodyTxInertia@2@MMAEAUSolverContext@12@@Z 000000018009d840 f   LowLevelDynamics_static_64:DyTGSContactPrepBlock.obj
 0001:0009c860       ?solveContact4_Block@Dy@physx@@YAXPEIBUPxSolverConstraintDesc@2@_NMM@Z 000000018009d860 f   LowLevelDynamics_static_64:DyTGSContactPrepBlock.obj
 0001:0009d6c0       ?writeBack1D4@Dy@physx@@YAXAEBUPxConstraintBatchHeader@2@PEIBUPxSolverConstraintDesc@2@PEAUSolverContext@12@@Z 000000018009e6c0 f   LowLevelDynamics_static_64:DyTGSContactPrepBlock.obj
 0001:0009dc00       ?writeBackContact4@Dy@physx@@YAXAEBUPxConstraintBatchHeader@2@PEIBUPxSolverConstraintDesc@2@PEAUSolverContext@12@@Z 000000018009ec00 f   LowLevelDynamics_static_64:DyTGSContactPrepBlock.obj
 0001:0009dc20       ?writeBackContact4_Block@Dy@physx@@YAXPEIBUPxSolverConstraintDesc@2@PEAUSolverContext@12@@Z 000000018009ec20 f   LowLevelDynamics_static_64:DyTGSContactPrepBlock.obj
 0001:0009e020       ??1ArticulationBlockAllocator@Dy@physx@@UEAA@XZ 000000018009f020 f i LowLevelDynamics_static_64:DyFeatherstoneInverseDynamic.obj
 0001:0009e100       ??DPxMat33@physx@@QEBA?BVPxVec3@1@AEBV21@@Z 000000018009f100 f i LowLevelDynamics_static_64:DyFeatherstoneInverseDynamic.obj
 0001:0009e190       ??_GArticulationBlockAllocator@Dy@physx@@UEAAPEAXI@Z 000000018009f190 f i LowLevelDynamics_static_64:DyFeatherstoneInverseDynamic.obj
 0001:0009e190       ??_EArticulationBlockAllocator@Dy@physx@@UEAAPEAXI@Z 000000018009f190 f i LowLevelDynamics_static_64:DyFeatherstoneInverseDynamic.obj
 0001:0009e1d0       ??_EBlockBasedAllocator@Dy@physx@@UEAAPEAXI@Z 000000018009f1d0 f i LowLevelDynamics_static_64:DyFeatherstoneInverseDynamic.obj
 0001:0009e1d0       ??_GBlockBasedAllocator@Dy@physx@@UEAAPEAXI@Z 000000018009f1d0 f i LowLevelDynamics_static_64:DyFeatherstoneInverseDynamic.obj
 0001:0009e250       ?alloc@PxcScratchAllocator@physx@@QEAAPEAXI_N@Z 000000018009f250 f i LowLevelDynamics_static_64:DyFeatherstoneInverseDynamic.obj
 0001:0009e320       ?allocate@BlockBasedAllocator@Dy@physx@@UEAAPEAEI@Z 000000018009f320 f i LowLevelDynamics_static_64:DyFeatherstoneInverseDynamic.obj
 0001:0009e450       ?applyCacheToDest@FeatherstoneArticulation@Dy@physx@@QEAA_NAEAVArticulationData@23@AEAVPxArticulationCache@3@PEAM222V?$PxFlags@W4Enum@PxArticulationCache@physx@@E@3@@Z 000000018009f450 f   LowLevelDynamics_static_64:DyFeatherstoneInverseDynamic.obj
 0001:0009e7e0       ?calculateHFixBase@FeatherstoneArticulation@Dy@physx@@IEAAXAEAVPxArticulationCache@3@@Z 000000018009f7e0 f   LowLevelDynamics_static_64:DyFeatherstoneInverseDynamic.obj
 0001:0009ef20       ?calculateHFloatingBase@FeatherstoneArticulation@Dy@physx@@IEAAXAEAVPxArticulationCache@3@@Z 000000018009ff20 f   LowLevelDynamics_static_64:DyFeatherstoneInverseDynamic.obj
 0001:000a0540       ?calculateMassMatrixColInv@FeatherstoneArticulation@Dy@physx@@IEAAXAEAUScratchData@23@@Z 00000001800a1540 f   LowLevelDynamics_static_64:DyFeatherstoneInverseDynamic.obj
 0001:000a0e70       ?computeCompositeSpatialInertiaAndZAForceInv@FeatherstoneArticulation@Dy@physx@@IEAAXAEAVArticulationData@23@AEAUScratchData@23@@Z 00000001800a1e70 f   LowLevelDynamics_static_64:DyFeatherstoneInverseDynamic.obj
 0001:000a1310       ?computeGeneralizedForceInv@FeatherstoneArticulation@Dy@physx@@IEAAXAEAVArticulationData@23@AEAUScratchData@23@@Z 00000001800a2310 f   LowLevelDynamics_static_64:DyFeatherstoneInverseDynamic.obj
 0001:000a1580       ?computeHi@Dy@physx@@YAIAEAVArticulationData@12@IPEAMPEAUSpatialVectorF@Cm@2@@Z 00000001800a2580 f   LowLevelDynamics_static_64:DyFeatherstoneInverseDynamic.obj
 0001:000a19a0       ?computeLinkAccelerationInv@FeatherstoneArticulation@Dy@physx@@IEAAXAEAVArticulationData@23@AEAUScratchData@23@@Z 00000001800a29a0 f   LowLevelDynamics_static_64:DyFeatherstoneInverseDynamic.obj
 0001:000a1ff0       ?computeRelativeGeneralizedForceInv@FeatherstoneArticulation@Dy@physx@@IEAAXAEAVArticulationData@23@AEAUScratchData@23@@Z 00000001800a2ff0 f   LowLevelDynamics_static_64:DyFeatherstoneInverseDynamic.obj
 0001:000a30c0       ?computeZAForceInv@FeatherstoneArticulation@Dy@physx@@IEAAXAEAVArticulationData@23@AEAUScratchData@23@@Z 00000001800a40c0 f   LowLevelDynamics_static_64:DyFeatherstoneInverseDynamic.obj
 0001:000a3460       ?constraintPrep@FeatherstoneArticulation@Dy@physx@@IEAAXPEAUArticulationLoopConstraint@23@IPEAUSpatialVectorF@Cm@3@AEAUPxSolverConstraintPrepDesc@3@AEAUPxSolverBody@3@AEAUPxSolverBodyData@3@PEAUPxSolverConstraintDesc@3@AEAVPxConstraintAllocator@3@@Z 00000001800a4460 f   LowLevelDynamics_static_64:DyFeatherstoneInverseDynamic.obj
 0001:000a39f0       ?free@PxcScratchAllocator@physx@@QEAAXPEAX@Z 00000001800a49f0 f i LowLevelDynamics_static_64:DyFeatherstoneInverseDynamic.obj
 0001:000a3ab0       ?getCoefficientMatrix@FeatherstoneArticulation@Dy@physx@@UEAAXMIPEBVPxContactJoint@3@IAEAVPxArticulationCache@3@@Z 00000001800a4ab0 f   LowLevelDynamics_static_64:DyFeatherstoneInverseDynamic.obj
 0001:000a4420       ?getCoefficientMatrixWithLoopJoints@FeatherstoneArticulation@Dy@physx@@UEAAXPEAUArticulationLoopConstraint@23@IAEAVPxArticulationCache@3@@Z 00000001800a5420 f   LowLevelDynamics_static_64:DyFeatherstoneInverseDynamic.obj
 0001:000a4ef0       ?getCoriolisAndCentrifugalForce@FeatherstoneArticulation@Dy@physx@@UEAAXAEAVPxArticulationCache@3@@Z 00000001800a5ef0 f   LowLevelDynamics_static_64:DyFeatherstoneInverseDynamic.obj
 0001:000a50e0       ?getGeneralizedExternalForce@FeatherstoneArticulation@Dy@physx@@UEAAXAEAVPxArticulationCache@3@@Z 00000001800a60e0 f   LowLevelDynamics_static_64:DyFeatherstoneInverseDynamic.obj
 0001:000a5710       ?getGeneralizedGravityForce@FeatherstoneArticulation@Dy@physx@@UEAAXAEBVPxVec3@3@AEAVPxArticulationCache@3@@Z 00000001800a6710 f   LowLevelDynamics_static_64:DyFeatherstoneInverseDynamic.obj
 0001:000a5b30       ?getGeneralizedMassMatrix@FeatherstoneArticulation@Dy@physx@@UEAAXAEAVPxArticulationCache@3@@Z 00000001800a6b30 f   LowLevelDynamics_static_64:DyFeatherstoneInverseDynamic.obj
 0001:000a5db0       ?getGeneralizedMassMatrixCRB@FeatherstoneArticulation@Dy@physx@@UEAAXAEAVPxArticulationCache@3@@Z 00000001800a6db0 f   LowLevelDynamics_static_64:DyFeatherstoneInverseDynamic.obj
 0001:000a5e10       ?getImpulseResponseInv@FeatherstoneArticulation@Dy@physx@@IEAA?AUSpatialVectorF@Cm@3@_NIPEAU453@AEBVSpatialVector@53@PEAM@Z 00000001800a6e10 f   LowLevelDynamics_static_64:DyFeatherstoneInverseDynamic.obj
 0001:000a6540       ?getImpulseResponseSlowInv@FeatherstoneArticulation@Dy@physx@@IEAAXPEAUArticulationLink@23@AEBVArticulationData@23@IAEBVSpatialVector@Cm@3@AEAV673@I23PEAM@Z 00000001800a7540 f   LowLevelDynamics_static_64:DyFeatherstoneInverseDynamic.obj
 0001:000a71f0       ?getImpulseSelfResponseInv@FeatherstoneArticulation@Dy@physx@@IEAAX_NIIPEAUSpatialVectorF@Cm@3@AEBVSpatialVector@53@2AEAV653@3PEAM@Z 00000001800a81f0 f   LowLevelDynamics_static_64:DyFeatherstoneInverseDynamic.obj
 0001:000a75e0       ?getJointForce@FeatherstoneArticulation@Dy@physx@@UEAAXAEAVPxArticulationCache@3@@Z 00000001800a85e0 f   LowLevelDynamics_static_64:DyFeatherstoneInverseDynamic.obj
 0001:000a77e0       ?getLambda@FeatherstoneArticulation@Dy@physx@@UEAA_NPEAUArticulationLoopConstraint@23@IAEAVPxArticulationCache@3@1PEBMAEBVPxVec3@3@I@Z 00000001800a87e0 f   LowLevelDynamics_static_64:DyFeatherstoneInverseDynamic.obj
 0001:000a83c0       ?growAndPushBack@?$Array@PEAUAllocationPage@BlockBasedAllocator@Dy@physx@@V?$ReflectionAllocator@PEAUAllocationPage@BlockBasedAllocator@Dy@physx@@@shdfnd@4@@shdfnd@physx@@IEAAAEAPEAUAllocationPage@BlockBasedAllocator@Dy@3@AEBQEAU4563@@Z 00000001800a93c0 f i LowLevelDynamics_static_64:DyFeatherstoneInverseDynamic.obj
 0001:000a84e0       ?initCompositeSpatialInertia@FeatherstoneArticulation@Dy@physx@@IEAAXAEAVArticulationData@23@PEAUSpatialMatrix@23@@Z 00000001800a94e0 f   LowLevelDynamics_static_64:DyFeatherstoneInverseDynamic.obj
 0001:000a88b0       ?initializeCommonData@FeatherstoneArticulation@Dy@physx@@UEAAXXZ 00000001800a98b0 f   LowLevelDynamics_static_64:DyFeatherstoneInverseDynamic.obj
 0001:000a8910       ?packJointData@FeatherstoneArticulation@Dy@physx@@UEAAXPEBMPEAM@Z 00000001800a9910 f   LowLevelDynamics_static_64:DyFeatherstoneInverseDynamic.obj
 0001:000a8a20       ?release@BlockBasedAllocator@Dy@physx@@QEAAXXZ 00000001800a9a20 f i LowLevelDynamics_static_64:DyFeatherstoneInverseDynamic.obj
 0001:000a8a90       ?reserveConstraintData@ArticulationBlockAllocator@Dy@physx@@UEAAPEAEI@Z 00000001800a9a90 f i LowLevelDynamics_static_64:DyFeatherstoneInverseDynamic.obj
 0001:000a8aa0       ?reserveFrictionData@ArticulationBlockAllocator@Dy@physx@@UEAAPEAEI@Z 00000001800a9aa0 f i LowLevelDynamics_static_64:DyFeatherstoneInverseDynamic.obj
 0001:000a8ac0       ?transformTranspose@PxMat33@physx@@QEBA?BVPxVec3@2@AEBV32@@Z 00000001800a9ac0 f i LowLevelDynamics_static_64:DyFeatherstoneInverseDynamic.obj
 0001:000a8b50       ?unpackJointData@FeatherstoneArticulation@Dy@physx@@UEAAXPEBMPEAM@Z 00000001800a9b50 f   LowLevelDynamics_static_64:DyFeatherstoneInverseDynamic.obj
 0001:000a8c80       ??4SpatialMatrix@Dy@physx@@QEAAAEAU012@$$QEAU012@@Z 00000001800a9c80 f i LowLevelDynamics_static_64:DyFeatherstoneForwardDynamic.obj
 0001:000a8d30       ?computeArticulatedResponseMatrix@FeatherstoneArticulation@Dy@physx@@IEAAXAEAVArticulationData@23@@Z 00000001800a9d30 f   LowLevelDynamics_static_64:DyFeatherstoneForwardDynamic.obj
 0001:000a9590       ?computeArticulatedSpatialInertia@FeatherstoneArticulation@Dy@physx@@IEAAXAEAVArticulationData@23@@Z 00000001800aa590 f   LowLevelDynamics_static_64:DyFeatherstoneForwardDynamic.obj
 0001:000aa120       ?computeArticulatedSpatialZ@FeatherstoneArticulation@Dy@physx@@IEAAXAEAVArticulationData@23@AEAUScratchData@23@@Z 00000001800ab120 f   LowLevelDynamics_static_64:DyFeatherstoneForwardDynamic.obj
 0001:000aa7b0       ?computeIs@FeatherstoneArticulation@Dy@physx@@IEAAXAEAVArticulationLinkData@23@AEAVArticulationJointCoreData@23@I@Z 00000001800ab7b0 f   LowLevelDynamics_static_64:DyFeatherstoneForwardDynamic.obj
 0001:000aabf0       ?computeJointAccelerationW@FeatherstoneArticulation@Dy@physx@@IEAAXAEAVArticulationLinkData@23@AEAVArticulationJointCoreData@23@AEBUSpatialVectorF@Cm@3@PEAMI@Z 00000001800abbf0 f   LowLevelDynamics_static_64:DyFeatherstoneForwardDynamic.obj
 0001:000aafc0       ?computeLinkAcceleration@FeatherstoneArticulation@Dy@physx@@IEAAXAEAVArticulationData@23@AEAUScratchData@23@@Z 00000001800abfc0 f   LowLevelDynamics_static_64:DyFeatherstoneForwardDynamic.obj
 0001:000ab7f0       ?computePropagateSpatialInertia@FeatherstoneArticulation@Dy@physx@@KA?AUSpatialMatrix@23@EAEAVArticulationJointCoreData@23@AEBU423@PEBUSpatialVectorF@Cm@3@AEAUInvStIs@23@AEAUIsInvD@23@AEBUSpatialSubspaceMatrix@23@@Z 00000001800ac7f0 f   LowLevelDynamics_static_64:DyFeatherstoneForwardDynamic.obj
 0001:000acae0       ?computeSphericalJointPositions@Dy@physx@@YA?AVPxQuat@2@AEBV32@00PEAMAEBUSpatialSubspaceMatrix@12@@Z 00000001800adae0 f   LowLevelDynamics_static_64:DyFeatherstoneForwardDynamic.obj
 0001:000acdb0       ?computeUnconstrainedVelocities@FeatherstoneArticulation@Dy@physx@@SAIAEBUArticulationSolverDesc@23@MAEAVPxConstraintAllocator@3@PEAUPxSolverConstraintDesc@3@AEAIAEBVPxVec3@3@_KPEAUSpatialVectorF@Cm@3@6@Z 00000001800addb0 f   LowLevelDynamics_static_64:DyFeatherstoneForwardDynamic.obj
 0001:000ace40       ?computeUnconstrainedVelocitiesInternal@FeatherstoneArticulation@Dy@physx@@IEAAXAEBVPxVec3@3@PEAUSpatialVectorF@Cm@3@1@Z 00000001800ade40 f   LowLevelDynamics_static_64:DyFeatherstoneForwardDynamic.obj
 0001:000ad340       ?computeUnconstrainedVelocitiesTGS@FeatherstoneArticulation@Dy@physx@@SAXAEBUArticulationSolverDesc@23@MAEBVPxVec3@3@_KPEAUSpatialVectorF@Cm@3@3@Z 00000001800ae340 f   LowLevelDynamics_static_64:DyFeatherstoneForwardDynamic.obj
 0001:000ad360       ?constructSpatialMatrix@SpatialMatrix@Dy@physx@@SA?AU123@AEBUSpatialVectorF@Cm@3@0@Z 00000001800ae360 f i LowLevelDynamics_static_64:DyFeatherstoneForwardDynamic.obj
 0001:000ad560       ?getInverse@PxMat33@physx@@QEBA?BV12@XZ 00000001800ae560 f i LowLevelDynamics_static_64:DyFeatherstoneForwardDynamic.obj
 0001:000ad7b0       ?getInverse@SpatialMatrix@Dy@physx@@QEAA?AU123@XZ 00000001800ae7b0 f i LowLevelDynamics_static_64:DyFeatherstoneForwardDynamic.obj
 0001:000ae2d0       ?getJointAcceleration@FeatherstoneArticulation@Dy@physx@@UEAAXAEBVPxVec3@3@AEAVPxArticulationCache@3@@Z 00000001800af2d0 f   LowLevelDynamics_static_64:DyFeatherstoneForwardDynamic.obj
 0001:000aed60       ?propagateLinksDown@FeatherstoneArticulation@Dy@physx@@QEAAXAEAVArticulationData@23@PEAM1PEAUSpatialVectorF@Cm@3@@Z 00000001800afd60 f   LowLevelDynamics_static_64:DyFeatherstoneForwardDynamic.obj
 0001:000b00c0       ?recomputeAcceleration@FeatherstoneArticulation@Dy@physx@@QEBA?AVSpatialVector@Cm@3@IM@Z 00000001800b10c0 f   LowLevelDynamics_static_64:DyFeatherstoneForwardDynamic.obj
 0001:000b0880       ?recomputeAccelerations@FeatherstoneArticulation@Dy@physx@@QEAAXM@Z 00000001800b1880 f   LowLevelDynamics_static_64:DyFeatherstoneForwardDynamic.obj
 0001:000b0a90       ?updateBodies@FeatherstoneArticulation@Dy@physx@@SAXAEBUArticulationSolverDesc@23@M@Z 00000001800b1a90 f   LowLevelDynamics_static_64:DyFeatherstoneForwardDynamic.obj
 0001:000b0aa0       ?updateBodies@FeatherstoneArticulation@Dy@physx@@SAXPEAV123@M_N@Z 00000001800b1aa0 f   LowLevelDynamics_static_64:DyFeatherstoneForwardDynamic.obj
 0001:000b14b0       ?updateBodiesTGS@FeatherstoneArticulation@Dy@physx@@SAXAEBUArticulationSolverDesc@23@M@Z 00000001800b24b0 f   LowLevelDynamics_static_64:DyFeatherstoneForwardDynamic.obj
 0001:000b14c0       ?updateJointProperties@FeatherstoneArticulation@Dy@physx@@QEAAXPEBMPEBUSpatialVectorF@Cm@3@PEAM2@Z 00000001800b24c0 f   LowLevelDynamics_static_64:DyFeatherstoneForwardDynamic.obj
 0001:000b18d0       ?updateRootBody@FeatherstoneArticulation@Dy@physx@@SAXAEBUSpatialVectorF@Cm@3@AEBVPxTransform@3@AEAVArticulationData@23@M@Z 00000001800b28d0 f   LowLevelDynamics_static_64:DyFeatherstoneForwardDynamic.obj
 0001:000b1ad0       ??$sort@UPxSolverConstraintDesc@physx@@UConstraintLess@Dy@2@V?$ReflectionAllocator@UPxSolverConstraintDesc@physx@@@shdfnd@2@@shdfnd@physx@@YAXPEAUPxSolverConstraintDesc@1@IAEBUConstraintLess@Dy@1@AEBV?$ReflectionAllocator@UPxSolverConstraintDesc@physx@@@01@I@Z 00000001800b2ad0 f i LowLevelDynamics_static_64:DyTGSDynamics.obj
 0001:000b2020       ??0DynamicsTGSContext@Dy@physx@@IEAA@PEAVPxcNpMemBlockPool@2@AEAVPxcScratchAllocator@2@AEAVFlushPool@Cm@2@AEAUPxvSimStats@2@PEAVPxTaskManager@2@PEAVVirtualAllocatorCallback@shdfnd@2@PEAVPxsMaterialManager@2@PEAVIslandSim@IG@2@_K_N99M@Z 00000001800b3020 f   LowLevelDynamics_static_64:DyTGSDynamics.obj
 0001:000b2460       ??1?$PxcThreadCoherentCache@VThreadContext@Dy@physx@@VPxcNpMemBlockPool@3@@physx@@QEAA@XZ 00000001800b3460 f i LowLevelDynamics_static_64:DyTGSDynamics.obj
 0001:000b24f0       ??1Context@Dy@physx@@MEAA@XZ 00000001800b34f0 f i LowLevelDynamics_static_64:DyTGSDynamics.obj
 0001:000b2600       ??1DynamicsTGSContext@Dy@physx@@MEAA@XZ 00000001800b3600 f   LowLevelDynamics_static_64:DyTGSDynamics.obj
 0001:000b29e0       ??1ThreadContext@Dy@physx@@QEAA@XZ 00000001800b39e0 f i LowLevelDynamics_static_64:DyTGSDynamics.obj
 0001:000b2c70       ??_GPxsSolverCreateFinalizeConstraintsTask@Dy@physx@@UEAAPEAXI@Z 00000001800b3c70 f i LowLevelDynamics_static_64:DyDynamics.obj
 0001:000b2c70       ??_GSolveIslandTask@Dy@physx@@UEAAPEAXI@Z 00000001800b3c70 f i LowLevelDynamics_static_64:DyTGSDynamics.obj
 0001:000b2c70       ??_EArticulationTask@Dy@physx@@UEAAPEAXI@Z 00000001800b3c70 f i LowLevelDynamics_static_64:DyTGSDynamics.obj
 0001:000b2c70       ??_GFinishSolveIslandTask@Dy@physx@@UEAAPEAXI@Z 00000001800b3c70 f i LowLevelDynamics_static_64:DyTGSDynamics.obj
 0001:000b2c70       ??_EPxsSolverCreateFinalizeConstraintsTask@Dy@physx@@UEAAPEAXI@Z 00000001800b3c70 f i LowLevelDynamics_static_64:DyDynamics.obj
 0001:000b2c70       ??_EParallelSolveTask@Dy@physx@@UEAAPEAXI@Z 00000001800b3c70 f i LowLevelDynamics_static_64:DyTGSDynamics.obj
 0001:000b2c70       ??_GPartitionTask@Dy@physx@@UEAAPEAXI@Z 00000001800b3c70 f i LowLevelDynamics_static_64:DyTGSDynamics.obj
 0001:000b2c70       ??_ESolveIslandTask@Dy@physx@@UEAAPEAXI@Z 00000001800b3c70 f i LowLevelDynamics_static_64:DyTGSDynamics.obj
 0001:000b2c70       ??_GArticulationTask@Dy@physx@@UEAAPEAXI@Z 00000001800b3c70 f i LowLevelDynamics_static_64:DyTGSDynamics.obj
 0001:000b2c70       ??_EFinishSolveIslandTask@Dy@physx@@UEAAPEAXI@Z 00000001800b3c70 f i LowLevelDynamics_static_64:DyTGSDynamics.obj
 0001:000b2c70       ??_EPartitionTask@Dy@physx@@UEAAPEAXI@Z 00000001800b3c70 f i LowLevelDynamics_static_64:DyTGSDynamics.obj
 0001:000b2c70       ??_GParallelSolveTask@Dy@physx@@UEAAPEAXI@Z 00000001800b3c70 f i LowLevelDynamics_static_64:DyTGSDynamics.obj
 0001:000b2cb0       ??_EContext@Dy@physx@@MEAAPEAXI@Z 00000001800b3cb0 f i LowLevelDynamics_static_64:DyTGSDynamics.obj
 0001:000b2cb0       ??_GContext@Dy@physx@@MEAAPEAXI@Z 00000001800b3cb0 f i LowLevelDynamics_static_64:DyTGSDynamics.obj
 0001:000b2cf0       ??_GPxsCreateArticConstraintsSubTask@Dy@physx@@UEAAPEAXI@Z 00000001800b3cf0 f i LowLevelDynamics_static_64:DyTGSDynamics.obj
 0001:000b2cf0       ??_GCopyBackTask@Dy@physx@@UEAAPEAXI@Z 00000001800b3cf0 f i LowLevelDynamics_static_64:DyTGSDynamics.obj
 0001:000b2cf0       ??_ECopyBackTask@Dy@physx@@UEAAPEAXI@Z 00000001800b3cf0 f i LowLevelDynamics_static_64:DyTGSDynamics.obj
 0001:000b2cf0       ??_EPxsCreateArticConstraintsSubTask@Dy@physx@@UEAAPEAXI@Z 00000001800b3cf0 f i LowLevelDynamics_static_64:DyTGSDynamics.obj
 0001:000b2d30       ??_EDynamicsTGSContext@Dy@physx@@MEAAPEAXI@Z 00000001800b3d30 f i LowLevelDynamics_static_64:DyTGSDynamics.obj
 0001:000b2d30       ??_GDynamicsTGSContext@Dy@physx@@MEAAPEAXI@Z 00000001800b3d30 f i LowLevelDynamics_static_64:DyTGSDynamics.obj
 0001:000b2d70       ??_GScKinematicUpdateTask@@UEAAPEAXI@Z 00000001800b3d70 f i SimulationController_static_64:ScScene.obj
 0001:000b2d70       ??_GPostBroadPhaseStage2Task@Bp@physx@@UEAAPEAXI@Z 00000001800b3d70 f i LowLevelAABB_static_64:BpAABBManager.obj
 0001:000b2d70       ??_ESortAggregateBoundsParallel@Bp@physx@@UEAAPEAXI@Z 00000001800b3d70 f i LowLevelAABB_static_64:BpAABBManager.obj
 0001:000b2d70       ??_ESapUpdateWorkTask@Bp@physx@@UEAAPEAXI@Z 00000001800b3d70 f i LowLevelAABB_static_64:BpBroadPhaseSap.obj
 0001:000b2d70       ??_GSapPostUpdateWorkTask@Bp@physx@@UEAAPEAXI@Z 00000001800b3d70 f i LowLevelAABB_static_64:BpBroadPhaseSap.obj
 0001:000b2d70       ??_EScKinematicUpdateTask@@UEAAPEAXI@Z 00000001800b3d70 f i SimulationController_static_64:ScScene.obj
 0001:000b2d70       ??_EUpdatProjectedPoseTask@@UEAAPEAXI@Z 00000001800b3d70 f i SimulationController_static_64:ScScene.obj
 0001:000b2d70       ??_ESapPostUpdateWorkTask@Bp@physx@@UEAAPEAXI@Z 00000001800b3d70 f i LowLevelAABB_static_64:BpBroadPhaseSap.obj
 0001:000b2d70       ??_GUpdatProjectedPoseTask@@UEAAPEAXI@Z 00000001800b3d70 f i SimulationController_static_64:ScScene.obj
 0001:000b2d70       ??_EPostBroadPhaseStage2Task@Bp@physx@@UEAAPEAXI@Z 00000001800b3d70 f i LowLevelAABB_static_64:BpAABBManager.obj
 0001:000b2d70       ??_GSapUpdateWorkTask@Bp@physx@@UEAAPEAXI@Z 00000001800b3d70 f i LowLevelAABB_static_64:BpBroadPhaseSap.obj
 0001:000b2d70       ??_EThirdPassTask@IG@physx@@UEAAPEAXI@Z 00000001800b3d70 f i LowLevel_static_64:PxsSimpleIslandManager.obj
 0001:000b2d70       ??_GThirdPassTask@IG@physx@@UEAAPEAXI@Z 00000001800b3d70 f i LowLevel_static_64:PxsSimpleIslandManager.obj
 0001:000b2d70       ??_GEndIslandTask@Dy@physx@@UEAAPEAXI@Z 00000001800b3d70 f i LowLevelDynamics_static_64:DyTGSDynamics.obj
 0001:000b2d70       ??_EScKinematicPoseUpdateTask@@UEAAPEAXI@Z 00000001800b3d70 f i SimulationController_static_64:ScScene.obj
 0001:000b2d70       ??_GScKinematicPoseUpdateTask@@UEAAPEAXI@Z 00000001800b3d70 f i SimulationController_static_64:ScScene.obj
 0001:000b2d70       ??_EPxsCCDSweepTask@physx@@UEAAPEAXI@Z 00000001800b3d70 f i LowLevel_static_64:PxsCCD.obj
 0001:000b2d70       ??_GSortAggregateBoundsParallel@Bp@physx@@UEAAPEAXI@Z 00000001800b3d70 f i LowLevelAABB_static_64:BpAABBManager.obj
 0001:000b2d70       ??_GPxsCCDSweepTask@physx@@UEAAPEAXI@Z 00000001800b3d70 f i LowLevel_static_64:PxsCCD.obj
 0001:000b2d70       ??_EEndIslandTask@Dy@physx@@UEAAPEAXI@Z 00000001800b3d70 f i LowLevelDynamics_static_64:DyTGSDynamics.obj
 0001:000b2db0       ??_ESolverArticulationUpdateTask@Dy@physx@@UEAAPEAXI@Z 00000001800b3db0 f i LowLevelDynamics_static_64:DyDynamics.obj
 0001:000b2db0       ??_EPxsCMDiscreteUpdateTask@@UEAAPEAXI@Z 00000001800b3db0 f i LowLevel_static_64:PxsNphaseImplementationContext.obj
 0001:000b2db0       ??_GSolverArticulationUpdateTask@Dy@physx@@UEAAPEAXI@Z 00000001800b3db0 f i LowLevelDynamics_static_64:DyDynamics.obj
 0001:000b2db0       ??_EScAfterIntegrationTask@@UEAAPEAXI@Z 00000001800b3db0 f i SimulationController_static_64:ScScene.obj
 0001:000b2db0       ??_GKinematicCopyTGSTask@Dy@physx@@UEAAPEAXI@Z 00000001800b3db0 f i LowLevelDynamics_static_64:DyTGSDynamics.obj
 0001:000b2db0       ??_GPxsCreateArticConstraintsTask@Dy@physx@@UEAAPEAXI@Z 00000001800b3db0 f i LowLevelDynamics_static_64:DyDynamics.obj
 0001:000b2db0       ??_GScAfterIntegrationTask@@UEAAPEAXI@Z 00000001800b3db0 f i SimulationController_static_64:ScScene.obj
 0001:000b2db0       ??_EKinematicCopyTGSTask@Dy@physx@@UEAAPEAXI@Z 00000001800b3db0 f i LowLevelDynamics_static_64:DyTGSDynamics.obj
 0001:000b2db0       ??_GPxsCMDiscreteUpdateTask@@UEAAPEAXI@Z 00000001800b3db0 f i LowLevel_static_64:PxsNphaseImplementationContext.obj
 0001:000b2db0       ??_ESetupArticulationTask@Dy@physx@@UEAAPEAXI@Z 00000001800b3db0 f i LowLevelDynamics_static_64:DyTGSDynamics.obj
 0001:000b2db0       ??_GSetupSolverConstraintsTask@Dy@physx@@UEAAPEAXI@Z 00000001800b3db0 f i LowLevelDynamics_static_64:DyTGSDynamics.obj
 0001:000b2db0       ??_EPxsCreateArticConstraintsTask@Dy@physx@@UEAAPEAXI@Z 00000001800b3db0 f i LowLevelDynamics_static_64:DyDynamics.obj
 0001:000b2db0       ??_GSetupArticulationTask@Dy@physx@@UEAAPEAXI@Z 00000001800b3db0 f i LowLevelDynamics_static_64:DyTGSDynamics.obj
 0001:000b2db0       ??_ETriggerContactTask@Sc@physx@@UEAAPEAXI@Z 00000001800b3db0 f i SimulationController_static_64:ScNPhaseCore.obj
 0001:000b2db0       ??_ESetupSolverConstraintsTask@Dy@physx@@UEAAPEAXI@Z 00000001800b3db0 f i LowLevelDynamics_static_64:DyTGSDynamics.obj
 0001:000b2db0       ??_GTriggerContactTask@Sc@physx@@UEAAPEAXI@Z 00000001800b3db0 f i SimulationController_static_64:ScNPhaseCore.obj
 0001:000b2df0       ??_EPreIntegrateTask@Dy@physx@@UEAAPEAXI@Z 00000001800b3df0 f i LowLevelDynamics_static_64:DyTGSDynamics.obj
 0001:000b2df0       ??_GPxsPreIntegrateTask@Dy@physx@@UEAAPEAXI@Z 00000001800b3df0 f i LowLevelDynamics_static_64:DyDynamics.obj
 0001:000b2df0       ??_EPxsPreIntegrateTask@Dy@physx@@UEAAPEAXI@Z 00000001800b3df0 f i LowLevelDynamics_static_64:DyDynamics.obj
 0001:000b2df0       ??_GPreIntegrateParallelTask@Dy@physx@@UEAAPEAXI@Z 00000001800b3df0 f i LowLevelDynamics_static_64:DyTGSDynamics.obj
 0001:000b2df0       ??_GPxsCCDAdvanceTask@physx@@UEAAPEAXI@Z 00000001800b3df0 f i LowLevel_static_64:PxsCCD.obj
 0001:000b2df0       ??_GPreIntegrateTask@Dy@physx@@UEAAPEAXI@Z 00000001800b3df0 f i LowLevelDynamics_static_64:DyTGSDynamics.obj
 0001:000b2df0       ??_EPreIntegrateParallelTask@Dy@physx@@UEAAPEAXI@Z 00000001800b3df0 f i LowLevelDynamics_static_64:DyTGSDynamics.obj
 0001:000b2df0       ??_EPxsCCDAdvanceTask@physx@@UEAAPEAXI@Z 00000001800b3df0 f i LowLevel_static_64:PxsCCD.obj
 0001:000b2e30       ??_GBroadPhaseBatchUpdateWorkTask@Bp@physx@@UEAAPEAXI@Z 00000001800b3e30 f i LowLevelAABB_static_64:BpBroadPhaseSap.obj
 0001:000b2e30       ??_GScArticBeforeSolverTask@@UEAAPEAXI@Z 00000001800b3e30 f i SimulationController_static_64:ScScene.obj
 0001:000b2e30       ??_EBroadPhaseBatchUpdateWorkTask@Bp@physx@@UEAAPEAXI@Z 00000001800b3e30 f i LowLevelAABB_static_64:BpBroadPhaseSap.obj
 0001:000b2e30       ??_GUpdateArticTask@Dy@physx@@UEAAPEAXI@Z 00000001800b3e30 f i LowLevelDynamics_static_64:DyTGSDynamics.obj
 0001:000b2e30       ??_GPxsParallelSolverTask@Dy@physx@@UEAAPEAXI@Z 00000001800b3e30 f i LowLevelDynamics_static_64:DyDynamics.obj
 0001:000b2e30       ??_EPxsParallelSolverTask@Dy@physx@@UEAAPEAXI@Z 00000001800b3e30 f i LowLevelDynamics_static_64:DyDynamics.obj
 0001:000b2e30       ??_GScKinematicShapeUpdateTask@@UEAAPEAXI@Z 00000001800b3e30 f i SimulationController_static_64:ScScene.obj
 0001:000b2e30       ??_GSpeculativeCCDContactDistanceArticulationUpdateTask@@UEAAPEAXI@Z 00000001800b3e30 f i SimulationController_static_64:ScScene.obj
 0001:000b2e30       ??_EConstraintProjectionTask@@UEAAPEAXI@Z 00000001800b3e30 f i SimulationController_static_64:ScScene.obj
 0001:000b2e30       ??_EScArticBeforeSolverTask@@UEAAPEAXI@Z 00000001800b3e30 f i SimulationController_static_64:ScScene.obj
 0001:000b2e30       ??_EUpdateArticTask@Dy@physx@@UEAAPEAXI@Z 00000001800b3e30 f i LowLevelDynamics_static_64:DyTGSDynamics.obj
 0001:000b2e30       ??_GKinematicCopyTask@Dy@physx@@UEAAPEAXI@Z 00000001800b3e30 f i LowLevelDynamics_static_64:DyDynamics.obj
 0001:000b2e30       ??_ESetupArticulationInternalConstraintsTask@Dy@physx@@UEAAPEAXI@Z 00000001800b3e30 f i LowLevelDynamics_static_64:DyTGSDynamics.obj
 0001:000b2e30       ??_EScKinematicShapeUpdateTask@@UEAAPEAXI@Z 00000001800b3e30 f i SimulationController_static_64:ScScene.obj
 0001:000b2e30       ??_GSetupArticulationInternalConstraintsTask@Dy@physx@@UEAAPEAXI@Z 00000001800b3e30 f i LowLevelDynamics_static_64:DyTGSDynamics.obj
 0001:000b2e30       ??_EKinematicCopyTask@Dy@physx@@UEAAPEAXI@Z 00000001800b3e30 f i LowLevelDynamics_static_64:DyDynamics.obj
 0001:000b2e30       ??_ESpeculativeCCDContactDistanceArticulationUpdateTask@@UEAAPEAXI@Z 00000001800b3e30 f i SimulationController_static_64:ScScene.obj
 0001:000b2e30       ??_GConstraintProjectionTask@@UEAAPEAXI@Z 00000001800b3e30 f i SimulationController_static_64:ScScene.obj
 0001:000b2e70       ??_ESetupDescsTask@Dy@physx@@UEAAPEAXI@Z 00000001800b3e70 f i LowLevelDynamics_static_64:DyTGSDynamics.obj
 0001:000b2e70       ??_GOnOverlapCreatedTask@@UEAAPEAXI@Z 00000001800b3e70 f i SimulationController_static_64:ScScene.obj
 0001:000b2e70       ??_GPxsCreateFinalizeContactsTask@Dy@physx@@UEAAPEAXI@Z 00000001800b3e70 f i LowLevelDynamics_static_64:DyDynamics.obj
 0001:000b2e70       ??_GPxgUpdateBodyAndShapeStatusTask@@UEAAPEAXI@Z 00000001800b3e70 f i SimulationController_static_64:ScScene.obj
 0001:000b2e70       ??_EPxsCreateFinalizeContactsTask@Dy@physx@@UEAAPEAXI@Z 00000001800b3e70 f i LowLevelDynamics_static_64:DyDynamics.obj
 0001:000b2e70       ??_EPxgUpdateBodyAndShapeStatusTask@@UEAAPEAXI@Z 00000001800b3e70 f i SimulationController_static_64:ScScene.obj
 0001:000b2e70       ??_GSetupDescsTask@Dy@physx@@UEAAPEAXI@Z 00000001800b3e70 f i LowLevelDynamics_static_64:DyTGSDynamics.obj
 0001:000b2e70       ??_EOnOverlapCreatedTask@@UEAAPEAXI@Z 00000001800b3e70 f i SimulationController_static_64:ScScene.obj
 0001:000b2eb0       ??_GSetupSolverConstraintsSubTask@Dy@physx@@UEAAPEAXI@Z 00000001800b3eb0 f i LowLevelDynamics_static_64:DyTGSDynamics.obj
 0001:000b2eb0       ??_ESetupSolverConstraintsSubTask@Dy@physx@@UEAAPEAXI@Z 00000001800b3eb0 f i LowLevelDynamics_static_64:DyTGSDynamics.obj
 0001:000b2ef0       ?allocate@?$Array@VSpatialVector@Cm@physx@@V?$ReflectionAllocator@VSpatialVector@Cm@physx@@@shdfnd@3@@shdfnd@physx@@IEAAPEAVSpatialVector@Cm@3@I@Z 00000001800b3ef0 f i LowLevelDynamics_static_64:DyTGSDynamics.obj
 0001:000b2f90       ?allocate@FlushPool@Cm@physx@@QEAAPEAXII@Z 00000001800b3f90 f i LowLevelDynamics_static_64:DyTGSDynamics.obj
 0001:000b30c0       ?copy@?$Array@UPxTGSSolverBodyTxInertia@physx@@V?$AlignedAllocator@$0IA@V?$ReflectionAllocator@UPxTGSSolverBodyTxInertia@physx@@@shdfnd@physx@@@shdfnd@2@@shdfnd@physx@@KAXPEAUPxTGSSolverBodyTxInertia@3@0PEBU43@@Z 00000001800b40c0 f i LowLevelDynamics_static_64:DyTGSDynamics.obj
 0001:000b3370       ?copy@?$Array@UPxTGSSolverBodyVel@physx@@V?$AlignedAllocator@$0IA@V?$ReflectionAllocator@UPxTGSSolverBodyVel@physx@@@shdfnd@physx@@@shdfnd@2@@shdfnd@physx@@KAXPEAUPxTGSSolverBodyVel@3@0PEBU43@@Z 00000001800b4370 f i LowLevelDynamics_static_64:DyTGSDynamics.obj
 0001:000b36c0       ?copyBackBodies@DynamicsTGSContext@Dy@physx@@IEAAXAEBUSolverIslandObjectsStep@23@PEAUPxTGSSolverBodyVel@3@PEAUPxTGSSolverBodyTxInertia@3@PEAUPxTGSSolverBodyData@3@MAEAVIslandSim@IG@3@II@Z 00000001800b46c0 f   LowLevelDynamics_static_64:DyTGSDynamics.obj
 0001:000b43e0       ?copyToSolverBodyDataStep@Dy@physx@@YAXAEBVPxVec3@2@0M0AEBVPxTransform@2@MMIMMI_NAEAUPxTGSSolverBodyVel@2@AEAUPxTGSSolverBodyTxInertia@2@AEAUPxTGSSolverBodyData@2@@Z 00000001800b53e0 f   LowLevelDynamics_static_64:DyTGSDynamics.obj
 0001:000b47d0       ?create@?$Array@UPxTGSSolverBodyData@physx@@V?$AlignedAllocator@$0IA@V?$ReflectionAllocator@UPxTGSSolverBodyData@physx@@@shdfnd@physx@@@shdfnd@2@@shdfnd@physx@@KAXPEAUPxTGSSolverBodyData@3@0AEBU43@@Z 00000001800b57d0 f i LowLevelDynamics_static_64:DyTGSDynamics.obj
 0001:000b49d0       ?create@?$Array@UPxTGSSolverBodyTxInertia@physx@@V?$AlignedAllocator@$0IA@V?$ReflectionAllocator@UPxTGSSolverBodyTxInertia@physx@@@shdfnd@physx@@@shdfnd@2@@shdfnd@physx@@KAXPEAUPxTGSSolverBodyTxInertia@3@0AEBU43@@Z 00000001800b59d0 f i LowLevelDynamics_static_64:DyTGSDynamics.obj
 0001:000b4ca0       ?create@?$Array@UPxTGSSolverBodyVel@physx@@V?$AlignedAllocator@$0IA@V?$ReflectionAllocator@UPxTGSSolverBodyVel@physx@@@shdfnd@physx@@@shdfnd@2@@shdfnd@physx@@KAXPEAUPxTGSSolverBodyVel@3@0AEBU43@@Z 00000001800b5ca0 f i LowLevelDynamics_static_64:DyTGSDynamics.obj
 0001:000b5010       ?createSolverConstraints@DynamicsTGSContext@Dy@physx@@IEAAXPEAUPxSolverConstraintDesc@3@PEAUPxConstraintBatchHeader@3@IAEAVPxsContactManagerOutputIterator@3@AEAVThreadContext@23@3MMMI@Z 00000001800b6010 f   LowLevelDynamics_static_64:DyTGSDynamics.obj
 0001:000b58f0       ?createTGSDynamicsContext@Dy@physx@@YAPEAVContext@12@PEAVPxcNpMemBlockPool@2@AEAVPxcScratchAllocator@2@AEAVFlushPool@Cm@2@AEAUPxvSimStats@2@PEAVPxTaskManager@2@PEAVVirtualAllocatorCallback@shdfnd@2@PEAVPxsMaterialManager@2@PEAVIslandSim@IG@2@_K_N99M@Z 00000001800b68f0 f   LowLevelDynamics_static_64:DyTGSDynamics.obj
 0001:000b5a00       ?destroy@DynamicsContext@Dy@physx@@UEAAXXZ 00000001800b6a00 f   LowLevelDynamics_static_64:DyDynamics.obj
 0001:000b5a00       ?destroy@DynamicsTGSContext@Dy@physx@@UEAAXXZ 00000001800b6a00 f   LowLevelDynamics_static_64:DyTGSDynamics.obj
 0001:000b5a30       ?finishSolveIsland@DynamicsTGSContext@Dy@physx@@IEAAXAEAVThreadContext@23@AEBUSolverIslandObjectsStep@23@AEBVPxsIslandIndices@3@AEAVSimpleIslandManager@IG@3@PEAVPxBaseTask@3@@Z 00000001800b6a30 f   LowLevelDynamics_static_64:DyTGSDynamics.obj
 0001:000b5e90       ?get@?$PxcThreadCoherentCache@VThreadContext@Dy@physx@@VPxcNpMemBlockPool@3@@physx@@QEAAPEAVThreadContext@Dy@2@XZ 00000001800b6e90 f i LowLevelDynamics_static_64:DyTGSDynamics.obj
 0001:000b5f40       ?getName@ArticulationTask@Dy@physx@@UEBAPEBDXZ 00000001800b6f40 f i LowLevelDynamics_static_64:DyTGSDynamics.obj
 0001:000b5f50       ?getName@CopyBackTask@Dy@physx@@UEBAPEBDXZ 00000001800b6f50 f i LowLevelDynamics_static_64:DyTGSDynamics.obj
 0001:000b5f60       ?getName@DynamicsMergeTask@Dy@physx@@UEBAPEBDXZ 00000001800b6f60 f i LowLevelDynamics_static_64:DyTGSDynamics.obj
 0001:000b5f70       ?getName@EndIslandTask@Dy@physx@@UEBAPEBDXZ 00000001800b6f70 f i LowLevelDynamics_static_64:DyTGSDynamics.obj
 0001:000b5f80       ?getName@FinishSolveIslandTask@Dy@physx@@UEBAPEBDXZ 00000001800b6f80 f i LowLevelDynamics_static_64:DyTGSDynamics.obj
 0001:000b5f90       ?getName@KinematicCopyTGSTask@Dy@physx@@UEBAPEBDXZ 00000001800b6f90 f i LowLevelDynamics_static_64:DyTGSDynamics.obj
 0001:000b5f90       ?getName@KinematicCopyTask@Dy@physx@@UEBAPEBDXZ 00000001800b6f90 f i LowLevelDynamics_static_64:DyDynamics.obj
 0001:000b5fa0       ?getName@ParallelSolveTask@Dy@physx@@UEBAPEBDXZ 00000001800b6fa0 f i LowLevelDynamics_static_64:DyTGSDynamics.obj
 0001:000b5fb0       ?getName@PartitionTask@Dy@physx@@UEBAPEBDXZ 00000001800b6fb0 f i LowLevelDynamics_static_64:DyTGSDynamics.obj
 0001:000b5fc0       ?getName@PreIntegrateParallelTask@Dy@physx@@UEBAPEBDXZ 00000001800b6fc0 f i LowLevelDynamics_static_64:DyTGSDynamics.obj
 0001:000b5fd0       ?getName@PreIntegrateTask@Dy@physx@@UEBAPEBDXZ 00000001800b6fd0 f i LowLevelDynamics_static_64:DyTGSDynamics.obj
 0001:000b5fe0       ?getName@PxsCreateArticConstraintsSubTask@Dy@physx@@UEBAPEBDXZ 00000001800b6fe0 f i LowLevelDynamics_static_64:DyTGSDynamics.obj
 0001:000b5ff0       ?getName@SetStepperTask@Dy@physx@@UEBAPEBDXZ 00000001800b6ff0 f i LowLevelDynamics_static_64:DyTGSDynamics.obj
 0001:000b6000       ?getName@SetupArticulationInternalConstraintsTask@Dy@physx@@UEBAPEBDXZ 00000001800b7000 f i LowLevelDynamics_static_64:DyTGSDynamics.obj
 0001:000b6010       ?getName@SetupArticulationTask@Dy@physx@@UEBAPEBDXZ 00000001800b7010 f i LowLevelDynamics_static_64:DyTGSDynamics.obj
 0001:000b6020       ?getName@SetupDescsTask@Dy@physx@@UEBAPEBDXZ 00000001800b7020 f i LowLevelDynamics_static_64:DyTGSDynamics.obj
 0001:000b6030       ?getName@SetupSolverConstraintsSubTask@Dy@physx@@UEBAPEBDXZ 00000001800b7030 f i LowLevelDynamics_static_64:DyTGSDynamics.obj
 0001:000b6040       ?getName@SetupSolverConstraintsTask@Dy@physx@@UEBAPEBDXZ 00000001800b7040 f i LowLevelDynamics_static_64:DyTGSDynamics.obj
 0001:000b6050       ?getName@SolveIslandTask@Dy@physx@@UEBAPEBDXZ 00000001800b7050 f i LowLevelDynamics_static_64:DyTGSDynamics.obj
 0001:000b6060       ?getName@UpdateArticTask@Dy@physx@@UEBAPEBDXZ 00000001800b7060 f i LowLevelDynamics_static_64:DyTGSDynamics.obj
 0001:000b6070       ?getName@UpdateContinuationTGSTask@Dy@physx@@UEBAPEBDXZ 00000001800b7070 f i LowLevelDynamics_static_64:DyTGSDynamics.obj
 0001:000b6070       ?getName@UpdateContinuationTask@Dy@physx@@UEBAPEBDXZ 00000001800b7070 f i LowLevelDynamics_static_64:DyDynamics.obj
 0001:000b6080       ?integrateBodies@DynamicsTGSContext@Dy@physx@@IEAAXAEBUSolverIslandObjectsStep@23@IPEAUPxTGSSolverBodyVel@3@PEAUPxTGSSolverBodyTxInertia@3@QEBUPxTGSSolverBodyData@3@M@Z 00000001800b7080 f   LowLevelDynamics_static_64:DyTGSDynamics.obj
 0001:000b6460       ?integrateCoreStep@Dy@physx@@YAXAEAUPxTGSSolverBodyVel@2@AEAUPxTGSSolverBodyTxInertia@2@M@Z 00000001800b7460 f   LowLevelDynamics_static_64:DyTGSDynamics.obj
 0001:000b67a0       ?iterativeSolveIsland@DynamicsTGSContext@Dy@physx@@IEAAXAEBUSolverIslandObjectsStep@23@AEBVPxsIslandIndices@3@AEAVThreadContext@23@MMIIAEAUSolverContext@23@@Z 00000001800b77a0 f   LowLevelDynamics_static_64:DyTGSDynamics.obj
 0001:000b6f50       ?iterativeSolveIslandParallel@DynamicsTGSContext@Dy@physx@@IEAAXAEBUSolverIslandObjectsStep@23@AEBVPxsIslandIndices@3@AEAVThreadContext@23@MIIPEAH33333II@Z 00000001800b7f50 f   LowLevelDynamics_static_64:DyTGSDynamics.obj
 0001:000b8050       ?parallelIntegrateBodies@DynamicsTGSContext@Dy@physx@@IEAAXPEAUPxTGSSolverBodyVel@3@PEAUPxTGSSolverBodyTxInertia@3@QEBUPxTGSSolverBodyData@3@IM@Z 00000001800b9050 f   LowLevelDynamics_static_64:DyTGSDynamics.obj
 0001:000b8430       ?preIntegrateBodies@DynamicsTGSContext@Dy@physx@@IEAAXPEAPEAUPxsBodyCore@3@PEAPEAVPxsRigidBody@3@PEAUPxTGSSolverBodyVel@3@PEAUPxTGSSolverBodyTxInertia@3@PEAUPxTGSSolverBodyData@3@PEAIIAEBVPxVec3@3@MAEAI7I@Z 00000001800b9430 f   LowLevelDynamics_static_64:DyTGSDynamics.obj
 0001:000b87e0       ?prepareBodiesAndConstraints@DynamicsTGSContext@Dy@physx@@IEAAXAEBUSolverIslandObjectsStep@23@AEAVSimpleIslandManager@IG@3@AEAUIslandContextStep@23@@Z 00000001800b97e0 f   LowLevelDynamics_static_64:DyTGSDynamics.obj
 0001:000b8be0       ?recreate@?$Array@PEAUPxsBodyCore@physx@@V?$ReflectionAllocator@PEAUPxsBodyCore@physx@@@shdfnd@2@@shdfnd@physx@@IEAAXI@Z 00000001800b9be0 f i LowLevelDynamics_static_64:DyTGSDynamics.obj
 0001:000b8cf0       ?recreate@?$Array@PEAVArticulationV@Dy@physx@@V?$ReflectionAllocator@PEAVArticulationV@Dy@physx@@@shdfnd@3@@shdfnd@physx@@IEAAXI@Z 00000001800b9cf0 f i LowLevelDynamics_static_64:DyTGSDynamics.obj
 0001:000b8e00       ?recreate@?$Array@PEAVPxsRigidBody@physx@@V?$ReflectionAllocator@PEAVPxsRigidBody@physx@@@shdfnd@2@@shdfnd@physx@@IEAAXI@Z 00000001800b9e00 f i LowLevelDynamics_static_64:DyTGSDynamics.obj
 0001:000b8f10       ?recreate@?$Array@UPxConstraintBatchHeader@physx@@V?$ReflectionAllocator@UPxConstraintBatchHeader@physx@@@shdfnd@2@@shdfnd@physx@@IEAAXI@Z 00000001800b9f10 f i LowLevelDynamics_static_64:DyTGSDynamics.obj
 0001:000b9020       ?recreate@?$Array@UPxSolverConstraintDesc@physx@@V?$AlignedAllocator@$0IA@V?$ReflectionAllocator@UPxSolverConstraintDesc@physx@@@shdfnd@physx@@@shdfnd@2@@shdfnd@physx@@IEAAXI@Z 00000001800ba020 f i LowLevelDynamics_static_64:DyTGSDynamics.obj
 0001:000b9120       ?recreate@?$Array@UPxTGSSolverBodyData@physx@@V?$AlignedAllocator@$0IA@V?$ReflectionAllocator@UPxTGSSolverBodyData@physx@@@shdfnd@physx@@@shdfnd@2@@shdfnd@physx@@IEAAXI@Z 00000001800ba120 f i LowLevelDynamics_static_64:DyTGSDynamics.obj
 0001:000b9430       ?recreate@?$Array@UPxTGSSolverBodyTxInertia@physx@@V?$AlignedAllocator@$0IA@V?$ReflectionAllocator@UPxTGSSolverBodyTxInertia@physx@@@shdfnd@physx@@@shdfnd@2@@shdfnd@physx@@IEAAXI@Z 00000001800ba430 f i LowLevelDynamics_static_64:DyTGSDynamics.obj
 0001:000b9550       ?recreate@?$Array@UPxTGSSolverBodyVel@physx@@V?$AlignedAllocator@$0IA@V?$ReflectionAllocator@UPxTGSSolverBodyVel@physx@@@shdfnd@physx@@@shdfnd@2@@shdfnd@physx@@IEAAXI@Z 00000001800ba550 f i LowLevelDynamics_static_64:DyTGSDynamics.obj
 0001:000b9670       ?recreate@?$Array@UPxsIndexedContactManager@physx@@V?$ReflectionAllocator@UPxsIndexedContactManager@physx@@@shdfnd@2@@shdfnd@physx@@IEAAXI@Z 00000001800ba670 f i LowLevelDynamics_static_64:DyTGSDynamics.obj
 0001:000b9790       ?recreate@?$Array@UThresholdStreamElement@Dy@physx@@VVirtualAllocator@shdfnd@3@@shdfnd@physx@@IEAAXI@Z 00000001800ba790 f i LowLevelDynamics_static_64:DyTGSDynamics.obj
 0001:000b9840       ?recreate@?$Array@VSpatialVector@Cm@physx@@V?$ReflectionAllocator@VSpatialVector@Cm@physx@@@shdfnd@3@@shdfnd@physx@@IEAAXI@Z 00000001800ba840 f i LowLevelDynamics_static_64:DyTGSDynamics.obj
 0001:000b98d0       ?release@DynamicsMergeTask@Dy@physx@@UEAAXXZ 00000001800ba8d0 f i LowLevelDynamics_static_64:DyTGSDynamics.obj
 0001:000b9900       ?release@SetStepperTask@Dy@physx@@UEAAXXZ 00000001800ba900 f i LowLevelDynamics_static_64:DyTGSDynamics.obj
 0001:000b9930       ?resize@?$Array@IV?$ReflectionAllocator@I@shdfnd@physx@@@shdfnd@physx@@QEAAXIAEBI@Z 00000001800ba930 f i LowLevelDynamics_static_64:DyTGSDynamics.obj
 0001:000b99f0       ?resize@?$Array@UPxTGSSolverBodyData@physx@@V?$AlignedAllocator@$0IA@V?$ReflectionAllocator@UPxTGSSolverBodyData@physx@@@shdfnd@physx@@@shdfnd@2@@shdfnd@physx@@QEAAXIAEBUPxTGSSolverBodyData@3@@Z 00000001800ba9f0 f i LowLevelDynamics_static_64:DyTGSDynamics.obj
 0001:000b9a50       ?resize@?$Array@UPxTGSSolverBodyTxInertia@physx@@V?$AlignedAllocator@$0IA@V?$ReflectionAllocator@UPxTGSSolverBodyTxInertia@physx@@@shdfnd@physx@@@shdfnd@2@@shdfnd@physx@@QEAAXIAEBUPxTGSSolverBodyTxInertia@3@@Z 00000001800baa50 f i LowLevelDynamics_static_64:DyTGSDynamics.obj
 0001:000b9ab0       ?resize@?$Array@UPxTGSSolverBodyVel@physx@@V?$AlignedAllocator@$0IA@V?$ReflectionAllocator@UPxTGSSolverBodyVel@physx@@@shdfnd@physx@@@shdfnd@2@@shdfnd@physx@@QEAAXIAEBUPxTGSSolverBodyVel@3@@Z 00000001800baab0 f i LowLevelDynamics_static_64:DyTGSDynamics.obj
 0001:000b9b10       ?runInternal@ArticulationTask@Dy@physx@@UEAAXXZ 00000001800bab10 f i LowLevelDynamics_static_64:DyTGSDynamics.obj
 0001:000b9c40       ?runInternal@CopyBackTask@Dy@physx@@UEAAXXZ 00000001800bac40 f i LowLevelDynamics_static_64:DyTGSDynamics.obj
 0001:000b9c90       ?runInternal@EndIslandTask@Dy@physx@@UEAAXXZ 00000001800bac90 f i LowLevelDynamics_static_64:DyTGSDynamics.obj
 0001:000b9cb0       ?runInternal@FinishSolveIslandTask@Dy@physx@@UEAAXXZ 00000001800bacb0 f i LowLevelDynamics_static_64:DyTGSDynamics.obj
 0001:000b9ce0       ?runInternal@KinematicCopyTGSTask@Dy@physx@@UEAAXXZ 00000001800bace0 f i LowLevelDynamics_static_64:DyTGSDynamics.obj
 0001:000b9e80       ?runInternal@ParallelSolveTask@Dy@physx@@UEAAXXZ 00000001800bae80 f i LowLevelDynamics_static_64:DyTGSDynamics.obj
 0001:000b9f30       ?runInternal@PartitionTask@Dy@physx@@UEAAXXZ 00000001800baf30 f i LowLevelDynamics_static_64:DyTGSDynamics.obj
 0001:000ba360       ?runInternal@PreIntegrateParallelTask@Dy@physx@@UEAAXXZ 00000001800bb360 f i LowLevelDynamics_static_64:DyTGSDynamics.obj
 0001:000ba400       ?runInternal@PreIntegrateTask@Dy@physx@@UEAAXXZ 00000001800bb400 f i LowLevelDynamics_static_64:DyTGSDynamics.obj
 0001:000ba770       ?runInternal@PxsCreateArticConstraintsSubTask@Dy@physx@@UEAAXXZ 00000001800bb770 f i LowLevelDynamics_static_64:DyTGSDynamics.obj
 0001:000ba8f0       ?runInternal@SetStepperTask@Dy@physx@@UEAAXXZ 00000001800bb8f0 f i LowLevelDynamics_static_64:DyTGSDynamics.obj
 0001:000ba970       ?runInternal@SetupArticulationInternalConstraintsTask@Dy@physx@@UEAAXXZ 00000001800bb970 f i LowLevelDynamics_static_64:DyTGSDynamics.obj
 0001:000bab70       ?runInternal@SetupArticulationTask@Dy@physx@@UEAAXXZ 00000001800bbb70 f i LowLevelDynamics_static_64:DyTGSDynamics.obj
 0001:000babe0       ?runInternal@SetupDescsTask@Dy@physx@@UEAAXXZ 00000001800bbbe0 f i LowLevelDynamics_static_64:DyTGSDynamics.obj
 0001:000bac30       ?runInternal@SetupSolverConstraintsSubTask@Dy@physx@@UEAAXXZ 00000001800bbc30 f i LowLevelDynamics_static_64:DyTGSDynamics.obj
 0001:000bace0       ?runInternal@SetupSolverConstraintsTask@Dy@physx@@UEAAXXZ 00000001800bbce0 f i LowLevelDynamics_static_64:DyTGSDynamics.obj
 0001:000bb140       ?runInternal@SolveIslandTask@Dy@physx@@UEAAXXZ 00000001800bc140 f i LowLevelDynamics_static_64:DyTGSDynamics.obj
 0001:000bb620       ?runInternal@UpdateArticTask@Dy@physx@@UEAAXXZ 00000001800bc620 f i LowLevelDynamics_static_64:DyTGSDynamics.obj
 0001:000bb6c0       ?runInternal@UpdateContinuationTGSTask@Dy@physx@@UEAAXXZ 00000001800bc6c0 f i LowLevelDynamics_static_64:DyTGSDynamics.obj
 0001:000bb6f0       ?setDescFromIndices@DynamicsTGSContext@Dy@physx@@IEAAXAEAUPxSolverConstraintDesc@3@IAEBVSimpleIslandManager@IG@3@PEAIIPEAUPxTGSSolverBodyVel@3@@Z 00000001800bc6f0 f   LowLevelDynamics_static_64:DyTGSDynamics.obj
 0001:000bb940       ?setSimulationController@DynamicsContext@Dy@physx@@UEAAXPEAVPxsSimulationController@3@@Z 00000001800bc940 f i LowLevelDynamics_static_64:DyDynamics.obj
 0001:000bb940       ?setSimulationController@DynamicsTGSContext@Dy@physx@@UEAAXPEAVPxsSimulationController@3@@Z 00000001800bc940 f i LowLevelDynamics_static_64:DyTGSDynamics.obj
 0001:000bb950       ?setupArticulations@DynamicsTGSContext@Dy@physx@@IEAAXAEAUIslandContextStep@23@AEBVPxVec3@3@MAEAI2PEAVPxBaseTask@3@@Z 00000001800bc950 f   LowLevelDynamics_static_64:DyTGSDynamics.obj
 0001:000bbcb0       ?setupDescs@DynamicsTGSContext@Dy@physx@@IEAAXAEAUIslandContextStep@23@AEBUSolverIslandObjectsStep@23@AEAVSimpleIslandManager@IG@3@PEAIIAEAVPxsContactManagerOutputIterator@3@@Z 00000001800bccb0 f   LowLevelDynamics_static_64:DyTGSDynamics.obj
 0001:000bbfc0       ?solveConcludeConstraintsIteration@DynamicsTGSContext@Dy@physx@@IEAAXQEBUPxSolverConstraintDesc@3@QEBUPxConstraintBatchHeader@3@IPEAUPxTGSSolverBodyTxInertia@3@MAEAUSolverContext@23@@Z 00000001800bcfc0 f   LowLevelDynamics_static_64:DyTGSDynamics.obj
 0001:000bc060       ?solveIsland@DynamicsTGSContext@Dy@physx@@IEAAXAEBUSolverIslandObjectsStep@23@AEBVPxsIslandIndices@3@IAEAVSimpleIslandManager@IG@3@PEAIPEAVPxsMaterialManager@3@AEAVPxsContactManagerOutputIterator@3@PEAVPxBaseTask@3@@Z 00000001800bd060 f   LowLevelDynamics_static_64:DyTGSDynamics.obj
 0001:000bc910       ?transformInertiaTensor@Cm@physx@@YAXAEBVPxVec3@2@AEBVPxMat33@2@AEAV42@@Z 00000001800bd910 f i LowLevelDynamics_static_64:DyTGSDynamics.obj
 0001:000bca90       ?update@DynamicsTGSContext@Dy@physx@@UEAAXAEAVSimpleIslandManager@IG@3@PEAVPxBaseTask@3@1PEAPEAVPxsContactManager@3@I2IIAEAVPxsContactManagerOutputIterator@3@PEAUPxsContactManagerOutput@3@MAEBVPxVec3@3@I@Z 00000001800bda90 f   LowLevelDynamics_static_64:DyTGSDynamics.obj
 0001:000bd460       ?updatePostKinematic@DynamicsTGSContext@Dy@physx@@QEAAXAEAVSimpleIslandManager@IG@3@PEAVPxBaseTask@3@1@Z 00000001800be460 f   LowLevelDynamics_static_64:DyTGSDynamics.obj
 0001:000bd7f0       ?createHardLimit@ArticulationHelper@Dy@physx@@SAXAEBUFsData@23@PEBUArticulationLink@23@IAEAUSolverConstraint1DExt@23@AEBVPxVec3@3@MM@Z 00000001800be7f0 f   LowLevelDynamics_static_64:DyArticulationHelper.obj
 0001:000bda60       ?createTangentialSpring@ArticulationHelper@Dy@physx@@SAXAEBUFsData@23@PEBUArticulationLink@23@IAEAUSolverConstraint1DExt@23@AEBVPxVec3@3@MMM@Z 00000001800bea60 f   LowLevelDynamics_static_64:DyArticulationHelper.obj
 0001:000bdd10       ?getImpulseResponse@ArticulationHelper@Dy@physx@@SAXAEBUFsData@23@IAEBUSpatialVectorV@Cm@3@AEAU563@@Z 00000001800bed10 f   LowLevelDynamics_static_64:DyArticulationHelper.obj
 0001:000be130       ?getImpulseSelfResponse@ArticulationHelper@Dy@physx@@SAXAEBUFsData@23@IAEBUSpatialVectorV@Cm@3@AEAU563@I12@Z 00000001800bf130 f   LowLevelDynamics_static_64:DyArticulationHelper.obj
 0001:000be860       ?setupSolverConstraints@ArticulationHelper@Dy@physx@@SAIAEAVArticulation@23@IAEAVPxConstraintAllocator@3@PEAUPxSolverConstraintDesc@3@PEBUArticulationLink@23@PEBUArticulationJointTransforms@23@MAEAI@Z 00000001800bf860 f   LowLevelDynamics_static_64:DyArticulationHelper.obj
 0001:000bf140       ?SolverCoreRegisterArticulationFnsCoulomb@Dy@physx@@YAXXZ 00000001800c0140 f   LowLevelDynamics_static_64:DySolverControlPF.obj
 0001:000bf1c0       ?create@SolverCoreGeneralPF@Dy@physx@@SAPEAV123@XZ 00000001800c01c0 f   LowLevelDynamics_static_64:DySolverControlPF.obj
 0001:000bf210       ?solveVParallelAndWriteBack@SolverCoreGeneralPF@Dy@physx@@UEBAHAEAUSolverIslandParams@23@PEAUSpatialVectorF@Cm@3@1@Z 00000001800c0210 f   LowLevelDynamics_static_64:DySolverControlPF.obj
 0001:000c0790       ?solveV_Blocks@SolverCoreGeneralPF@Dy@physx@@UEBAXAEAUSolverIslandParams@23@@Z 00000001800c1790 f   LowLevelDynamics_static_64:DySolverControlPF.obj
 0001:000c1390       ?PxcFsFlushVelocity@Dy@physx@@YAXAEAUFsData@12@@Z 00000001800c2390 f   LowLevelDynamics_static_64:DyArticulationSIMD.obj
 0001:000c1820       ?PxcFsGetMotionVector@Dy@physx@@YA?AUSpatialVectorV@Cm@2@AEAVArticulationV@12@I@Z 00000001800c2820 f   LowLevelDynamics_static_64:DyArticulationSIMD.obj
 0001:000c1850       ??$sort@IU?$Less@I@shdfnd@physx@@V?$ReflectionAllocator@I@23@@shdfnd@physx@@YAXPEAIIAEBU?$Less@I@01@AEBV?$ReflectionAllocator@I@01@I@Z 00000001800c2850 f i LowLevelDynamics_static_64:DyDynamics.obj
 0001:000c1c00       ??$sort@PEAUContactPatch@Dy@physx@@USortBoundsPredicateManifold@23@V?$ReflectionAllocator@PEAUContactPatch@Dy@physx@@@shdfnd@3@@shdfnd@physx@@YAXPEAPEAUContactPatch@Dy@1@IAEBUSortBoundsPredicateManifold@31@AEBV?$ReflectionAllocator@PEAUContactPatch@Dy@physx@@@01@I@Z 00000001800c2c00 f i LowLevelDynamics_static_64:DyDynamics.obj
 0001:000c2130       ??$sort@PEBUPxsIndexedContactManager@physx@@UArticulationSortPredicate@Dy@2@V?$ReflectionAllocator@PEBUPxsIndexedContactManager@physx@@@shdfnd@2@@shdfnd@physx@@YAXPEAPEBUPxsIndexedContactManager@1@IAEBUArticulationSortPredicate@Dy@1@AEBV?$ReflectionAllocator@PEBUPxsIndexedContactManager@physx@@@01@I@Z 00000001800c3130 f i LowLevelDynamics_static_64:DyDynamics.obj
 0001:000c2510       ??$sort@UPxsIndexedContactManager@physx@@UEnhancedSortPredicate@Dy@2@V?$ReflectionAllocator@UPxsIndexedContactManager@physx@@@shdfnd@2@@shdfnd@physx@@YAXPEAUPxsIndexedContactManager@1@IAEBUEnhancedSortPredicate@Dy@1@AEBV?$ReflectionAllocator@UPxsIndexedContactManager@physx@@@01@I@Z 00000001800c3510 f i LowLevelDynamics_static_64:DyDynamics.obj
 0001:000c2a50       ??0DynamicsContext@Dy@physx@@IEAA@PEAVPxcNpMemBlockPool@2@AEAVPxcScratchAllocator@2@AEAVFlushPool@Cm@2@AEAUPxvSimStats@2@PEAVPxTaskManager@2@PEAVVirtualAllocatorCallback@shdfnd@2@PEAVPxsMaterialManager@2@PEAVIslandSim@IG@2@_K_N99M9@Z 00000001800c3a50 f   LowLevelDynamics_static_64:DyDynamics.obj
 0001:000c2ed0       ??1DynamicsContext@Dy@physx@@MEAA@XZ 00000001800c3ed0 f   LowLevelDynamics_static_64:DyDynamics.obj
 0001:000c32a0       ??_GDynamicsContext@Dy@physx@@MEAAPEAXI@Z 00000001800c42a0 f i LowLevelDynamics_static_64:DyDynamics.obj
 0001:000c32a0       ??_EDynamicsContext@Dy@physx@@MEAAPEAXI@Z 00000001800c42a0 f i LowLevelDynamics_static_64:DyDynamics.obj
 0001:000c32e0       ??_GPxsSolverConstraintPartitionTask@Dy@physx@@UEAAPEAXI@Z 00000001800c42e0 f i LowLevelDynamics_static_64:DyDynamics.obj
 0001:000c32e0       ??_EPxsSolverConstraintPartitionTask@Dy@physx@@UEAAPEAXI@Z 00000001800c42e0 f i LowLevelDynamics_static_64:DyDynamics.obj
 0001:000c3320       ??_GPxsSolverConstraintPostProcessTask@Dy@physx@@UEAAPEAXI@Z 00000001800c4320 f i LowLevelDynamics_static_64:DyDynamics.obj
 0001:000c3320       ??_EPxsSolverConstraintPostProcessTask@Dy@physx@@UEAAPEAXI@Z 00000001800c4320 f i LowLevelDynamics_static_64:DyDynamics.obj
 0001:000c3360       ??_GPxsSolverEndTask@Dy@physx@@UEAAPEAXI@Z 00000001800c4360 f i LowLevelDynamics_static_64:DyDynamics.obj
 0001:000c3360       ??_GPxsSolverSetupSolveTask@Dy@physx@@UEAAPEAXI@Z 00000001800c4360 f i LowLevelDynamics_static_64:DyDynamics.obj
 0001:000c3360       ??_EPxsSolverEndTask@Dy@physx@@UEAAPEAXI@Z 00000001800c4360 f i LowLevelDynamics_static_64:DyDynamics.obj
 0001:000c3360       ??_EPxsSolverSetupSolveTask@Dy@physx@@UEAAPEAXI@Z 00000001800c4360 f i LowLevelDynamics_static_64:DyDynamics.obj
 0001:000c33a0       ??_GPxsSolverStartTask@Dy@physx@@UEAAPEAXI@Z 00000001800c43a0 f i LowLevelDynamics_static_64:DyDynamics.obj
 0001:000c33a0       ??_EPxsSolverStartTask@Dy@physx@@UEAAPEAXI@Z 00000001800c43a0 f i LowLevelDynamics_static_64:DyDynamics.obj
 0001:000c33e0       ?allocate@?$ReflectionAllocator@PEBUPxsIndexedContactManager@physx@@@shdfnd@physx@@QEAAPEAX_KPEBDH@Z 00000001800c43e0 f i LowLevelDynamics_static_64:DyDynamics.obj
 0001:000c3480       ?allocate@?$ReflectionAllocator@UPxsIndexedContactManager@physx@@@shdfnd@physx@@QEAAPEAX_KPEBDH@Z 00000001800c4480 f i LowLevelDynamics_static_64:DyDynamics.obj
 0001:000c3520       ?build@ThresholdTable@Dy@physx@@QEAAXAEBVThresholdStream@23@@Z 00000001800c4520 f i LowLevelDynamics_static_64:DyDynamics.obj
 0001:000c37c0       ?createDynamicsContext@Dy@physx@@YAPEAVContext@12@PEAVPxcNpMemBlockPool@2@AEAVPxcScratchAllocator@2@AEAVFlushPool@Cm@2@AEAUPxvSimStats@2@PEAVPxTaskManager@2@PEAVVirtualAllocatorCallback@shdfnd@2@PEAVPxsMaterialManager@2@PEAVIslandSim@IG@2@_K_N99M9@Z 00000001800c47c0 f   LowLevelDynamics_static_64:DyDynamics.obj
 0001:000c4250       ?createForceChangeThresholdStream@PxsForceThresholdTask@Dy@physx@@QEAAXXZ 00000001800c5250 f i LowLevelDynamics_static_64:DyDynamics.obj
 0001:000c46b0       ?createSolverTaskChain@Dy@physx@@YAPEAVPxBaseTask@2@AEAVDynamicsContext@12@AEBUSolverIslandObjects@12@AEBVPxsIslandIndices@2@IAEAVSimpleIslandManager@IG@2@PEAIPEAVPxsMaterialManager@2@PEAV32@AEAVPxsContactManagerOutputIterator@2@_N@Z 00000001800c56b0 f   LowLevelDynamics_static_64:DyDynamics.obj
 0001:000c4bf0       ?getName@PxsCreateFinalizeContactsTask@Dy@physx@@UEBAPEBDXZ 00000001800c5bf0 f i LowLevelDynamics_static_64:DyDynamics.obj
